
barquinho.elf:     file format elf32-littlearm

Sections:
Idx Name          Size      VMA       LMA       File off  Algn
  0 .isr_vector   000001c4  08000000  08000000  00001000  2**0
                  CONTENTS, ALLOC, LOAD, READONLY, DATA
  1 .text         000024a0  080001c4  080001c4  000011c4  2**2
                  CONTENTS, ALLOC, LOAD, READONLY, CODE
  2 .rodata       00000018  08002664  08002664  00003664  2**0
                  CONTENTS, ALLOC, LOAD, READONLY, DATA
  3 .ARM.extab    00000000  0800267c  0800267c  0000400c  2**0
                  CONTENTS
  4 .ARM          00000008  0800267c  0800267c  0000367c  2**2
                  CONTENTS, ALLOC, LOAD, READONLY, DATA
  5 .preinit_array 00000000  08002684  08002684  0000400c  2**0
                  CONTENTS, ALLOC, LOAD, DATA
  6 .init_array   00000004  08002684  08002684  00003684  2**2
                  CONTENTS, ALLOC, LOAD, READONLY, DATA
  7 .fini_array   00000004  08002688  08002688  00003688  2**2
                  CONTENTS, ALLOC, LOAD, READONLY, DATA
  8 .data         0000000c  20000000  0800268c  00004000  2**2
                  CONTENTS, ALLOC, LOAD, DATA
  9 .bss          00000198  2000000c  08002698  0000400c  2**2
                  ALLOC
 10 ._user_heap_stack 00000604  200001a4  08002698  000041a4  2**0
                  ALLOC
 11 .ARM.attributes 00000030  00000000  00000000  0000400c  2**0
                  CONTENTS, READONLY
 12 .comment      00000043  00000000  00000000  0000403c  2**0
                  CONTENTS, READONLY
 13 .debug_frame  000001cc  00000000  00000000  00004080  2**2
                  CONTENTS, READONLY, DEBUGGING, OCTETS

Disassembly of section .text:

080001c4 <__do_global_dtors_aux>:
 80001c4:	b510      	push	{r4, lr}
 80001c6:	4c05      	ldr	r4, [pc, #20]	@ (80001dc <__do_global_dtors_aux+0x18>)
 80001c8:	7823      	ldrb	r3, [r4, #0]
 80001ca:	b933      	cbnz	r3, 80001da <__do_global_dtors_aux+0x16>
 80001cc:	4b04      	ldr	r3, [pc, #16]	@ (80001e0 <__do_global_dtors_aux+0x1c>)
 80001ce:	b113      	cbz	r3, 80001d6 <__do_global_dtors_aux+0x12>
 80001d0:	4804      	ldr	r0, [pc, #16]	@ (80001e4 <__do_global_dtors_aux+0x20>)
 80001d2:	f3af 8000 	nop.w
 80001d6:	2301      	movs	r3, #1
 80001d8:	7023      	strb	r3, [r4, #0]
 80001da:	bd10      	pop	{r4, pc}
 80001dc:	2000000c 	.word	0x2000000c
 80001e0:	00000000 	.word	0x00000000
 80001e4:	0800264c 	.word	0x0800264c

080001e8 <frame_dummy>:
 80001e8:	b508      	push	{r3, lr}
 80001ea:	4b03      	ldr	r3, [pc, #12]	@ (80001f8 <frame_dummy+0x10>)
 80001ec:	b11b      	cbz	r3, 80001f6 <frame_dummy+0xe>
 80001ee:	4903      	ldr	r1, [pc, #12]	@ (80001fc <frame_dummy+0x14>)
 80001f0:	4803      	ldr	r0, [pc, #12]	@ (8000200 <frame_dummy+0x18>)
 80001f2:	f3af 8000 	nop.w
 80001f6:	bd08      	pop	{r3, pc}
 80001f8:	00000000 	.word	0x00000000
 80001fc:	20000010 	.word	0x20000010
 8000200:	0800264c 	.word	0x0800264c

08000204 <__aeabi_drsub>:
 8000204:	f081 4100 	eor.w	r1, r1, #2147483648	@ 0x80000000
 8000208:	e002      	b.n	8000210 <__adddf3>
 800020a:	bf00      	nop

0800020c <__aeabi_dsub>:
 800020c:	f083 4300 	eor.w	r3, r3, #2147483648	@ 0x80000000

08000210 <__adddf3>:
 8000210:	b530      	push	{r4, r5, lr}
 8000212:	ea4f 0441 	mov.w	r4, r1, lsl #1
 8000216:	ea4f 0543 	mov.w	r5, r3, lsl #1
 800021a:	ea94 0f05 	teq	r4, r5
 800021e:	bf08      	it	eq
 8000220:	ea90 0f02 	teqeq	r0, r2
 8000224:	bf1f      	itttt	ne
 8000226:	ea54 0c00 	orrsne.w	ip, r4, r0
 800022a:	ea55 0c02 	orrsne.w	ip, r5, r2
 800022e:	ea7f 5c64 	mvnsne.w	ip, r4, asr #21
 8000232:	ea7f 5c65 	mvnsne.w	ip, r5, asr #21
 8000236:	f000 80e2 	beq.w	80003fe <__adddf3+0x1ee>
 800023a:	ea4f 5454 	mov.w	r4, r4, lsr #21
 800023e:	ebd4 5555 	rsbs	r5, r4, r5, lsr #21
 8000242:	bfb8      	it	lt
 8000244:	426d      	neglt	r5, r5
 8000246:	dd0c      	ble.n	8000262 <__adddf3+0x52>
 8000248:	442c      	add	r4, r5
 800024a:	ea80 0202 	eor.w	r2, r0, r2
 800024e:	ea81 0303 	eor.w	r3, r1, r3
 8000252:	ea82 0000 	eor.w	r0, r2, r0
 8000256:	ea83 0101 	eor.w	r1, r3, r1
 800025a:	ea80 0202 	eor.w	r2, r0, r2
 800025e:	ea81 0303 	eor.w	r3, r1, r3
 8000262:	2d36      	cmp	r5, #54	@ 0x36
 8000264:	bf88      	it	hi
 8000266:	bd30      	pophi	{r4, r5, pc}
 8000268:	f011 4f00 	tst.w	r1, #2147483648	@ 0x80000000
 800026c:	ea4f 3101 	mov.w	r1, r1, lsl #12
 8000270:	f44f 1c80 	mov.w	ip, #1048576	@ 0x100000
 8000274:	ea4c 3111 	orr.w	r1, ip, r1, lsr #12
 8000278:	d002      	beq.n	8000280 <__adddf3+0x70>
 800027a:	4240      	negs	r0, r0
 800027c:	eb61 0141 	sbc.w	r1, r1, r1, lsl #1
 8000280:	f013 4f00 	tst.w	r3, #2147483648	@ 0x80000000
 8000284:	ea4f 3303 	mov.w	r3, r3, lsl #12
 8000288:	ea4c 3313 	orr.w	r3, ip, r3, lsr #12
 800028c:	d002      	beq.n	8000294 <__adddf3+0x84>
 800028e:	4252      	negs	r2, r2
 8000290:	eb63 0343 	sbc.w	r3, r3, r3, lsl #1
 8000294:	ea94 0f05 	teq	r4, r5
 8000298:	f000 80a7 	beq.w	80003ea <__adddf3+0x1da>
 800029c:	f1a4 0401 	sub.w	r4, r4, #1
 80002a0:	f1d5 0e20 	rsbs	lr, r5, #32
 80002a4:	db0d      	blt.n	80002c2 <__adddf3+0xb2>
 80002a6:	fa02 fc0e 	lsl.w	ip, r2, lr
 80002aa:	fa22 f205 	lsr.w	r2, r2, r5
 80002ae:	1880      	adds	r0, r0, r2
 80002b0:	f141 0100 	adc.w	r1, r1, #0
 80002b4:	fa03 f20e 	lsl.w	r2, r3, lr
 80002b8:	1880      	adds	r0, r0, r2
 80002ba:	fa43 f305 	asr.w	r3, r3, r5
 80002be:	4159      	adcs	r1, r3
 80002c0:	e00e      	b.n	80002e0 <__adddf3+0xd0>
 80002c2:	f1a5 0520 	sub.w	r5, r5, #32
 80002c6:	f10e 0e20 	add.w	lr, lr, #32
 80002ca:	2a01      	cmp	r2, #1
 80002cc:	fa03 fc0e 	lsl.w	ip, r3, lr
 80002d0:	bf28      	it	cs
 80002d2:	f04c 0c02 	orrcs.w	ip, ip, #2
 80002d6:	fa43 f305 	asr.w	r3, r3, r5
 80002da:	18c0      	adds	r0, r0, r3
 80002dc:	eb51 71e3 	adcs.w	r1, r1, r3, asr #31
 80002e0:	f001 4500 	and.w	r5, r1, #2147483648	@ 0x80000000
 80002e4:	d507      	bpl.n	80002f6 <__adddf3+0xe6>
 80002e6:	f04f 0e00 	mov.w	lr, #0
 80002ea:	f1dc 0c00 	rsbs	ip, ip, #0
 80002ee:	eb7e 0000 	sbcs.w	r0, lr, r0
 80002f2:	eb6e 0101 	sbc.w	r1, lr, r1
 80002f6:	f5b1 1f80 	cmp.w	r1, #1048576	@ 0x100000
 80002fa:	d31b      	bcc.n	8000334 <__adddf3+0x124>
 80002fc:	f5b1 1f00 	cmp.w	r1, #2097152	@ 0x200000
 8000300:	d30c      	bcc.n	800031c <__adddf3+0x10c>
 8000302:	0849      	lsrs	r1, r1, #1
 8000304:	ea5f 0030 	movs.w	r0, r0, rrx
 8000308:	ea4f 0c3c 	mov.w	ip, ip, rrx
 800030c:	f104 0401 	add.w	r4, r4, #1
 8000310:	ea4f 5244 	mov.w	r2, r4, lsl #21
 8000314:	f512 0f80 	cmn.w	r2, #4194304	@ 0x400000
 8000318:	f080 809a 	bcs.w	8000450 <__adddf3+0x240>
 800031c:	f1bc 4f00 	cmp.w	ip, #2147483648	@ 0x80000000
 8000320:	bf08      	it	eq
 8000322:	ea5f 0c50 	movseq.w	ip, r0, lsr #1
 8000326:	f150 0000 	adcs.w	r0, r0, #0
 800032a:	eb41 5104 	adc.w	r1, r1, r4, lsl #20
 800032e:	ea41 0105 	orr.w	r1, r1, r5
 8000332:	bd30      	pop	{r4, r5, pc}
 8000334:	ea5f 0c4c 	movs.w	ip, ip, lsl #1
 8000338:	4140      	adcs	r0, r0
 800033a:	eb41 0101 	adc.w	r1, r1, r1
 800033e:	3c01      	subs	r4, #1
 8000340:	bf28      	it	cs
 8000342:	f5b1 1f80 	cmpcs.w	r1, #1048576	@ 0x100000
 8000346:	d2e9      	bcs.n	800031c <__adddf3+0x10c>
 8000348:	f091 0f00 	teq	r1, #0
 800034c:	bf04      	itt	eq
 800034e:	4601      	moveq	r1, r0
 8000350:	2000      	moveq	r0, #0
 8000352:	fab1 f381 	clz	r3, r1
 8000356:	bf08      	it	eq
 8000358:	3320      	addeq	r3, #32
 800035a:	f1a3 030b 	sub.w	r3, r3, #11
 800035e:	f1b3 0220 	subs.w	r2, r3, #32
 8000362:	da0c      	bge.n	800037e <__adddf3+0x16e>
 8000364:	320c      	adds	r2, #12
 8000366:	dd08      	ble.n	800037a <__adddf3+0x16a>
 8000368:	f102 0c14 	add.w	ip, r2, #20
 800036c:	f1c2 020c 	rsb	r2, r2, #12
 8000370:	fa01 f00c 	lsl.w	r0, r1, ip
 8000374:	fa21 f102 	lsr.w	r1, r1, r2
 8000378:	e00c      	b.n	8000394 <__adddf3+0x184>
 800037a:	f102 0214 	add.w	r2, r2, #20
 800037e:	bfd8      	it	le
 8000380:	f1c2 0c20 	rsble	ip, r2, #32
 8000384:	fa01 f102 	lsl.w	r1, r1, r2
 8000388:	fa20 fc0c 	lsr.w	ip, r0, ip
 800038c:	bfdc      	itt	le
 800038e:	ea41 010c 	orrle.w	r1, r1, ip
 8000392:	4090      	lslle	r0, r2
 8000394:	1ae4      	subs	r4, r4, r3
 8000396:	bfa2      	ittt	ge
 8000398:	eb01 5104 	addge.w	r1, r1, r4, lsl #20
 800039c:	4329      	orrge	r1, r5
 800039e:	bd30      	popge	{r4, r5, pc}
 80003a0:	ea6f 0404 	mvn.w	r4, r4
 80003a4:	3c1f      	subs	r4, #31
 80003a6:	da1c      	bge.n	80003e2 <__adddf3+0x1d2>
 80003a8:	340c      	adds	r4, #12
 80003aa:	dc0e      	bgt.n	80003ca <__adddf3+0x1ba>
 80003ac:	f104 0414 	add.w	r4, r4, #20
 80003b0:	f1c4 0220 	rsb	r2, r4, #32
 80003b4:	fa20 f004 	lsr.w	r0, r0, r4
 80003b8:	fa01 f302 	lsl.w	r3, r1, r2
 80003bc:	ea40 0003 	orr.w	r0, r0, r3
 80003c0:	fa21 f304 	lsr.w	r3, r1, r4
 80003c4:	ea45 0103 	orr.w	r1, r5, r3
 80003c8:	bd30      	pop	{r4, r5, pc}
 80003ca:	f1c4 040c 	rsb	r4, r4, #12
 80003ce:	f1c4 0220 	rsb	r2, r4, #32
 80003d2:	fa20 f002 	lsr.w	r0, r0, r2
 80003d6:	fa01 f304 	lsl.w	r3, r1, r4
 80003da:	ea40 0003 	orr.w	r0, r0, r3
 80003de:	4629      	mov	r1, r5
 80003e0:	bd30      	pop	{r4, r5, pc}
 80003e2:	fa21 f004 	lsr.w	r0, r1, r4
 80003e6:	4629      	mov	r1, r5
 80003e8:	bd30      	pop	{r4, r5, pc}
 80003ea:	f094 0f00 	teq	r4, #0
 80003ee:	f483 1380 	eor.w	r3, r3, #1048576	@ 0x100000
 80003f2:	bf06      	itte	eq
 80003f4:	f481 1180 	eoreq.w	r1, r1, #1048576	@ 0x100000
 80003f8:	3401      	addeq	r4, #1
 80003fa:	3d01      	subne	r5, #1
 80003fc:	e74e      	b.n	800029c <__adddf3+0x8c>
 80003fe:	ea7f 5c64 	mvns.w	ip, r4, asr #21
 8000402:	bf18      	it	ne
 8000404:	ea7f 5c65 	mvnsne.w	ip, r5, asr #21
 8000408:	d029      	beq.n	800045e <__adddf3+0x24e>
 800040a:	ea94 0f05 	teq	r4, r5
 800040e:	bf08      	it	eq
 8000410:	ea90 0f02 	teqeq	r0, r2
 8000414:	d005      	beq.n	8000422 <__adddf3+0x212>
 8000416:	ea54 0c00 	orrs.w	ip, r4, r0
 800041a:	bf04      	itt	eq
 800041c:	4619      	moveq	r1, r3
 800041e:	4610      	moveq	r0, r2
 8000420:	bd30      	pop	{r4, r5, pc}
 8000422:	ea91 0f03 	teq	r1, r3
 8000426:	bf1e      	ittt	ne
 8000428:	2100      	movne	r1, #0
 800042a:	2000      	movne	r0, #0
 800042c:	bd30      	popne	{r4, r5, pc}
 800042e:	ea5f 5c54 	movs.w	ip, r4, lsr #21
 8000432:	d105      	bne.n	8000440 <__adddf3+0x230>
 8000434:	0040      	lsls	r0, r0, #1
 8000436:	4149      	adcs	r1, r1
 8000438:	bf28      	it	cs
 800043a:	f041 4100 	orrcs.w	r1, r1, #2147483648	@ 0x80000000
 800043e:	bd30      	pop	{r4, r5, pc}
 8000440:	f514 0480 	adds.w	r4, r4, #4194304	@ 0x400000
 8000444:	bf3c      	itt	cc
 8000446:	f501 1180 	addcc.w	r1, r1, #1048576	@ 0x100000
 800044a:	bd30      	popcc	{r4, r5, pc}
 800044c:	f001 4500 	and.w	r5, r1, #2147483648	@ 0x80000000
 8000450:	f045 41fe 	orr.w	r1, r5, #2130706432	@ 0x7f000000
 8000454:	f441 0170 	orr.w	r1, r1, #15728640	@ 0xf00000
 8000458:	f04f 0000 	mov.w	r0, #0
 800045c:	bd30      	pop	{r4, r5, pc}
 800045e:	ea7f 5c64 	mvns.w	ip, r4, asr #21
 8000462:	bf1a      	itte	ne
 8000464:	4619      	movne	r1, r3
 8000466:	4610      	movne	r0, r2
 8000468:	ea7f 5c65 	mvnseq.w	ip, r5, asr #21
 800046c:	bf1c      	itt	ne
 800046e:	460b      	movne	r3, r1
 8000470:	4602      	movne	r2, r0
 8000472:	ea50 3401 	orrs.w	r4, r0, r1, lsl #12
 8000476:	bf06      	itte	eq
 8000478:	ea52 3503 	orrseq.w	r5, r2, r3, lsl #12
 800047c:	ea91 0f03 	teqeq	r1, r3
 8000480:	f441 2100 	orrne.w	r1, r1, #524288	@ 0x80000
 8000484:	bd30      	pop	{r4, r5, pc}
 8000486:	bf00      	nop

08000488 <__aeabi_ui2d>:
 8000488:	f090 0f00 	teq	r0, #0
 800048c:	bf04      	itt	eq
 800048e:	2100      	moveq	r1, #0
 8000490:	4770      	bxeq	lr
 8000492:	b530      	push	{r4, r5, lr}
 8000494:	f44f 6480 	mov.w	r4, #1024	@ 0x400
 8000498:	f104 0432 	add.w	r4, r4, #50	@ 0x32
 800049c:	f04f 0500 	mov.w	r5, #0
 80004a0:	f04f 0100 	mov.w	r1, #0
 80004a4:	e750      	b.n	8000348 <__adddf3+0x138>
 80004a6:	bf00      	nop

080004a8 <__aeabi_i2d>:
 80004a8:	f090 0f00 	teq	r0, #0
 80004ac:	bf04      	itt	eq
 80004ae:	2100      	moveq	r1, #0
 80004b0:	4770      	bxeq	lr
 80004b2:	b530      	push	{r4, r5, lr}
 80004b4:	f44f 6480 	mov.w	r4, #1024	@ 0x400
 80004b8:	f104 0432 	add.w	r4, r4, #50	@ 0x32
 80004bc:	f010 4500 	ands.w	r5, r0, #2147483648	@ 0x80000000
 80004c0:	bf48      	it	mi
 80004c2:	4240      	negmi	r0, r0
 80004c4:	f04f 0100 	mov.w	r1, #0
 80004c8:	e73e      	b.n	8000348 <__adddf3+0x138>
 80004ca:	bf00      	nop

080004cc <__aeabi_f2d>:
 80004cc:	0042      	lsls	r2, r0, #1
 80004ce:	ea4f 01e2 	mov.w	r1, r2, asr #3
 80004d2:	ea4f 0131 	mov.w	r1, r1, rrx
 80004d6:	ea4f 7002 	mov.w	r0, r2, lsl #28
 80004da:	bf1f      	itttt	ne
 80004dc:	f012 437f 	andsne.w	r3, r2, #4278190080	@ 0xff000000
 80004e0:	f093 4f7f 	teqne	r3, #4278190080	@ 0xff000000
 80004e4:	f081 5160 	eorne.w	r1, r1, #939524096	@ 0x38000000
 80004e8:	4770      	bxne	lr
 80004ea:	f032 427f 	bics.w	r2, r2, #4278190080	@ 0xff000000
 80004ee:	bf08      	it	eq
 80004f0:	4770      	bxeq	lr
 80004f2:	f093 4f7f 	teq	r3, #4278190080	@ 0xff000000
 80004f6:	bf04      	itt	eq
 80004f8:	f441 2100 	orreq.w	r1, r1, #524288	@ 0x80000
 80004fc:	4770      	bxeq	lr
 80004fe:	b530      	push	{r4, r5, lr}
 8000500:	f44f 7460 	mov.w	r4, #896	@ 0x380
 8000504:	f001 4500 	and.w	r5, r1, #2147483648	@ 0x80000000
 8000508:	f021 4100 	bic.w	r1, r1, #2147483648	@ 0x80000000
 800050c:	e71c      	b.n	8000348 <__adddf3+0x138>
 800050e:	bf00      	nop

08000510 <__aeabi_ul2d>:
 8000510:	ea50 0201 	orrs.w	r2, r0, r1
 8000514:	bf08      	it	eq
 8000516:	4770      	bxeq	lr
 8000518:	b530      	push	{r4, r5, lr}
 800051a:	f04f 0500 	mov.w	r5, #0
 800051e:	e00a      	b.n	8000536 <__aeabi_l2d+0x16>

08000520 <__aeabi_l2d>:
 8000520:	ea50 0201 	orrs.w	r2, r0, r1
 8000524:	bf08      	it	eq
 8000526:	4770      	bxeq	lr
 8000528:	b530      	push	{r4, r5, lr}
 800052a:	f011 4500 	ands.w	r5, r1, #2147483648	@ 0x80000000
 800052e:	d502      	bpl.n	8000536 <__aeabi_l2d+0x16>
 8000530:	4240      	negs	r0, r0
 8000532:	eb61 0141 	sbc.w	r1, r1, r1, lsl #1
 8000536:	f44f 6480 	mov.w	r4, #1024	@ 0x400
 800053a:	f104 0432 	add.w	r4, r4, #50	@ 0x32
 800053e:	ea5f 5c91 	movs.w	ip, r1, lsr #22
 8000542:	f43f aed8 	beq.w	80002f6 <__adddf3+0xe6>
 8000546:	f04f 0203 	mov.w	r2, #3
 800054a:	ea5f 0cdc 	movs.w	ip, ip, lsr #3
 800054e:	bf18      	it	ne
 8000550:	3203      	addne	r2, #3
 8000552:	ea5f 0cdc 	movs.w	ip, ip, lsr #3
 8000556:	bf18      	it	ne
 8000558:	3203      	addne	r2, #3
 800055a:	eb02 02dc 	add.w	r2, r2, ip, lsr #3
 800055e:	f1c2 0320 	rsb	r3, r2, #32
 8000562:	fa00 fc03 	lsl.w	ip, r0, r3
 8000566:	fa20 f002 	lsr.w	r0, r0, r2
 800056a:	fa01 fe03 	lsl.w	lr, r1, r3
 800056e:	ea40 000e 	orr.w	r0, r0, lr
 8000572:	fa21 f102 	lsr.w	r1, r1, r2
 8000576:	4414      	add	r4, r2
 8000578:	e6bd      	b.n	80002f6 <__adddf3+0xe6>
 800057a:	bf00      	nop

0800057c <__aeabi_dmul>:
 800057c:	b570      	push	{r4, r5, r6, lr}
 800057e:	f04f 0cff 	mov.w	ip, #255	@ 0xff
 8000582:	f44c 6ce0 	orr.w	ip, ip, #1792	@ 0x700
 8000586:	ea1c 5411 	ands.w	r4, ip, r1, lsr #20
 800058a:	bf1d      	ittte	ne
 800058c:	ea1c 5513 	andsne.w	r5, ip, r3, lsr #20
 8000590:	ea94 0f0c 	teqne	r4, ip
 8000594:	ea95 0f0c 	teqne	r5, ip
 8000598:	f000 f8de 	bleq	8000758 <__aeabi_dmul+0x1dc>
 800059c:	442c      	add	r4, r5
 800059e:	ea81 0603 	eor.w	r6, r1, r3
 80005a2:	ea21 514c 	bic.w	r1, r1, ip, lsl #21
 80005a6:	ea23 534c 	bic.w	r3, r3, ip, lsl #21
 80005aa:	ea50 3501 	orrs.w	r5, r0, r1, lsl #12
 80005ae:	bf18      	it	ne
 80005b0:	ea52 3503 	orrsne.w	r5, r2, r3, lsl #12
 80005b4:	f441 1180 	orr.w	r1, r1, #1048576	@ 0x100000
 80005b8:	f443 1380 	orr.w	r3, r3, #1048576	@ 0x100000
 80005bc:	d038      	beq.n	8000630 <__aeabi_dmul+0xb4>
 80005be:	fba0 ce02 	umull	ip, lr, r0, r2
 80005c2:	f04f 0500 	mov.w	r5, #0
 80005c6:	fbe1 e502 	umlal	lr, r5, r1, r2
 80005ca:	f006 4200 	and.w	r2, r6, #2147483648	@ 0x80000000
 80005ce:	fbe0 e503 	umlal	lr, r5, r0, r3
 80005d2:	f04f 0600 	mov.w	r6, #0
 80005d6:	fbe1 5603 	umlal	r5, r6, r1, r3
 80005da:	f09c 0f00 	teq	ip, #0
 80005de:	bf18      	it	ne
 80005e0:	f04e 0e01 	orrne.w	lr, lr, #1
 80005e4:	f1a4 04ff 	sub.w	r4, r4, #255	@ 0xff
 80005e8:	f5b6 7f00 	cmp.w	r6, #512	@ 0x200
 80005ec:	f564 7440 	sbc.w	r4, r4, #768	@ 0x300
 80005f0:	d204      	bcs.n	80005fc <__aeabi_dmul+0x80>
 80005f2:	ea5f 0e4e 	movs.w	lr, lr, lsl #1
 80005f6:	416d      	adcs	r5, r5
 80005f8:	eb46 0606 	adc.w	r6, r6, r6
 80005fc:	ea42 21c6 	orr.w	r1, r2, r6, lsl #11
 8000600:	ea41 5155 	orr.w	r1, r1, r5, lsr #21
 8000604:	ea4f 20c5 	mov.w	r0, r5, lsl #11
 8000608:	ea40 505e 	orr.w	r0, r0, lr, lsr #21
 800060c:	ea4f 2ece 	mov.w	lr, lr, lsl #11
 8000610:	f1b4 0cfd 	subs.w	ip, r4, #253	@ 0xfd
 8000614:	bf88      	it	hi
 8000616:	f5bc 6fe0 	cmphi.w	ip, #1792	@ 0x700
 800061a:	d81e      	bhi.n	800065a <__aeabi_dmul+0xde>
 800061c:	f1be 4f00 	cmp.w	lr, #2147483648	@ 0x80000000
 8000620:	bf08      	it	eq
 8000622:	ea5f 0e50 	movseq.w	lr, r0, lsr #1
 8000626:	f150 0000 	adcs.w	r0, r0, #0
 800062a:	eb41 5104 	adc.w	r1, r1, r4, lsl #20
 800062e:	bd70      	pop	{r4, r5, r6, pc}
 8000630:	f006 4600 	and.w	r6, r6, #2147483648	@ 0x80000000
 8000634:	ea46 0101 	orr.w	r1, r6, r1
 8000638:	ea40 0002 	orr.w	r0, r0, r2
 800063c:	ea81 0103 	eor.w	r1, r1, r3
 8000640:	ebb4 045c 	subs.w	r4, r4, ip, lsr #1
 8000644:	bfc2      	ittt	gt
 8000646:	ebd4 050c 	rsbsgt	r5, r4, ip
 800064a:	ea41 5104 	orrgt.w	r1, r1, r4, lsl #20
 800064e:	bd70      	popgt	{r4, r5, r6, pc}
 8000650:	f441 1180 	orr.w	r1, r1, #1048576	@ 0x100000
 8000654:	f04f 0e00 	mov.w	lr, #0
 8000658:	3c01      	subs	r4, #1
 800065a:	f300 80ab 	bgt.w	80007b4 <__aeabi_dmul+0x238>
 800065e:	f114 0f36 	cmn.w	r4, #54	@ 0x36
 8000662:	bfde      	ittt	le
 8000664:	2000      	movle	r0, #0
 8000666:	f001 4100 	andle.w	r1, r1, #2147483648	@ 0x80000000
 800066a:	bd70      	pople	{r4, r5, r6, pc}
 800066c:	f1c4 0400 	rsb	r4, r4, #0
 8000670:	3c20      	subs	r4, #32
 8000672:	da35      	bge.n	80006e0 <__aeabi_dmul+0x164>
 8000674:	340c      	adds	r4, #12
 8000676:	dc1b      	bgt.n	80006b0 <__aeabi_dmul+0x134>
 8000678:	f104 0414 	add.w	r4, r4, #20
 800067c:	f1c4 0520 	rsb	r5, r4, #32
 8000680:	fa00 f305 	lsl.w	r3, r0, r5
 8000684:	fa20 f004 	lsr.w	r0, r0, r4
 8000688:	fa01 f205 	lsl.w	r2, r1, r5
 800068c:	ea40 0002 	orr.w	r0, r0, r2
 8000690:	f001 4200 	and.w	r2, r1, #2147483648	@ 0x80000000
 8000694:	f021 4100 	bic.w	r1, r1, #2147483648	@ 0x80000000
 8000698:	eb10 70d3 	adds.w	r0, r0, r3, lsr #31
 800069c:	fa21 f604 	lsr.w	r6, r1, r4
 80006a0:	eb42 0106 	adc.w	r1, r2, r6
 80006a4:	ea5e 0e43 	orrs.w	lr, lr, r3, lsl #1
 80006a8:	bf08      	it	eq
 80006aa:	ea20 70d3 	biceq.w	r0, r0, r3, lsr #31
 80006ae:	bd70      	pop	{r4, r5, r6, pc}
 80006b0:	f1c4 040c 	rsb	r4, r4, #12
 80006b4:	f1c4 0520 	rsb	r5, r4, #32
 80006b8:	fa00 f304 	lsl.w	r3, r0, r4
 80006bc:	fa20 f005 	lsr.w	r0, r0, r5
 80006c0:	fa01 f204 	lsl.w	r2, r1, r4
 80006c4:	ea40 0002 	orr.w	r0, r0, r2
 80006c8:	f001 4100 	and.w	r1, r1, #2147483648	@ 0x80000000
 80006cc:	eb10 70d3 	adds.w	r0, r0, r3, lsr #31
 80006d0:	f141 0100 	adc.w	r1, r1, #0
 80006d4:	ea5e 0e43 	orrs.w	lr, lr, r3, lsl #1
 80006d8:	bf08      	it	eq
 80006da:	ea20 70d3 	biceq.w	r0, r0, r3, lsr #31
 80006de:	bd70      	pop	{r4, r5, r6, pc}
 80006e0:	f1c4 0520 	rsb	r5, r4, #32
 80006e4:	fa00 f205 	lsl.w	r2, r0, r5
 80006e8:	ea4e 0e02 	orr.w	lr, lr, r2
 80006ec:	fa20 f304 	lsr.w	r3, r0, r4
 80006f0:	fa01 f205 	lsl.w	r2, r1, r5
 80006f4:	ea43 0302 	orr.w	r3, r3, r2
 80006f8:	fa21 f004 	lsr.w	r0, r1, r4
 80006fc:	f001 4100 	and.w	r1, r1, #2147483648	@ 0x80000000
 8000700:	fa21 f204 	lsr.w	r2, r1, r4
 8000704:	ea20 0002 	bic.w	r0, r0, r2
 8000708:	eb00 70d3 	add.w	r0, r0, r3, lsr #31
 800070c:	ea5e 0e43 	orrs.w	lr, lr, r3, lsl #1
 8000710:	bf08      	it	eq
 8000712:	ea20 70d3 	biceq.w	r0, r0, r3, lsr #31
 8000716:	bd70      	pop	{r4, r5, r6, pc}
 8000718:	f094 0f00 	teq	r4, #0
 800071c:	d10f      	bne.n	800073e <__aeabi_dmul+0x1c2>
 800071e:	f001 4600 	and.w	r6, r1, #2147483648	@ 0x80000000
 8000722:	0040      	lsls	r0, r0, #1
 8000724:	eb41 0101 	adc.w	r1, r1, r1
 8000728:	f411 1f80 	tst.w	r1, #1048576	@ 0x100000
 800072c:	bf08      	it	eq
 800072e:	3c01      	subeq	r4, #1
 8000730:	d0f7      	beq.n	8000722 <__aeabi_dmul+0x1a6>
 8000732:	ea41 0106 	orr.w	r1, r1, r6
 8000736:	f095 0f00 	teq	r5, #0
 800073a:	bf18      	it	ne
 800073c:	4770      	bxne	lr
 800073e:	f003 4600 	and.w	r6, r3, #2147483648	@ 0x80000000
 8000742:	0052      	lsls	r2, r2, #1
 8000744:	eb43 0303 	adc.w	r3, r3, r3
 8000748:	f413 1f80 	tst.w	r3, #1048576	@ 0x100000
 800074c:	bf08      	it	eq
 800074e:	3d01      	subeq	r5, #1
 8000750:	d0f7      	beq.n	8000742 <__aeabi_dmul+0x1c6>
 8000752:	ea43 0306 	orr.w	r3, r3, r6
 8000756:	4770      	bx	lr
 8000758:	ea94 0f0c 	teq	r4, ip
 800075c:	ea0c 5513 	and.w	r5, ip, r3, lsr #20
 8000760:	bf18      	it	ne
 8000762:	ea95 0f0c 	teqne	r5, ip
 8000766:	d00c      	beq.n	8000782 <__aeabi_dmul+0x206>
 8000768:	ea50 0641 	orrs.w	r6, r0, r1, lsl #1
 800076c:	bf18      	it	ne
 800076e:	ea52 0643 	orrsne.w	r6, r2, r3, lsl #1
 8000772:	d1d1      	bne.n	8000718 <__aeabi_dmul+0x19c>
 8000774:	ea81 0103 	eor.w	r1, r1, r3
 8000778:	f001 4100 	and.w	r1, r1, #2147483648	@ 0x80000000
 800077c:	f04f 0000 	mov.w	r0, #0
 8000780:	bd70      	pop	{r4, r5, r6, pc}
 8000782:	ea50 0641 	orrs.w	r6, r0, r1, lsl #1
 8000786:	bf06      	itte	eq
 8000788:	4610      	moveq	r0, r2
 800078a:	4619      	moveq	r1, r3
 800078c:	ea52 0643 	orrsne.w	r6, r2, r3, lsl #1
 8000790:	d019      	beq.n	80007c6 <__aeabi_dmul+0x24a>
 8000792:	ea94 0f0c 	teq	r4, ip
 8000796:	d102      	bne.n	800079e <__aeabi_dmul+0x222>
 8000798:	ea50 3601 	orrs.w	r6, r0, r1, lsl #12
 800079c:	d113      	bne.n	80007c6 <__aeabi_dmul+0x24a>
 800079e:	ea95 0f0c 	teq	r5, ip
 80007a2:	d105      	bne.n	80007b0 <__aeabi_dmul+0x234>
 80007a4:	ea52 3603 	orrs.w	r6, r2, r3, lsl #12
 80007a8:	bf1c      	itt	ne
 80007aa:	4610      	movne	r0, r2
 80007ac:	4619      	movne	r1, r3
 80007ae:	d10a      	bne.n	80007c6 <__aeabi_dmul+0x24a>
 80007b0:	ea81 0103 	eor.w	r1, r1, r3
 80007b4:	f001 4100 	and.w	r1, r1, #2147483648	@ 0x80000000
 80007b8:	f041 41fe 	orr.w	r1, r1, #2130706432	@ 0x7f000000
 80007bc:	f441 0170 	orr.w	r1, r1, #15728640	@ 0xf00000
 80007c0:	f04f 0000 	mov.w	r0, #0
 80007c4:	bd70      	pop	{r4, r5, r6, pc}
 80007c6:	f041 41fe 	orr.w	r1, r1, #2130706432	@ 0x7f000000
 80007ca:	f441 0178 	orr.w	r1, r1, #16252928	@ 0xf80000
 80007ce:	bd70      	pop	{r4, r5, r6, pc}

080007d0 <__aeabi_ddiv>:
 80007d0:	b570      	push	{r4, r5, r6, lr}
 80007d2:	f04f 0cff 	mov.w	ip, #255	@ 0xff
 80007d6:	f44c 6ce0 	orr.w	ip, ip, #1792	@ 0x700
 80007da:	ea1c 5411 	ands.w	r4, ip, r1, lsr #20
 80007de:	bf1d      	ittte	ne
 80007e0:	ea1c 5513 	andsne.w	r5, ip, r3, lsr #20
 80007e4:	ea94 0f0c 	teqne	r4, ip
 80007e8:	ea95 0f0c 	teqne	r5, ip
 80007ec:	f000 f8a7 	bleq	800093e <__aeabi_ddiv+0x16e>
 80007f0:	eba4 0405 	sub.w	r4, r4, r5
 80007f4:	ea81 0e03 	eor.w	lr, r1, r3
 80007f8:	ea52 3503 	orrs.w	r5, r2, r3, lsl #12
 80007fc:	ea4f 3101 	mov.w	r1, r1, lsl #12
 8000800:	f000 8088 	beq.w	8000914 <__aeabi_ddiv+0x144>
 8000804:	ea4f 3303 	mov.w	r3, r3, lsl #12
 8000808:	f04f 5580 	mov.w	r5, #268435456	@ 0x10000000
 800080c:	ea45 1313 	orr.w	r3, r5, r3, lsr #4
 8000810:	ea43 6312 	orr.w	r3, r3, r2, lsr #24
 8000814:	ea4f 2202 	mov.w	r2, r2, lsl #8
 8000818:	ea45 1511 	orr.w	r5, r5, r1, lsr #4
 800081c:	ea45 6510 	orr.w	r5, r5, r0, lsr #24
 8000820:	ea4f 2600 	mov.w	r6, r0, lsl #8
 8000824:	f00e 4100 	and.w	r1, lr, #2147483648	@ 0x80000000
 8000828:	429d      	cmp	r5, r3
 800082a:	bf08      	it	eq
 800082c:	4296      	cmpeq	r6, r2
 800082e:	f144 04fd 	adc.w	r4, r4, #253	@ 0xfd
 8000832:	f504 7440 	add.w	r4, r4, #768	@ 0x300
 8000836:	d202      	bcs.n	800083e <__aeabi_ddiv+0x6e>
 8000838:	085b      	lsrs	r3, r3, #1
 800083a:	ea4f 0232 	mov.w	r2, r2, rrx
 800083e:	1ab6      	subs	r6, r6, r2
 8000840:	eb65 0503 	sbc.w	r5, r5, r3
 8000844:	085b      	lsrs	r3, r3, #1
 8000846:	ea4f 0232 	mov.w	r2, r2, rrx
 800084a:	f44f 1080 	mov.w	r0, #1048576	@ 0x100000
 800084e:	f44f 2c00 	mov.w	ip, #524288	@ 0x80000
 8000852:	ebb6 0e02 	subs.w	lr, r6, r2
 8000856:	eb75 0e03 	sbcs.w	lr, r5, r3
 800085a:	bf22      	ittt	cs
 800085c:	1ab6      	subcs	r6, r6, r2
 800085e:	4675      	movcs	r5, lr
 8000860:	ea40 000c 	orrcs.w	r0, r0, ip
 8000864:	085b      	lsrs	r3, r3, #1
 8000866:	ea4f 0232 	mov.w	r2, r2, rrx
 800086a:	ebb6 0e02 	subs.w	lr, r6, r2
 800086e:	eb75 0e03 	sbcs.w	lr, r5, r3
 8000872:	bf22      	ittt	cs
 8000874:	1ab6      	subcs	r6, r6, r2
 8000876:	4675      	movcs	r5, lr
 8000878:	ea40 005c 	orrcs.w	r0, r0, ip, lsr #1
 800087c:	085b      	lsrs	r3, r3, #1
 800087e:	ea4f 0232 	mov.w	r2, r2, rrx
 8000882:	ebb6 0e02 	subs.w	lr, r6, r2
 8000886:	eb75 0e03 	sbcs.w	lr, r5, r3
 800088a:	bf22      	ittt	cs
 800088c:	1ab6      	subcs	r6, r6, r2
 800088e:	4675      	movcs	r5, lr
 8000890:	ea40 009c 	orrcs.w	r0, r0, ip, lsr #2
 8000894:	085b      	lsrs	r3, r3, #1
 8000896:	ea4f 0232 	mov.w	r2, r2, rrx
 800089a:	ebb6 0e02 	subs.w	lr, r6, r2
 800089e:	eb75 0e03 	sbcs.w	lr, r5, r3
 80008a2:	bf22      	ittt	cs
 80008a4:	1ab6      	subcs	r6, r6, r2
 80008a6:	4675      	movcs	r5, lr
 80008a8:	ea40 00dc 	orrcs.w	r0, r0, ip, lsr #3
 80008ac:	ea55 0e06 	orrs.w	lr, r5, r6
 80008b0:	d018      	beq.n	80008e4 <__aeabi_ddiv+0x114>
 80008b2:	ea4f 1505 	mov.w	r5, r5, lsl #4
 80008b6:	ea45 7516 	orr.w	r5, r5, r6, lsr #28
 80008ba:	ea4f 1606 	mov.w	r6, r6, lsl #4
 80008be:	ea4f 03c3 	mov.w	r3, r3, lsl #3
 80008c2:	ea43 7352 	orr.w	r3, r3, r2, lsr #29
 80008c6:	ea4f 02c2 	mov.w	r2, r2, lsl #3
 80008ca:	ea5f 1c1c 	movs.w	ip, ip, lsr #4
 80008ce:	d1c0      	bne.n	8000852 <__aeabi_ddiv+0x82>
 80008d0:	f411 1f80 	tst.w	r1, #1048576	@ 0x100000
 80008d4:	d10b      	bne.n	80008ee <__aeabi_ddiv+0x11e>
 80008d6:	ea41 0100 	orr.w	r1, r1, r0
 80008da:	f04f 0000 	mov.w	r0, #0
 80008de:	f04f 4c00 	mov.w	ip, #2147483648	@ 0x80000000
 80008e2:	e7b6      	b.n	8000852 <__aeabi_ddiv+0x82>
 80008e4:	f411 1f80 	tst.w	r1, #1048576	@ 0x100000
 80008e8:	bf04      	itt	eq
 80008ea:	4301      	orreq	r1, r0
 80008ec:	2000      	moveq	r0, #0
 80008ee:	f1b4 0cfd 	subs.w	ip, r4, #253	@ 0xfd
 80008f2:	bf88      	it	hi
 80008f4:	f5bc 6fe0 	cmphi.w	ip, #1792	@ 0x700
 80008f8:	f63f aeaf 	bhi.w	800065a <__aeabi_dmul+0xde>
 80008fc:	ebb5 0c03 	subs.w	ip, r5, r3
 8000900:	bf04      	itt	eq
 8000902:	ebb6 0c02 	subseq.w	ip, r6, r2
 8000906:	ea5f 0c50 	movseq.w	ip, r0, lsr #1
 800090a:	f150 0000 	adcs.w	r0, r0, #0
 800090e:	eb41 5104 	adc.w	r1, r1, r4, lsl #20
 8000912:	bd70      	pop	{r4, r5, r6, pc}
 8000914:	f00e 4e00 	and.w	lr, lr, #2147483648	@ 0x80000000
 8000918:	ea4e 3111 	orr.w	r1, lr, r1, lsr #12
 800091c:	eb14 045c 	adds.w	r4, r4, ip, lsr #1
 8000920:	bfc2      	ittt	gt
 8000922:	ebd4 050c 	rsbsgt	r5, r4, ip
 8000926:	ea41 5104 	orrgt.w	r1, r1, r4, lsl #20
 800092a:	bd70      	popgt	{r4, r5, r6, pc}
 800092c:	f441 1180 	orr.w	r1, r1, #1048576	@ 0x100000
 8000930:	f04f 0e00 	mov.w	lr, #0
 8000934:	3c01      	subs	r4, #1
 8000936:	e690      	b.n	800065a <__aeabi_dmul+0xde>
 8000938:	ea45 0e06 	orr.w	lr, r5, r6
 800093c:	e68d      	b.n	800065a <__aeabi_dmul+0xde>
 800093e:	ea0c 5513 	and.w	r5, ip, r3, lsr #20
 8000942:	ea94 0f0c 	teq	r4, ip
 8000946:	bf08      	it	eq
 8000948:	ea95 0f0c 	teqeq	r5, ip
 800094c:	f43f af3b 	beq.w	80007c6 <__aeabi_dmul+0x24a>
 8000950:	ea94 0f0c 	teq	r4, ip
 8000954:	d10a      	bne.n	800096c <__aeabi_ddiv+0x19c>
 8000956:	ea50 3401 	orrs.w	r4, r0, r1, lsl #12
 800095a:	f47f af34 	bne.w	80007c6 <__aeabi_dmul+0x24a>
 800095e:	ea95 0f0c 	teq	r5, ip
 8000962:	f47f af25 	bne.w	80007b0 <__aeabi_dmul+0x234>
 8000966:	4610      	mov	r0, r2
 8000968:	4619      	mov	r1, r3
 800096a:	e72c      	b.n	80007c6 <__aeabi_dmul+0x24a>
 800096c:	ea95 0f0c 	teq	r5, ip
 8000970:	d106      	bne.n	8000980 <__aeabi_ddiv+0x1b0>
 8000972:	ea52 3503 	orrs.w	r5, r2, r3, lsl #12
 8000976:	f43f aefd 	beq.w	8000774 <__aeabi_dmul+0x1f8>
 800097a:	4610      	mov	r0, r2
 800097c:	4619      	mov	r1, r3
 800097e:	e722      	b.n	80007c6 <__aeabi_dmul+0x24a>
 8000980:	ea50 0641 	orrs.w	r6, r0, r1, lsl #1
 8000984:	bf18      	it	ne
 8000986:	ea52 0643 	orrsne.w	r6, r2, r3, lsl #1
 800098a:	f47f aec5 	bne.w	8000718 <__aeabi_dmul+0x19c>
 800098e:	ea50 0441 	orrs.w	r4, r0, r1, lsl #1
 8000992:	f47f af0d 	bne.w	80007b0 <__aeabi_dmul+0x234>
 8000996:	ea52 0543 	orrs.w	r5, r2, r3, lsl #1
 800099a:	f47f aeeb 	bne.w	8000774 <__aeabi_dmul+0x1f8>
 800099e:	e712      	b.n	80007c6 <__aeabi_dmul+0x24a>

080009a0 <__aeabi_d2uiz>:
 80009a0:	004a      	lsls	r2, r1, #1
 80009a2:	d211      	bcs.n	80009c8 <__aeabi_d2uiz+0x28>
 80009a4:	f512 1200 	adds.w	r2, r2, #2097152	@ 0x200000
 80009a8:	d211      	bcs.n	80009ce <__aeabi_d2uiz+0x2e>
 80009aa:	d50d      	bpl.n	80009c8 <__aeabi_d2uiz+0x28>
 80009ac:	f46f 7378 	mvn.w	r3, #992	@ 0x3e0
 80009b0:	ebb3 5262 	subs.w	r2, r3, r2, asr #21
 80009b4:	d40e      	bmi.n	80009d4 <__aeabi_d2uiz+0x34>
 80009b6:	ea4f 23c1 	mov.w	r3, r1, lsl #11
 80009ba:	f043 4300 	orr.w	r3, r3, #2147483648	@ 0x80000000
 80009be:	ea43 5350 	orr.w	r3, r3, r0, lsr #21
 80009c2:	fa23 f002 	lsr.w	r0, r3, r2
 80009c6:	4770      	bx	lr
 80009c8:	f04f 0000 	mov.w	r0, #0
 80009cc:	4770      	bx	lr
 80009ce:	ea50 3001 	orrs.w	r0, r0, r1, lsl #12
 80009d2:	d102      	bne.n	80009da <__aeabi_d2uiz+0x3a>
 80009d4:	f04f 30ff 	mov.w	r0, #4294967295
 80009d8:	4770      	bx	lr
 80009da:	f04f 0000 	mov.w	r0, #0
 80009de:	4770      	bx	lr

080009e0 <__aeabi_uldivmod>:
 80009e0:	b953      	cbnz	r3, 80009f8 <__aeabi_uldivmod+0x18>
 80009e2:	b94a      	cbnz	r2, 80009f8 <__aeabi_uldivmod+0x18>
 80009e4:	2900      	cmp	r1, #0
 80009e6:	bf08      	it	eq
 80009e8:	2800      	cmpeq	r0, #0
 80009ea:	bf1c      	itt	ne
 80009ec:	f04f 31ff 	movne.w	r1, #4294967295
 80009f0:	f04f 30ff 	movne.w	r0, #4294967295
 80009f4:	f000 b96a 	b.w	8000ccc <__aeabi_idiv0>
 80009f8:	f1ad 0c08 	sub.w	ip, sp, #8
 80009fc:	e96d ce04 	strd	ip, lr, [sp, #-16]!
 8000a00:	f000 f806 	bl	8000a10 <__udivmoddi4>
 8000a04:	f8dd e004 	ldr.w	lr, [sp, #4]
 8000a08:	e9dd 2302 	ldrd	r2, r3, [sp, #8]
 8000a0c:	b004      	add	sp, #16
 8000a0e:	4770      	bx	lr

08000a10 <__udivmoddi4>:
 8000a10:	e92d 47f0 	stmdb	sp!, {r4, r5, r6, r7, r8, r9, sl, lr}
 8000a14:	9d08      	ldr	r5, [sp, #32]
 8000a16:	460c      	mov	r4, r1
 8000a18:	2b00      	cmp	r3, #0
 8000a1a:	d14e      	bne.n	8000aba <__udivmoddi4+0xaa>
 8000a1c:	4694      	mov	ip, r2
 8000a1e:	458c      	cmp	ip, r1
 8000a20:	4686      	mov	lr, r0
 8000a22:	fab2 f282 	clz	r2, r2
 8000a26:	d962      	bls.n	8000aee <__udivmoddi4+0xde>
 8000a28:	b14a      	cbz	r2, 8000a3e <__udivmoddi4+0x2e>
 8000a2a:	f1c2 0320 	rsb	r3, r2, #32
 8000a2e:	4091      	lsls	r1, r2
 8000a30:	fa20 f303 	lsr.w	r3, r0, r3
 8000a34:	fa0c fc02 	lsl.w	ip, ip, r2
 8000a38:	4319      	orrs	r1, r3
 8000a3a:	fa00 fe02 	lsl.w	lr, r0, r2
 8000a3e:	ea4f 471c 	mov.w	r7, ip, lsr #16
 8000a42:	fa1f f68c 	uxth.w	r6, ip
 8000a46:	fbb1 f4f7 	udiv	r4, r1, r7
 8000a4a:	ea4f 431e 	mov.w	r3, lr, lsr #16
 8000a4e:	fb07 1114 	mls	r1, r7, r4, r1
 8000a52:	ea43 4301 	orr.w	r3, r3, r1, lsl #16
 8000a56:	fb04 f106 	mul.w	r1, r4, r6
 8000a5a:	4299      	cmp	r1, r3
 8000a5c:	d90a      	bls.n	8000a74 <__udivmoddi4+0x64>
 8000a5e:	eb1c 0303 	adds.w	r3, ip, r3
 8000a62:	f104 30ff 	add.w	r0, r4, #4294967295
 8000a66:	f080 8112 	bcs.w	8000c8e <__udivmoddi4+0x27e>
 8000a6a:	4299      	cmp	r1, r3
 8000a6c:	f240 810f 	bls.w	8000c8e <__udivmoddi4+0x27e>
 8000a70:	3c02      	subs	r4, #2
 8000a72:	4463      	add	r3, ip
 8000a74:	1a59      	subs	r1, r3, r1
 8000a76:	fa1f f38e 	uxth.w	r3, lr
 8000a7a:	fbb1 f0f7 	udiv	r0, r1, r7
 8000a7e:	fb07 1110 	mls	r1, r7, r0, r1
 8000a82:	ea43 4301 	orr.w	r3, r3, r1, lsl #16
 8000a86:	fb00 f606 	mul.w	r6, r0, r6
 8000a8a:	429e      	cmp	r6, r3
 8000a8c:	d90a      	bls.n	8000aa4 <__udivmoddi4+0x94>
 8000a8e:	eb1c 0303 	adds.w	r3, ip, r3
 8000a92:	f100 31ff 	add.w	r1, r0, #4294967295
 8000a96:	f080 80fc 	bcs.w	8000c92 <__udivmoddi4+0x282>
 8000a9a:	429e      	cmp	r6, r3
 8000a9c:	f240 80f9 	bls.w	8000c92 <__udivmoddi4+0x282>
 8000aa0:	4463      	add	r3, ip
 8000aa2:	3802      	subs	r0, #2
 8000aa4:	1b9b      	subs	r3, r3, r6
 8000aa6:	ea40 4004 	orr.w	r0, r0, r4, lsl #16
 8000aaa:	2100      	movs	r1, #0
 8000aac:	b11d      	cbz	r5, 8000ab6 <__udivmoddi4+0xa6>
 8000aae:	40d3      	lsrs	r3, r2
 8000ab0:	2200      	movs	r2, #0
 8000ab2:	e9c5 3200 	strd	r3, r2, [r5]
 8000ab6:	e8bd 87f0 	ldmia.w	sp!, {r4, r5, r6, r7, r8, r9, sl, pc}
 8000aba:	428b      	cmp	r3, r1
 8000abc:	d905      	bls.n	8000aca <__udivmoddi4+0xba>
 8000abe:	b10d      	cbz	r5, 8000ac4 <__udivmoddi4+0xb4>
 8000ac0:	e9c5 0100 	strd	r0, r1, [r5]
 8000ac4:	2100      	movs	r1, #0
 8000ac6:	4608      	mov	r0, r1
 8000ac8:	e7f5      	b.n	8000ab6 <__udivmoddi4+0xa6>
 8000aca:	fab3 f183 	clz	r1, r3
 8000ace:	2900      	cmp	r1, #0
 8000ad0:	d146      	bne.n	8000b60 <__udivmoddi4+0x150>
 8000ad2:	42a3      	cmp	r3, r4
 8000ad4:	d302      	bcc.n	8000adc <__udivmoddi4+0xcc>
 8000ad6:	4290      	cmp	r0, r2
 8000ad8:	f0c0 80f0 	bcc.w	8000cbc <__udivmoddi4+0x2ac>
 8000adc:	1a86      	subs	r6, r0, r2
 8000ade:	eb64 0303 	sbc.w	r3, r4, r3
 8000ae2:	2001      	movs	r0, #1
 8000ae4:	2d00      	cmp	r5, #0
 8000ae6:	d0e6      	beq.n	8000ab6 <__udivmoddi4+0xa6>
 8000ae8:	e9c5 6300 	strd	r6, r3, [r5]
 8000aec:	e7e3      	b.n	8000ab6 <__udivmoddi4+0xa6>
 8000aee:	2a00      	cmp	r2, #0
 8000af0:	f040 8090 	bne.w	8000c14 <__udivmoddi4+0x204>
 8000af4:	eba1 040c 	sub.w	r4, r1, ip
 8000af8:	ea4f 481c 	mov.w	r8, ip, lsr #16
 8000afc:	fa1f f78c 	uxth.w	r7, ip
 8000b00:	2101      	movs	r1, #1
 8000b02:	fbb4 f6f8 	udiv	r6, r4, r8
 8000b06:	ea4f 431e 	mov.w	r3, lr, lsr #16
 8000b0a:	fb08 4416 	mls	r4, r8, r6, r4
 8000b0e:	ea43 4304 	orr.w	r3, r3, r4, lsl #16
 8000b12:	fb07 f006 	mul.w	r0, r7, r6
 8000b16:	4298      	cmp	r0, r3
 8000b18:	d908      	bls.n	8000b2c <__udivmoddi4+0x11c>
 8000b1a:	eb1c 0303 	adds.w	r3, ip, r3
 8000b1e:	f106 34ff 	add.w	r4, r6, #4294967295
 8000b22:	d202      	bcs.n	8000b2a <__udivmoddi4+0x11a>
 8000b24:	4298      	cmp	r0, r3
 8000b26:	f200 80cd 	bhi.w	8000cc4 <__udivmoddi4+0x2b4>
 8000b2a:	4626      	mov	r6, r4
 8000b2c:	1a1c      	subs	r4, r3, r0
 8000b2e:	fa1f f38e 	uxth.w	r3, lr
 8000b32:	fbb4 f0f8 	udiv	r0, r4, r8
 8000b36:	fb08 4410 	mls	r4, r8, r0, r4
 8000b3a:	ea43 4304 	orr.w	r3, r3, r4, lsl #16
 8000b3e:	fb00 f707 	mul.w	r7, r0, r7
 8000b42:	429f      	cmp	r7, r3
 8000b44:	d908      	bls.n	8000b58 <__udivmoddi4+0x148>
 8000b46:	eb1c 0303 	adds.w	r3, ip, r3
 8000b4a:	f100 34ff 	add.w	r4, r0, #4294967295
 8000b4e:	d202      	bcs.n	8000b56 <__udivmoddi4+0x146>
 8000b50:	429f      	cmp	r7, r3
 8000b52:	f200 80b0 	bhi.w	8000cb6 <__udivmoddi4+0x2a6>
 8000b56:	4620      	mov	r0, r4
 8000b58:	1bdb      	subs	r3, r3, r7
 8000b5a:	ea40 4006 	orr.w	r0, r0, r6, lsl #16
 8000b5e:	e7a5      	b.n	8000aac <__udivmoddi4+0x9c>
 8000b60:	f1c1 0620 	rsb	r6, r1, #32
 8000b64:	408b      	lsls	r3, r1
 8000b66:	fa22 f706 	lsr.w	r7, r2, r6
 8000b6a:	431f      	orrs	r7, r3
 8000b6c:	fa20 fc06 	lsr.w	ip, r0, r6
 8000b70:	fa04 f301 	lsl.w	r3, r4, r1
 8000b74:	ea43 030c 	orr.w	r3, r3, ip
 8000b78:	40f4      	lsrs	r4, r6
 8000b7a:	fa00 f801 	lsl.w	r8, r0, r1
 8000b7e:	0c38      	lsrs	r0, r7, #16
 8000b80:	ea4f 4913 	mov.w	r9, r3, lsr #16
 8000b84:	fbb4 fef0 	udiv	lr, r4, r0
 8000b88:	fa1f fc87 	uxth.w	ip, r7
 8000b8c:	fb00 441e 	mls	r4, r0, lr, r4
 8000b90:	ea49 4404 	orr.w	r4, r9, r4, lsl #16
 8000b94:	fb0e f90c 	mul.w	r9, lr, ip
 8000b98:	45a1      	cmp	r9, r4
 8000b9a:	fa02 f201 	lsl.w	r2, r2, r1
 8000b9e:	d90a      	bls.n	8000bb6 <__udivmoddi4+0x1a6>
 8000ba0:	193c      	adds	r4, r7, r4
 8000ba2:	f10e 3aff 	add.w	sl, lr, #4294967295
 8000ba6:	f080 8084 	bcs.w	8000cb2 <__udivmoddi4+0x2a2>
 8000baa:	45a1      	cmp	r9, r4
 8000bac:	f240 8081 	bls.w	8000cb2 <__udivmoddi4+0x2a2>
 8000bb0:	f1ae 0e02 	sub.w	lr, lr, #2
 8000bb4:	443c      	add	r4, r7
 8000bb6:	eba4 0409 	sub.w	r4, r4, r9
 8000bba:	fa1f f983 	uxth.w	r9, r3
 8000bbe:	fbb4 f3f0 	udiv	r3, r4, r0
 8000bc2:	fb00 4413 	mls	r4, r0, r3, r4
 8000bc6:	ea49 4404 	orr.w	r4, r9, r4, lsl #16
 8000bca:	fb03 fc0c 	mul.w	ip, r3, ip
 8000bce:	45a4      	cmp	ip, r4
 8000bd0:	d907      	bls.n	8000be2 <__udivmoddi4+0x1d2>
 8000bd2:	193c      	adds	r4, r7, r4
 8000bd4:	f103 30ff 	add.w	r0, r3, #4294967295
 8000bd8:	d267      	bcs.n	8000caa <__udivmoddi4+0x29a>
 8000bda:	45a4      	cmp	ip, r4
 8000bdc:	d965      	bls.n	8000caa <__udivmoddi4+0x29a>
 8000bde:	3b02      	subs	r3, #2
 8000be0:	443c      	add	r4, r7
 8000be2:	ea43 400e 	orr.w	r0, r3, lr, lsl #16
 8000be6:	fba0 9302 	umull	r9, r3, r0, r2
 8000bea:	eba4 040c 	sub.w	r4, r4, ip
 8000bee:	429c      	cmp	r4, r3
 8000bf0:	46ce      	mov	lr, r9
 8000bf2:	469c      	mov	ip, r3
 8000bf4:	d351      	bcc.n	8000c9a <__udivmoddi4+0x28a>
 8000bf6:	d04e      	beq.n	8000c96 <__udivmoddi4+0x286>
 8000bf8:	b155      	cbz	r5, 8000c10 <__udivmoddi4+0x200>
 8000bfa:	ebb8 030e 	subs.w	r3, r8, lr
 8000bfe:	eb64 040c 	sbc.w	r4, r4, ip
 8000c02:	fa04 f606 	lsl.w	r6, r4, r6
 8000c06:	40cb      	lsrs	r3, r1
 8000c08:	431e      	orrs	r6, r3
 8000c0a:	40cc      	lsrs	r4, r1
 8000c0c:	e9c5 6400 	strd	r6, r4, [r5]
 8000c10:	2100      	movs	r1, #0
 8000c12:	e750      	b.n	8000ab6 <__udivmoddi4+0xa6>
 8000c14:	f1c2 0320 	rsb	r3, r2, #32
 8000c18:	fa20 f103 	lsr.w	r1, r0, r3
 8000c1c:	fa0c fc02 	lsl.w	ip, ip, r2
 8000c20:	fa24 f303 	lsr.w	r3, r4, r3
 8000c24:	4094      	lsls	r4, r2
 8000c26:	430c      	orrs	r4, r1
 8000c28:	ea4f 481c 	mov.w	r8, ip, lsr #16
 8000c2c:	fa00 fe02 	lsl.w	lr, r0, r2
 8000c30:	fa1f f78c 	uxth.w	r7, ip
 8000c34:	fbb3 f0f8 	udiv	r0, r3, r8
 8000c38:	fb08 3110 	mls	r1, r8, r0, r3
 8000c3c:	0c23      	lsrs	r3, r4, #16
 8000c3e:	ea43 4301 	orr.w	r3, r3, r1, lsl #16
 8000c42:	fb00 f107 	mul.w	r1, r0, r7
 8000c46:	4299      	cmp	r1, r3
 8000c48:	d908      	bls.n	8000c5c <__udivmoddi4+0x24c>
 8000c4a:	eb1c 0303 	adds.w	r3, ip, r3
 8000c4e:	f100 36ff 	add.w	r6, r0, #4294967295
 8000c52:	d22c      	bcs.n	8000cae <__udivmoddi4+0x29e>
 8000c54:	4299      	cmp	r1, r3
 8000c56:	d92a      	bls.n	8000cae <__udivmoddi4+0x29e>
 8000c58:	3802      	subs	r0, #2
 8000c5a:	4463      	add	r3, ip
 8000c5c:	1a5b      	subs	r3, r3, r1
 8000c5e:	b2a4      	uxth	r4, r4
 8000c60:	fbb3 f1f8 	udiv	r1, r3, r8
 8000c64:	fb08 3311 	mls	r3, r8, r1, r3
 8000c68:	ea44 4403 	orr.w	r4, r4, r3, lsl #16
 8000c6c:	fb01 f307 	mul.w	r3, r1, r7
 8000c70:	42a3      	cmp	r3, r4
 8000c72:	d908      	bls.n	8000c86 <__udivmoddi4+0x276>
 8000c74:	eb1c 0404 	adds.w	r4, ip, r4
 8000c78:	f101 36ff 	add.w	r6, r1, #4294967295
 8000c7c:	d213      	bcs.n	8000ca6 <__udivmoddi4+0x296>
 8000c7e:	42a3      	cmp	r3, r4
 8000c80:	d911      	bls.n	8000ca6 <__udivmoddi4+0x296>
 8000c82:	3902      	subs	r1, #2
 8000c84:	4464      	add	r4, ip
 8000c86:	1ae4      	subs	r4, r4, r3
 8000c88:	ea41 4100 	orr.w	r1, r1, r0, lsl #16
 8000c8c:	e739      	b.n	8000b02 <__udivmoddi4+0xf2>
 8000c8e:	4604      	mov	r4, r0
 8000c90:	e6f0      	b.n	8000a74 <__udivmoddi4+0x64>
 8000c92:	4608      	mov	r0, r1
 8000c94:	e706      	b.n	8000aa4 <__udivmoddi4+0x94>
 8000c96:	45c8      	cmp	r8, r9
 8000c98:	d2ae      	bcs.n	8000bf8 <__udivmoddi4+0x1e8>
 8000c9a:	ebb9 0e02 	subs.w	lr, r9, r2
 8000c9e:	eb63 0c07 	sbc.w	ip, r3, r7
 8000ca2:	3801      	subs	r0, #1
 8000ca4:	e7a8      	b.n	8000bf8 <__udivmoddi4+0x1e8>
 8000ca6:	4631      	mov	r1, r6
 8000ca8:	e7ed      	b.n	8000c86 <__udivmoddi4+0x276>
 8000caa:	4603      	mov	r3, r0
 8000cac:	e799      	b.n	8000be2 <__udivmoddi4+0x1d2>
 8000cae:	4630      	mov	r0, r6
 8000cb0:	e7d4      	b.n	8000c5c <__udivmoddi4+0x24c>
 8000cb2:	46d6      	mov	lr, sl
 8000cb4:	e77f      	b.n	8000bb6 <__udivmoddi4+0x1a6>
 8000cb6:	4463      	add	r3, ip
 8000cb8:	3802      	subs	r0, #2
 8000cba:	e74d      	b.n	8000b58 <__udivmoddi4+0x148>
 8000cbc:	4606      	mov	r6, r0
 8000cbe:	4623      	mov	r3, r4
 8000cc0:	4608      	mov	r0, r1
 8000cc2:	e70f      	b.n	8000ae4 <__udivmoddi4+0xd4>
 8000cc4:	3e02      	subs	r6, #2
 8000cc6:	4463      	add	r3, ip
 8000cc8:	e730      	b.n	8000b2c <__udivmoddi4+0x11c>
 8000cca:	bf00      	nop

08000ccc <__aeabi_idiv0>:
 8000ccc:	4770      	bx	lr
 8000cce:	bf00      	nop

08000cd0 <angle2pulse>:
 8000cd0:	b508      	push	{r3, lr}
 8000cd2:	01c0      	lsls	r0, r0, #7
 8000cd4:	f7ff fbe8 	bl	80004a8 <__aeabi_i2d>
 8000cd8:	4b05      	ldr	r3, [pc, #20]	@ (8000cf0 <angle2pulse+0x20>)
 8000cda:	2200      	movs	r2, #0
 8000cdc:	f7ff fd78 	bl	80007d0 <__aeabi_ddiv>
 8000ce0:	4b04      	ldr	r3, [pc, #16]	@ (8000cf4 <angle2pulse+0x24>)
 8000ce2:	2200      	movs	r2, #0
 8000ce4:	f7ff fa94 	bl	8000210 <__adddf3>
 8000ce8:	f7ff fe5a 	bl	80009a0 <__aeabi_d2uiz>
 8000cec:	b280      	uxth	r0, r0
 8000cee:	bd08      	pop	{r3, pc}
 8000cf0:	40668000 	.word	0x40668000
 8000cf4:	403e0000 	.word	0x403e0000

08000cf8 <setPWM>:
 8000cf8:	b084      	sub	sp, #16
 8000cfa:	b510      	push	{r4, lr}
 8000cfc:	b088      	sub	sp, #32
 8000cfe:	ac0a      	add	r4, sp, #40	@ 0x28
 8000d00:	e884 000f 	stmia.w	r4, {r0, r1, r2, r3}
 8000d04:	9c1c      	ldr	r4, [sp, #112]	@ 0x70
 8000d06:	a80a      	add	r0, sp, #40	@ 0x28
 8000d08:	4621      	mov	r1, r4
 8000d0a:	f001 fba5 	bl	8002458 <HAL_TIM_PWM_Stop>
 8000d0e:	f8bd 3074 	ldrh.w	r3, [sp, #116]	@ 0x74
 8000d12:	930d      	str	r3, [sp, #52]	@ 0x34
 8000d14:	a80a      	add	r0, sp, #40	@ 0x28
 8000d16:	f001 fa33 	bl	8002180 <HAL_TIM_PWM_Init>
 8000d1a:	2360      	movs	r3, #96	@ 0x60
 8000d1c:	9301      	str	r3, [sp, #4]
 8000d1e:	f8bd 3078 	ldrh.w	r3, [sp, #120]	@ 0x78
 8000d22:	9302      	str	r3, [sp, #8]
 8000d24:	4622      	mov	r2, r4
 8000d26:	2300      	movs	r3, #0
 8000d28:	a901      	add	r1, sp, #4
 8000d2a:	a80a      	add	r0, sp, #40	@ 0x28
 8000d2c:	9303      	str	r3, [sp, #12]
 8000d2e:	9305      	str	r3, [sp, #20]
 8000d30:	f001 fa88 	bl	8002244 <HAL_TIM_PWM_ConfigChannel>
 8000d34:	4621      	mov	r1, r4
 8000d36:	a80a      	add	r0, sp, #40	@ 0x28
 8000d38:	f001 fb4e 	bl	80023d8 <HAL_TIM_PWM_Start>
 8000d3c:	b008      	add	sp, #32
 8000d3e:	e8bd 4010 	ldmia.w	sp!, {r4, lr}
 8000d42:	b004      	add	sp, #16
 8000d44:	4770      	bx	lr
	...

08000d48 <setServoAngle>:
 8000d48:	b084      	sub	sp, #16
 8000d4a:	b5f0      	push	{r4, r5, r6, r7, lr}
 8000d4c:	b093      	sub	sp, #76	@ 0x4c
 8000d4e:	ac18      	add	r4, sp, #96	@ 0x60
 8000d50:	f8bd 70a8 	ldrh.w	r7, [sp, #168]	@ 0xa8
 8000d54:	4e13      	ldr	r6, [pc, #76]	@ (8000da4 <setServoAngle+0x5c>)
 8000d56:	2fb4      	cmp	r7, #180	@ 0xb4
 8000d58:	bf28      	it	cs
 8000d5a:	27b4      	movcs	r7, #180	@ 0xb4
 8000d5c:	e884 000f 	stmia.w	r4, {r0, r1, r2, r3}
 8000d60:	4638      	mov	r0, r7
 8000d62:	f7ff ffb5 	bl	8000cd0 <angle2pulse>
 8000d66:	2300      	movs	r3, #0
 8000d68:	f644 6220 	movw	r2, #20000	@ 0x4e20
 8000d6c:	e9cd 320e 	strd	r3, r2, [sp, #56]	@ 0x38
 8000d70:	9010      	str	r0, [sp, #64]	@ 0x40
 8000d72:	f106 0510 	add.w	r5, r6, #16
 8000d76:	cd0f      	ldmia	r5!, {r0, r1, r2, r3}
 8000d78:	466c      	mov	r4, sp
 8000d7a:	c40f      	stmia	r4!, {r0, r1, r2, r3}
 8000d7c:	cd0f      	ldmia	r5!, {r0, r1, r2, r3}
 8000d7e:	c40f      	stmia	r4!, {r0, r1, r2, r3}
 8000d80:	cd0f      	ldmia	r5!, {r0, r1, r2, r3}
 8000d82:	c40f      	stmia	r4!, {r0, r1, r2, r3}
 8000d84:	e895 0003 	ldmia.w	r5, {r0, r1}
 8000d88:	e884 0003 	stmia.w	r4, {r0, r1}
 8000d8c:	e896 000f 	ldmia.w	r6, {r0, r1, r2, r3}
 8000d90:	f7ff ffb2 	bl	8000cf8 <setPWM>
 8000d94:	4b04      	ldr	r3, [pc, #16]	@ (8000da8 <setServoAngle+0x60>)
 8000d96:	801f      	strh	r7, [r3, #0]
 8000d98:	b013      	add	sp, #76	@ 0x4c
 8000d9a:	e8bd 40f0 	ldmia.w	sp!, {r4, r5, r6, r7, lr}
 8000d9e:	b004      	add	sp, #16
 8000da0:	4770      	bx	lr
 8000da2:	bf00      	nop
 8000da4:	200000bc 	.word	0x200000bc
 8000da8:	20000028 	.word	0x20000028

08000dac <setServoRelativeAngle>:
 8000dac:	b5f0      	push	{r4, r5, r6, r7, lr}
 8000dae:	4f17      	ldr	r7, [pc, #92]	@ (8000e0c <setServoRelativeAngle+0x60>)
 8000db0:	b093      	sub	sp, #76	@ 0x4c
 8000db2:	883e      	ldrh	r6, [r7, #0]
 8000db4:	b339      	cbz	r1, 8000e06 <setServoRelativeAngle+0x5a>
 8000db6:	4430      	add	r0, r6
 8000db8:	b286      	uxth	r6, r0
 8000dba:	4630      	mov	r0, r6
 8000dbc:	f7ff ff88 	bl	8000cd0 <angle2pulse>
 8000dc0:	289e      	cmp	r0, #158	@ 0x9e
 8000dc2:	bf28      	it	cs
 8000dc4:	209e      	movcs	r0, #158	@ 0x9e
 8000dc6:	b280      	uxth	r0, r0
 8000dc8:	2300      	movs	r3, #0
 8000dca:	f644 6220 	movw	r2, #20000	@ 0x4e20
 8000dce:	e9cd 320e 	strd	r3, r2, [sp, #56]	@ 0x38
 8000dd2:	f8df c03c 	ldr.w	ip, [pc, #60]	@ 8000e10 <setServoRelativeAngle+0x64>
 8000dd6:	281e      	cmp	r0, #30
 8000dd8:	bf38      	it	cc
 8000dda:	201e      	movcc	r0, #30
 8000ddc:	9010      	str	r0, [sp, #64]	@ 0x40
 8000dde:	f10c 0510 	add.w	r5, ip, #16
 8000de2:	cd0f      	ldmia	r5!, {r0, r1, r2, r3}
 8000de4:	466c      	mov	r4, sp
 8000de6:	c40f      	stmia	r4!, {r0, r1, r2, r3}
 8000de8:	cd0f      	ldmia	r5!, {r0, r1, r2, r3}
 8000dea:	c40f      	stmia	r4!, {r0, r1, r2, r3}
 8000dec:	cd0f      	ldmia	r5!, {r0, r1, r2, r3}
 8000dee:	c40f      	stmia	r4!, {r0, r1, r2, r3}
 8000df0:	e895 0003 	ldmia.w	r5, {r0, r1}
 8000df4:	e884 0003 	stmia.w	r4, {r0, r1}
 8000df8:	e89c 000f 	ldmia.w	ip, {r0, r1, r2, r3}
 8000dfc:	f7ff ff7c 	bl	8000cf8 <setPWM>
 8000e00:	803e      	strh	r6, [r7, #0]
 8000e02:	b013      	add	sp, #76	@ 0x4c
 8000e04:	bdf0      	pop	{r4, r5, r6, r7, pc}
 8000e06:	1a36      	subs	r6, r6, r0
 8000e08:	b2b6      	uxth	r6, r6
 8000e0a:	e7d6      	b.n	8000dba <setServoRelativeAngle+0xe>
 8000e0c:	20000028 	.word	0x20000028
 8000e10:	200000bc 	.word	0x200000bc

08000e14 <sendCommand>:
 8000e14:	b5f0      	push	{r4, r5, r6, r7, lr}
 8000e16:	2304      	movs	r3, #4
 8000e18:	b093      	sub	sp, #76	@ 0x4c
 8000e1a:	f240 42e2 	movw	r2, #1250	@ 0x4e2
 8000e1e:	e9cd 320e 	strd	r3, r2, [sp, #56]	@ 0x38
 8000e22:	4e21      	ldr	r6, [pc, #132]	@ (8000ea8 <sendCommand+0x94>)
 8000e24:	b289      	uxth	r1, r1
 8000e26:	9110      	str	r1, [sp, #64]	@ 0x40
 8000e28:	f106 0510 	add.w	r5, r6, #16
 8000e2c:	4607      	mov	r7, r0
 8000e2e:	cd0f      	ldmia	r5!, {r0, r1, r2, r3}
 8000e30:	466c      	mov	r4, sp
 8000e32:	c40f      	stmia	r4!, {r0, r1, r2, r3}
 8000e34:	cd0f      	ldmia	r5!, {r0, r1, r2, r3}
 8000e36:	c40f      	stmia	r4!, {r0, r1, r2, r3}
 8000e38:	cd0f      	ldmia	r5!, {r0, r1, r2, r3}
 8000e3a:	c40f      	stmia	r4!, {r0, r1, r2, r3}
 8000e3c:	e895 0003 	ldmia.w	r5, {r0, r1}
 8000e40:	e884 0003 	stmia.w	r4, {r0, r1}
 8000e44:	e896 000f 	ldmia.w	r6, {r0, r1, r2, r3}
 8000e48:	f7ff ff56 	bl	8000cf8 <setPWM>
 8000e4c:	4817      	ldr	r0, [pc, #92]	@ (8000eac <sendCommand+0x98>)
 8000e4e:	2200      	movs	r2, #0
 8000e50:	2140      	movs	r1, #64	@ 0x40
 8000e52:	f000 fd1d 	bl	8001890 <HAL_GPIO_WritePin>
 8000e56:	4816      	ldr	r0, [pc, #88]	@ (8000eb0 <sendCommand+0x9c>)
 8000e58:	2200      	movs	r2, #0
 8000e5a:	2120      	movs	r1, #32
 8000e5c:	f000 fd18 	bl	8001890 <HAL_GPIO_WritePin>
 8000e60:	2400      	movs	r4, #0
 8000e62:	4813      	ldr	r0, [pc, #76]	@ (8000eb0 <sendCommand+0x9c>)
 8000e64:	2200      	movs	r2, #0
 8000e66:	2120      	movs	r1, #32
 8000e68:	f000 fd12 	bl	8001890 <HAL_GPIO_WritePin>
 8000e6c:	fa47 f204 	asr.w	r2, r7, r4
 8000e70:	480e      	ldr	r0, [pc, #56]	@ (8000eac <sendCommand+0x98>)
 8000e72:	f002 0201 	and.w	r2, r2, #1
 8000e76:	f44f 7100 	mov.w	r1, #512	@ 0x200
 8000e7a:	f000 fd09 	bl	8001890 <HAL_GPIO_WritePin>
 8000e7e:	3401      	adds	r4, #1
 8000e80:	480b      	ldr	r0, [pc, #44]	@ (8000eb0 <sendCommand+0x9c>)
 8000e82:	2201      	movs	r2, #1
 8000e84:	2120      	movs	r1, #32
 8000e86:	f000 fd03 	bl	8001890 <HAL_GPIO_WritePin>
 8000e8a:	2c08      	cmp	r4, #8
 8000e8c:	d1e9      	bne.n	8000e62 <sendCommand+0x4e>
 8000e8e:	4808      	ldr	r0, [pc, #32]	@ (8000eb0 <sendCommand+0x9c>)
 8000e90:	2200      	movs	r2, #0
 8000e92:	2120      	movs	r1, #32
 8000e94:	f000 fcfc 	bl	8001890 <HAL_GPIO_WritePin>
 8000e98:	4804      	ldr	r0, [pc, #16]	@ (8000eac <sendCommand+0x98>)
 8000e9a:	2201      	movs	r2, #1
 8000e9c:	2140      	movs	r1, #64	@ 0x40
 8000e9e:	b013      	add	sp, #76	@ 0x4c
 8000ea0:	e8bd 40f0 	ldmia.w	sp!, {r4, r5, r6, r7, lr}
 8000ea4:	f000 bcf4 	b.w	8001890 <HAL_GPIO_WritePin>
 8000ea8:	20000104 	.word	0x20000104
 8000eac:	40020000 	.word	0x40020000
 8000eb0:	40020400 	.word	0x40020400

08000eb4 <SystemClock_Config>:
 8000eb4:	b500      	push	{lr}
 8000eb6:	b095      	sub	sp, #84	@ 0x54
 8000eb8:	2230      	movs	r2, #48	@ 0x30
 8000eba:	2100      	movs	r1, #0
 8000ebc:	a808      	add	r0, sp, #32
 8000ebe:	f001 fb98 	bl	80025f2 <memset>
 8000ec2:	2214      	movs	r2, #20
 8000ec4:	2100      	movs	r1, #0
 8000ec6:	a802      	add	r0, sp, #8
 8000ec8:	f001 fb93 	bl	80025f2 <memset>
 8000ecc:	2200      	movs	r2, #0
 8000ece:	4b1b      	ldr	r3, [pc, #108]	@ (8000f3c <SystemClock_Config+0x88>)
 8000ed0:	9200      	str	r2, [sp, #0]
 8000ed2:	6c19      	ldr	r1, [r3, #64]	@ 0x40
 8000ed4:	f041 5180 	orr.w	r1, r1, #268435456	@ 0x10000000
 8000ed8:	6419      	str	r1, [r3, #64]	@ 0x40
 8000eda:	6c1b      	ldr	r3, [r3, #64]	@ 0x40
 8000edc:	4918      	ldr	r1, [pc, #96]	@ (8000f40 <SystemClock_Config+0x8c>)
 8000ede:	f003 5380 	and.w	r3, r3, #268435456	@ 0x10000000
 8000ee2:	9300      	str	r3, [sp, #0]
 8000ee4:	9b00      	ldr	r3, [sp, #0]
 8000ee6:	9201      	str	r2, [sp, #4]
 8000ee8:	680b      	ldr	r3, [r1, #0]
 8000eea:	f423 4340 	bic.w	r3, r3, #49152	@ 0xc000
 8000eee:	f443 4380 	orr.w	r3, r3, #16384	@ 0x4000
 8000ef2:	600b      	str	r3, [r1, #0]
 8000ef4:	680b      	ldr	r3, [r1, #0]
 8000ef6:	920d      	str	r2, [sp, #52]	@ 0x34
 8000ef8:	f403 4340 	and.w	r3, r3, #49152	@ 0xc000
 8000efc:	9301      	str	r3, [sp, #4]
 8000efe:	9b01      	ldr	r3, [sp, #4]
 8000f00:	2302      	movs	r3, #2
 8000f02:	9307      	str	r3, [sp, #28]
 8000f04:	2001      	movs	r0, #1
 8000f06:	2310      	movs	r3, #16
 8000f08:	e9cd 030a 	strd	r0, r3, [sp, #40]	@ 0x28
 8000f0c:	a807      	add	r0, sp, #28
 8000f0e:	f000 fe6f 	bl	8001bf0 <HAL_RCC_OscConfig>
 8000f12:	4601      	mov	r1, r0
 8000f14:	b108      	cbz	r0, 8000f1a <SystemClock_Config+0x66>
 8000f16:	b672      	cpsid	i
 8000f18:	e7fe      	b.n	8000f18 <SystemClock_Config+0x64>
 8000f1a:	230f      	movs	r3, #15
 8000f1c:	e9cd 3002 	strd	r3, r0, [sp, #8]
 8000f20:	f44f 53c0 	mov.w	r3, #6144	@ 0x1800
 8000f24:	e9cd 3005 	strd	r3, r0, [sp, #20]
 8000f28:	9004      	str	r0, [sp, #16]
 8000f2a:	a802      	add	r0, sp, #8
 8000f2c:	f000 fd5e 	bl	80019ec <HAL_RCC_ClockConfig>
 8000f30:	b108      	cbz	r0, 8000f36 <SystemClock_Config+0x82>
 8000f32:	b672      	cpsid	i
 8000f34:	e7fe      	b.n	8000f34 <SystemClock_Config+0x80>
 8000f36:	b015      	add	sp, #84	@ 0x54
 8000f38:	f85d fb04 	ldr.w	pc, [sp], #4
 8000f3c:	40023800 	.word	0x40023800
 8000f40:	40007000 	.word	0x40007000

08000f44 <main>:
 8000f44:	e92d 4ff0 	stmdb	sp!, {r4, r5, r6, r7, r8, r9, sl, fp, lr}
 8000f48:	b09f      	sub	sp, #124	@ 0x7c
 8000f4a:	f000 fb37 	bl	80015bc <HAL_Init>
 8000f4e:	f7ff ffb1 	bl	8000eb4 <SystemClock_Config>
 8000f52:	2214      	movs	r2, #20
 8000f54:	2100      	movs	r1, #0
 8000f56:	a817      	add	r0, sp, #92	@ 0x5c
 8000f58:	f001 fb4b 	bl	80025f2 <memset>
 8000f5c:	2400      	movs	r4, #0
 8000f5e:	4bbb      	ldr	r3, [pc, #748]	@ (800124c <main+0x308>)
 8000f60:	9411      	str	r4, [sp, #68]	@ 0x44
 8000f62:	6b1a      	ldr	r2, [r3, #48]	@ 0x30
 8000f64:	48ba      	ldr	r0, [pc, #744]	@ (8001250 <main+0x30c>)
 8000f66:	f042 0204 	orr.w	r2, r2, #4
 8000f6a:	631a      	str	r2, [r3, #48]	@ 0x30
 8000f6c:	6b1a      	ldr	r2, [r3, #48]	@ 0x30
 8000f6e:	f002 0204 	and.w	r2, r2, #4
 8000f72:	9211      	str	r2, [sp, #68]	@ 0x44
 8000f74:	9a11      	ldr	r2, [sp, #68]	@ 0x44
 8000f76:	9412      	str	r4, [sp, #72]	@ 0x48
 8000f78:	6b1a      	ldr	r2, [r3, #48]	@ 0x30
 8000f7a:	f042 0280 	orr.w	r2, r2, #128	@ 0x80
 8000f7e:	631a      	str	r2, [r3, #48]	@ 0x30
 8000f80:	6b1a      	ldr	r2, [r3, #48]	@ 0x30
 8000f82:	f002 0280 	and.w	r2, r2, #128	@ 0x80
 8000f86:	9212      	str	r2, [sp, #72]	@ 0x48
 8000f88:	9a12      	ldr	r2, [sp, #72]	@ 0x48
 8000f8a:	9413      	str	r4, [sp, #76]	@ 0x4c
 8000f8c:	6b1a      	ldr	r2, [r3, #48]	@ 0x30
 8000f8e:	f042 0201 	orr.w	r2, r2, #1
 8000f92:	631a      	str	r2, [r3, #48]	@ 0x30
 8000f94:	6b1a      	ldr	r2, [r3, #48]	@ 0x30
 8000f96:	f002 0201 	and.w	r2, r2, #1
 8000f9a:	9213      	str	r2, [sp, #76]	@ 0x4c
 8000f9c:	9a13      	ldr	r2, [sp, #76]	@ 0x4c
 8000f9e:	9414      	str	r4, [sp, #80]	@ 0x50
 8000fa0:	6b1a      	ldr	r2, [r3, #48]	@ 0x30
 8000fa2:	f042 0202 	orr.w	r2, r2, #2
 8000fa6:	631a      	str	r2, [r3, #48]	@ 0x30
 8000fa8:	6b1b      	ldr	r3, [r3, #48]	@ 0x30
 8000faa:	f003 0302 	and.w	r3, r3, #2
 8000fae:	9314      	str	r3, [sp, #80]	@ 0x50
 8000fb0:	4622      	mov	r2, r4
 8000fb2:	f44f 7110 	mov.w	r1, #576	@ 0x240
 8000fb6:	9b14      	ldr	r3, [sp, #80]	@ 0x50
 8000fb8:	f000 fc6a 	bl	8001890 <HAL_GPIO_WritePin>
 8000fbc:	48a4      	ldr	r0, [pc, #656]	@ (8001250 <main+0x30c>)
 8000fbe:	2201      	movs	r2, #1
 8000fc0:	f44f 7180 	mov.w	r1, #256	@ 0x100
 8000fc4:	f000 fc64 	bl	8001890 <HAL_GPIO_WritePin>
 8000fc8:	4622      	mov	r2, r4
 8000fca:	48a2      	ldr	r0, [pc, #648]	@ (8001254 <main+0x310>)
 8000fcc:	2120      	movs	r1, #32
 8000fce:	f000 fc5f 	bl	8001890 <HAL_GPIO_WritePin>
 8000fd2:	2501      	movs	r5, #1
 8000fd4:	f44f 7350 	mov.w	r3, #832	@ 0x340
 8000fd8:	489d      	ldr	r0, [pc, #628]	@ (8001250 <main+0x30c>)
 8000fda:	a917      	add	r1, sp, #92	@ 0x5c
 8000fdc:	e9cd 3517 	strd	r3, r5, [sp, #92]	@ 0x5c
 8000fe0:	e9cd 4419 	strd	r4, r4, [sp, #100]	@ 0x64
 8000fe4:	f000 fb82 	bl	80016ec <HAL_GPIO_Init>
 8000fe8:	2320      	movs	r3, #32
 8000fea:	489a      	ldr	r0, [pc, #616]	@ (8001254 <main+0x310>)
 8000fec:	a917      	add	r1, sp, #92	@ 0x5c
 8000fee:	e9cd 3517 	strd	r3, r5, [sp, #92]	@ 0x5c
 8000ff2:	e9cd 4419 	strd	r4, r4, [sp, #100]	@ 0x64
 8000ff6:	f000 fb79 	bl	80016ec <HAL_GPIO_Init>
 8000ffa:	4897      	ldr	r0, [pc, #604]	@ (8001258 <main+0x314>)
 8000ffc:	4a97      	ldr	r2, [pc, #604]	@ (800125c <main+0x318>)
 8000ffe:	4b98      	ldr	r3, [pc, #608]	@ (8001260 <main+0x31c>)
 8001000:	6204      	str	r4, [r0, #32]
 8001002:	e9c0 2300 	strd	r2, r3, [r0]
 8001006:	f44f 4380 	mov.w	r3, #16384	@ 0x4000
 800100a:	e9c0 4402 	strd	r4, r4, [r0, #8]
 800100e:	e9c0 3404 	strd	r3, r4, [r0, #16]
 8001012:	e9c0 4406 	strd	r4, r4, [r0, #24]
 8001016:	f000 fc41 	bl	800189c <HAL_I2C_Init>
 800101a:	4605      	mov	r5, r0
 800101c:	b108      	cbz	r0, 8001022 <main+0xde>
 800101e:	b672      	cpsid	i
 8001020:	e7fe      	b.n	8001020 <main+0xdc>
 8001022:	4c90      	ldr	r4, [pc, #576]	@ (8001264 <main+0x320>)
 8001024:	4601      	mov	r1, r0
 8001026:	e9cd 0015 	strd	r0, r0, [sp, #84]	@ 0x54
 800102a:	221c      	movs	r2, #28
 800102c:	a817      	add	r0, sp, #92	@ 0x5c
 800102e:	f001 fae0 	bl	80025f2 <memset>
 8001032:	4b8d      	ldr	r3, [pc, #564]	@ (8001268 <main+0x324>)
 8001034:	60a5      	str	r5, [r4, #8]
 8001036:	f04f 0a3f 	mov.w	sl, #63	@ 0x3f
 800103a:	f240 49e2 	movw	r9, #1250	@ 0x4e2
 800103e:	4620      	mov	r0, r4
 8001040:	e9c4 3a00 	strd	r3, sl, [r4]
 8001044:	e9c4 9503 	strd	r9, r5, [r4, #12]
 8001048:	61a5      	str	r5, [r4, #24]
 800104a:	f001 f899 	bl	8002180 <HAL_TIM_PWM_Init>
 800104e:	4627      	mov	r7, r4
 8001050:	b108      	cbz	r0, 8001056 <main+0x112>
 8001052:	b672      	cpsid	i
 8001054:	e7fe      	b.n	8001054 <main+0x110>
 8001056:	e9cd 0015 	strd	r0, r0, [sp, #84]	@ 0x54
 800105a:	a915      	add	r1, sp, #84	@ 0x54
 800105c:	4620      	mov	r0, r4
 800105e:	f001 f9fd 	bl	800245c <HAL_TIMEx_MasterConfigSynchronization>
 8001062:	4602      	mov	r2, r0
 8001064:	b108      	cbz	r0, 800106a <main+0x126>
 8001066:	b672      	cpsid	i
 8001068:	e7fe      	b.n	8001068 <main+0x124>
 800106a:	f04f 0860 	mov.w	r8, #96	@ 0x60
 800106e:	e9cd 8017 	strd	r8, r0, [sp, #92]	@ 0x5c
 8001072:	9019      	str	r0, [sp, #100]	@ 0x64
 8001074:	901b      	str	r0, [sp, #108]	@ 0x6c
 8001076:	a917      	add	r1, sp, #92	@ 0x5c
 8001078:	4620      	mov	r0, r4
 800107a:	f001 f8e3 	bl	8002244 <HAL_TIM_PWM_ConfigChannel>
 800107e:	4683      	mov	fp, r0
 8001080:	b108      	cbz	r0, 8001086 <main+0x142>
 8001082:	b672      	cpsid	i
 8001084:	e7fe      	b.n	8001084 <main+0x140>
 8001086:	4620      	mov	r0, r4
 8001088:	f000 f97c 	bl	8001384 <HAL_TIM_MspPostInit>
 800108c:	4877      	ldr	r0, [pc, #476]	@ (800126c <main+0x328>)
 800108e:	4b78      	ldr	r3, [pc, #480]	@ (8001270 <main+0x32c>)
 8001090:	f8c0 b010 	str.w	fp, [r0, #16]
 8001094:	f44f 5616 	mov.w	r6, #9600	@ 0x2580
 8001098:	250c      	movs	r5, #12
 800109a:	e9c0 3600 	strd	r3, r6, [r0]
 800109e:	e9c0 bb02 	strd	fp, fp, [r0, #8]
 80010a2:	e9c0 5b05 	strd	r5, fp, [r0, #20]
 80010a6:	f8c0 b01c 	str.w	fp, [r0, #28]
 80010aa:	f001 fa73 	bl	8002594 <HAL_UART_Init>
 80010ae:	4603      	mov	r3, r0
 80010b0:	b108      	cbz	r0, 80010b6 <main+0x172>
 80010b2:	b672      	cpsid	i
 80010b4:	e7fe      	b.n	80010b4 <main+0x170>
 80010b6:	486f      	ldr	r0, [pc, #444]	@ (8001274 <main+0x330>)
 80010b8:	4a6f      	ldr	r2, [pc, #444]	@ (8001278 <main+0x334>)
 80010ba:	e9c0 3302 	strd	r3, r3, [r0, #8]
 80010be:	e9c0 2600 	strd	r2, r6, [r0]
 80010c2:	e9c0 3504 	strd	r3, r5, [r0, #16]
 80010c6:	e9c0 3306 	strd	r3, r3, [r0, #24]
 80010ca:	f001 fa63 	bl	8002594 <HAL_UART_Init>
 80010ce:	4606      	mov	r6, r0
 80010d0:	b108      	cbz	r0, 80010d6 <main+0x192>
 80010d2:	b672      	cpsid	i
 80010d4:	e7fe      	b.n	80010d4 <main+0x190>
 80010d6:	4d69      	ldr	r5, [pc, #420]	@ (800127c <main+0x338>)
 80010d8:	e9cd 0015 	strd	r0, r0, [sp, #84]	@ 0x54
 80010dc:	4601      	mov	r1, r0
 80010de:	221c      	movs	r2, #28
 80010e0:	a817      	add	r0, sp, #92	@ 0x5c
 80010e2:	f001 fa86 	bl	80025f2 <memset>
 80010e6:	4b66      	ldr	r3, [pc, #408]	@ (8001280 <main+0x33c>)
 80010e8:	612e      	str	r6, [r5, #16]
 80010ea:	4628      	mov	r0, r5
 80010ec:	e9c5 3a00 	strd	r3, sl, [r5]
 80010f0:	e9c5 6902 	strd	r6, r9, [r5, #8]
 80010f4:	61ae      	str	r6, [r5, #24]
 80010f6:	f001 f843 	bl	8002180 <HAL_TIM_PWM_Init>
 80010fa:	b108      	cbz	r0, 8001100 <main+0x1bc>
 80010fc:	b672      	cpsid	i
 80010fe:	e7fe      	b.n	80010fe <main+0x1ba>
 8001100:	e9cd 0015 	strd	r0, r0, [sp, #84]	@ 0x54
 8001104:	a915      	add	r1, sp, #84	@ 0x54
 8001106:	4628      	mov	r0, r5
 8001108:	f001 f9a8 	bl	800245c <HAL_TIMEx_MasterConfigSynchronization>
 800110c:	b108      	cbz	r0, 8001112 <main+0x1ce>
 800110e:	b672      	cpsid	i
 8001110:	e7fe      	b.n	8001110 <main+0x1cc>
 8001112:	e9cd 8017 	strd	r8, r0, [sp, #92]	@ 0x5c
 8001116:	9019      	str	r0, [sp, #100]	@ 0x64
 8001118:	901b      	str	r0, [sp, #108]	@ 0x6c
 800111a:	2204      	movs	r2, #4
 800111c:	a917      	add	r1, sp, #92	@ 0x5c
 800111e:	4628      	mov	r0, r5
 8001120:	f001 f890 	bl	8002244 <HAL_TIM_PWM_ConfigChannel>
 8001124:	4606      	mov	r6, r0
 8001126:	b108      	cbz	r0, 800112c <main+0x1e8>
 8001128:	b672      	cpsid	i
 800112a:	e7fe      	b.n	800112a <main+0x1e6>
 800112c:	4628      	mov	r0, r5
 800112e:	f000 f929 	bl	8001384 <HAL_TIM_MspPostInit>
 8001132:	235a      	movs	r3, #90	@ 0x5a
 8001134:	930e      	str	r3, [sp, #56]	@ 0x38
 8001136:	3410      	adds	r4, #16
 8001138:	cc0f      	ldmia	r4!, {r0, r1, r2, r3}
 800113a:	466d      	mov	r5, sp
 800113c:	c50f      	stmia	r5!, {r0, r1, r2, r3}
 800113e:	cc0f      	ldmia	r4!, {r0, r1, r2, r3}
 8001140:	c50f      	stmia	r5!, {r0, r1, r2, r3}
 8001142:	cc0f      	ldmia	r4!, {r0, r1, r2, r3}
 8001144:	c50f      	stmia	r5!, {r0, r1, r2, r3}
 8001146:	e894 0003 	ldmia.w	r4, {r0, r1}
 800114a:	e885 0003 	stmia.w	r5, {r0, r1}
 800114e:	e897 000f 	ldmia.w	r7, {r0, r1, r2, r3}
 8001152:	f7ff fdf9 	bl	8000d48 <setServoAngle>
 8001156:	483e      	ldr	r0, [pc, #248]	@ (8001250 <main+0x30c>)
 8001158:	4632      	mov	r2, r6
 800115a:	f44f 7180 	mov.w	r1, #256	@ 0x100
 800115e:	f000 fb97 	bl	8001890 <HAL_GPIO_WritePin>
 8001162:	f240 21ee 	movw	r1, #750	@ 0x2ee
 8001166:	2055      	movs	r0, #85	@ 0x55
 8001168:	f7ff fe54 	bl	8000e14 <sendCommand>
 800116c:	2600      	movs	r6, #0
 800116e:	b2b3      	uxth	r3, r6
 8001170:	4c44      	ldr	r4, [pc, #272]	@ (8001284 <main+0x340>)
 8001172:	930e      	str	r3, [sp, #56]	@ 0x38
 8001174:	cc0f      	ldmia	r4!, {r0, r1, r2, r3}
 8001176:	466d      	mov	r5, sp
 8001178:	c50f      	stmia	r5!, {r0, r1, r2, r3}
 800117a:	cc0f      	ldmia	r4!, {r0, r1, r2, r3}
 800117c:	c50f      	stmia	r5!, {r0, r1, r2, r3}
 800117e:	cc0f      	ldmia	r4!, {r0, r1, r2, r3}
 8001180:	c50f      	stmia	r5!, {r0, r1, r2, r3}
 8001182:	e894 0003 	ldmia.w	r4, {r0, r1}
 8001186:	e885 0003 	stmia.w	r5, {r0, r1}
 800118a:	e897 000f 	ldmia.w	r7, {r0, r1, r2, r3}
 800118e:	f7ff fddb 	bl	8000d48 <setServoAngle>
 8001192:	3601      	adds	r6, #1
 8001194:	2032      	movs	r0, #50	@ 0x32
 8001196:	f000 fa3d 	bl	8001614 <HAL_Delay>
 800119a:	2eb5      	cmp	r6, #181	@ 0xb5
 800119c:	d1e7      	bne.n	800116e <main+0x22a>
 800119e:	235a      	movs	r3, #90	@ 0x5a
 80011a0:	930e      	str	r3, [sp, #56]	@ 0x38
 80011a2:	f1a4 0630 	sub.w	r6, r4, #48	@ 0x30
 80011a6:	ce0f      	ldmia	r6!, {r0, r1, r2, r3}
 80011a8:	466d      	mov	r5, sp
 80011aa:	c50f      	stmia	r5!, {r0, r1, r2, r3}
 80011ac:	ce0f      	ldmia	r6!, {r0, r1, r2, r3}
 80011ae:	c50f      	stmia	r5!, {r0, r1, r2, r3}
 80011b0:	ce0f      	ldmia	r6!, {r0, r1, r2, r3}
 80011b2:	c50f      	stmia	r5!, {r0, r1, r2, r3}
 80011b4:	e894 0003 	ldmia.w	r4, {r0, r1}
 80011b8:	e885 0003 	stmia.w	r5, {r0, r1}
 80011bc:	e897 000f 	ldmia.w	r7, {r0, r1, r2, r3}
 80011c0:	f7ff fdc2 	bl	8000d48 <setServoAngle>
 80011c4:	2100      	movs	r1, #0
 80011c6:	202d      	movs	r0, #45	@ 0x2d
 80011c8:	f7ff fdf0 	bl	8000dac <setServoRelativeAngle>
 80011cc:	f44f 707a 	mov.w	r0, #1000	@ 0x3e8
 80011d0:	f000 fa20 	bl	8001614 <HAL_Delay>
 80011d4:	f240 21ee 	movw	r1, #750	@ 0x2ee
 80011d8:	20aa      	movs	r0, #170	@ 0xaa
 80011da:	f7ff fe1b 	bl	8000e14 <sendCommand>
 80011de:	2101      	movs	r1, #1
 80011e0:	202d      	movs	r0, #45	@ 0x2d
 80011e2:	f7ff fde3 	bl	8000dac <setServoRelativeAngle>
 80011e6:	f44f 707a 	mov.w	r0, #1000	@ 0x3e8
 80011ea:	f000 fa13 	bl	8001614 <HAL_Delay>
 80011ee:	2101      	movs	r1, #1
 80011f0:	202d      	movs	r0, #45	@ 0x2d
 80011f2:	f7ff fddb 	bl	8000dac <setServoRelativeAngle>
 80011f6:	f44f 707a 	mov.w	r0, #1000	@ 0x3e8
 80011fa:	f000 fa0b 	bl	8001614 <HAL_Delay>
 80011fe:	2101      	movs	r1, #1
 8001200:	202d      	movs	r0, #45	@ 0x2d
 8001202:	f7ff fdd3 	bl	8000dac <setServoRelativeAngle>
 8001206:	f44f 707a 	mov.w	r0, #1000	@ 0x3e8
 800120a:	f000 fa03 	bl	8001614 <HAL_Delay>
 800120e:	f240 21ee 	movw	r1, #750	@ 0x2ee
 8001212:	20ac      	movs	r0, #172	@ 0xac
 8001214:	f7ff fdfe 	bl	8000e14 <sendCommand>
 8001218:	2100      	movs	r1, #0
 800121a:	201e      	movs	r0, #30
 800121c:	f7ff fdc6 	bl	8000dac <setServoRelativeAngle>
 8001220:	f44f 707a 	mov.w	r0, #1000	@ 0x3e8
 8001224:	f000 f9f6 	bl	8001614 <HAL_Delay>
 8001228:	2100      	movs	r1, #0
 800122a:	201e      	movs	r0, #30
 800122c:	f7ff fdbe 	bl	8000dac <setServoRelativeAngle>
 8001230:	f44f 707a 	mov.w	r0, #1000	@ 0x3e8
 8001234:	f000 f9ee 	bl	8001614 <HAL_Delay>
 8001238:	2100      	movs	r1, #0
 800123a:	201e      	movs	r0, #30
 800123c:	f7ff fdb6 	bl	8000dac <setServoRelativeAngle>
 8001240:	f44f 707a 	mov.w	r0, #1000	@ 0x3e8
 8001244:	f000 f9e6 	bl	8001614 <HAL_Delay>
 8001248:	e78b      	b.n	8001162 <main+0x21e>
 800124a:	bf00      	nop
 800124c:	40023800 	.word	0x40023800
 8001250:	40020000 	.word	0x40020000
 8001254:	40020400 	.word	0x40020400
 8001258:	2000014c 	.word	0x2000014c
 800125c:	40005400 	.word	0x40005400
 8001260:	000186a0 	.word	0x000186a0
 8001264:	200000bc 	.word	0x200000bc
 8001268:	40000800 	.word	0x40000800
 800126c:	20000074 	.word	0x20000074
 8001270:	40004400 	.word	0x40004400
 8001274:	2000002c 	.word	0x2000002c
 8001278:	40004800 	.word	0x40004800
 800127c:	20000104 	.word	0x20000104
 8001280:	40000400 	.word	0x40000400
 8001284:	200000cc 	.word	0x200000cc

08001288 <HAL_MspInit>:
 8001288:	b082      	sub	sp, #8
 800128a:	4b0c      	ldr	r3, [pc, #48]	@ (80012bc <HAL_MspInit+0x34>)
 800128c:	2100      	movs	r1, #0
 800128e:	9100      	str	r1, [sp, #0]
 8001290:	6c5a      	ldr	r2, [r3, #68]	@ 0x44
 8001292:	f442 4280 	orr.w	r2, r2, #16384	@ 0x4000
 8001296:	645a      	str	r2, [r3, #68]	@ 0x44
 8001298:	6c5a      	ldr	r2, [r3, #68]	@ 0x44
 800129a:	f402 4280 	and.w	r2, r2, #16384	@ 0x4000
 800129e:	9200      	str	r2, [sp, #0]
 80012a0:	9a00      	ldr	r2, [sp, #0]
 80012a2:	9101      	str	r1, [sp, #4]
 80012a4:	6c1a      	ldr	r2, [r3, #64]	@ 0x40
 80012a6:	f042 5280 	orr.w	r2, r2, #268435456	@ 0x10000000
 80012aa:	641a      	str	r2, [r3, #64]	@ 0x40
 80012ac:	6c1b      	ldr	r3, [r3, #64]	@ 0x40
 80012ae:	f003 5380 	and.w	r3, r3, #268435456	@ 0x10000000
 80012b2:	9301      	str	r3, [sp, #4]
 80012b4:	9b01      	ldr	r3, [sp, #4]
 80012b6:	b002      	add	sp, #8
 80012b8:	4770      	bx	lr
 80012ba:	bf00      	nop
 80012bc:	40023800 	.word	0x40023800

080012c0 <HAL_I2C_MspInit>:
 80012c0:	b530      	push	{r4, r5, lr}
 80012c2:	4604      	mov	r4, r0
 80012c4:	b089      	sub	sp, #36	@ 0x24
 80012c6:	2214      	movs	r2, #20
 80012c8:	2100      	movs	r1, #0
 80012ca:	a803      	add	r0, sp, #12
 80012cc:	f001 f991 	bl	80025f2 <memset>
 80012d0:	6822      	ldr	r2, [r4, #0]
 80012d2:	4b14      	ldr	r3, [pc, #80]	@ (8001324 <HAL_I2C_MspInit+0x64>)
 80012d4:	429a      	cmp	r2, r3
 80012d6:	d122      	bne.n	800131e <HAL_I2C_MspInit+0x5e>
 80012d8:	4c13      	ldr	r4, [pc, #76]	@ (8001328 <HAL_I2C_MspInit+0x68>)
 80012da:	4814      	ldr	r0, [pc, #80]	@ (800132c <HAL_I2C_MspInit+0x6c>)
 80012dc:	2500      	movs	r5, #0
 80012de:	9501      	str	r5, [sp, #4]
 80012e0:	6b23      	ldr	r3, [r4, #48]	@ 0x30
 80012e2:	f043 0302 	orr.w	r3, r3, #2
 80012e6:	6323      	str	r3, [r4, #48]	@ 0x30
 80012e8:	6b23      	ldr	r3, [r4, #48]	@ 0x30
 80012ea:	f003 0302 	and.w	r3, r3, #2
 80012ee:	9301      	str	r3, [sp, #4]
 80012f0:	9b01      	ldr	r3, [sp, #4]
 80012f2:	f44f 72c0 	mov.w	r2, #384	@ 0x180
 80012f6:	2312      	movs	r3, #18
 80012f8:	e9cd 2303 	strd	r2, r3, [sp, #12]
 80012fc:	2103      	movs	r1, #3
 80012fe:	2304      	movs	r3, #4
 8001300:	e9cd 1306 	strd	r1, r3, [sp, #24]
 8001304:	a903      	add	r1, sp, #12
 8001306:	f000 f9f1 	bl	80016ec <HAL_GPIO_Init>
 800130a:	9502      	str	r5, [sp, #8]
 800130c:	6c23      	ldr	r3, [r4, #64]	@ 0x40
 800130e:	f443 1300 	orr.w	r3, r3, #2097152	@ 0x200000
 8001312:	6423      	str	r3, [r4, #64]	@ 0x40
 8001314:	6c23      	ldr	r3, [r4, #64]	@ 0x40
 8001316:	f403 1300 	and.w	r3, r3, #2097152	@ 0x200000
 800131a:	9302      	str	r3, [sp, #8]
 800131c:	9b02      	ldr	r3, [sp, #8]
 800131e:	b009      	add	sp, #36	@ 0x24
 8001320:	bd30      	pop	{r4, r5, pc}
 8001322:	bf00      	nop
 8001324:	40005400 	.word	0x40005400
 8001328:	40023800 	.word	0x40023800
 800132c:	40020400 	.word	0x40020400

08001330 <HAL_TIM_PWM_MspInit>:
 8001330:	6803      	ldr	r3, [r0, #0]
 8001332:	4a11      	ldr	r2, [pc, #68]	@ (8001378 <HAL_TIM_PWM_MspInit+0x48>)
 8001334:	4293      	cmp	r3, r2
 8001336:	b082      	sub	sp, #8
 8001338:	d10d      	bne.n	8001356 <HAL_TIM_PWM_MspInit+0x26>
 800133a:	2300      	movs	r3, #0
 800133c:	9300      	str	r3, [sp, #0]
 800133e:	4b0f      	ldr	r3, [pc, #60]	@ (800137c <HAL_TIM_PWM_MspInit+0x4c>)
 8001340:	6c1a      	ldr	r2, [r3, #64]	@ 0x40
 8001342:	f042 0202 	orr.w	r2, r2, #2
 8001346:	641a      	str	r2, [r3, #64]	@ 0x40
 8001348:	6c1b      	ldr	r3, [r3, #64]	@ 0x40
 800134a:	f003 0302 	and.w	r3, r3, #2
 800134e:	9300      	str	r3, [sp, #0]
 8001350:	9b00      	ldr	r3, [sp, #0]
 8001352:	b002      	add	sp, #8
 8001354:	4770      	bx	lr
 8001356:	4a0a      	ldr	r2, [pc, #40]	@ (8001380 <HAL_TIM_PWM_MspInit+0x50>)
 8001358:	4293      	cmp	r3, r2
 800135a:	d1fa      	bne.n	8001352 <HAL_TIM_PWM_MspInit+0x22>
 800135c:	2300      	movs	r3, #0
 800135e:	9301      	str	r3, [sp, #4]
 8001360:	4b06      	ldr	r3, [pc, #24]	@ (800137c <HAL_TIM_PWM_MspInit+0x4c>)
 8001362:	6c1a      	ldr	r2, [r3, #64]	@ 0x40
 8001364:	f042 0204 	orr.w	r2, r2, #4
 8001368:	641a      	str	r2, [r3, #64]	@ 0x40
 800136a:	6c1b      	ldr	r3, [r3, #64]	@ 0x40
 800136c:	f003 0304 	and.w	r3, r3, #4
 8001370:	9301      	str	r3, [sp, #4]
 8001372:	9b01      	ldr	r3, [sp, #4]
 8001374:	e7ed      	b.n	8001352 <HAL_TIM_PWM_MspInit+0x22>
 8001376:	bf00      	nop
 8001378:	40000400 	.word	0x40000400
 800137c:	40023800 	.word	0x40023800
 8001380:	40000800 	.word	0x40000800

08001384 <HAL_TIM_MspPostInit>:
 8001384:	b510      	push	{r4, lr}
 8001386:	4604      	mov	r4, r0
 8001388:	b088      	sub	sp, #32
 800138a:	2214      	movs	r2, #20
 800138c:	2100      	movs	r1, #0
 800138e:	a803      	add	r0, sp, #12
 8001390:	f001 f92f 	bl	80025f2 <memset>
 8001394:	6823      	ldr	r3, [r4, #0]
 8001396:	4a18      	ldr	r2, [pc, #96]	@ (80013f8 <HAL_TIM_MspPostInit+0x74>)
 8001398:	4293      	cmp	r3, r2
 800139a:	d116      	bne.n	80013ca <HAL_TIM_MspPostInit+0x46>
 800139c:	2300      	movs	r3, #0
 800139e:	9301      	str	r3, [sp, #4]
 80013a0:	4b16      	ldr	r3, [pc, #88]	@ (80013fc <HAL_TIM_MspPostInit+0x78>)
 80013a2:	4817      	ldr	r0, [pc, #92]	@ (8001400 <HAL_TIM_MspPostInit+0x7c>)
 80013a4:	6b1a      	ldr	r2, [r3, #48]	@ 0x30
 80013a6:	f042 0201 	orr.w	r2, r2, #1
 80013aa:	631a      	str	r2, [r3, #48]	@ 0x30
 80013ac:	6b1b      	ldr	r3, [r3, #48]	@ 0x30
 80013ae:	f003 0301 	and.w	r3, r3, #1
 80013b2:	9301      	str	r3, [sp, #4]
 80013b4:	2180      	movs	r1, #128	@ 0x80
 80013b6:	9b01      	ldr	r3, [sp, #4]
 80013b8:	2302      	movs	r3, #2
 80013ba:	e9cd 1303 	strd	r1, r3, [sp, #12]
 80013be:	9307      	str	r3, [sp, #28]
 80013c0:	a903      	add	r1, sp, #12
 80013c2:	f000 f993 	bl	80016ec <HAL_GPIO_Init>
 80013c6:	b008      	add	sp, #32
 80013c8:	bd10      	pop	{r4, pc}
 80013ca:	4a0e      	ldr	r2, [pc, #56]	@ (8001404 <HAL_TIM_MspPostInit+0x80>)
 80013cc:	4293      	cmp	r3, r2
 80013ce:	d1fa      	bne.n	80013c6 <HAL_TIM_MspPostInit+0x42>
 80013d0:	2300      	movs	r3, #0
 80013d2:	9302      	str	r3, [sp, #8]
 80013d4:	4b09      	ldr	r3, [pc, #36]	@ (80013fc <HAL_TIM_MspPostInit+0x78>)
 80013d6:	480c      	ldr	r0, [pc, #48]	@ (8001408 <HAL_TIM_MspPostInit+0x84>)
 80013d8:	6b1a      	ldr	r2, [r3, #48]	@ 0x30
 80013da:	f042 0202 	orr.w	r2, r2, #2
 80013de:	631a      	str	r2, [r3, #48]	@ 0x30
 80013e0:	6b1b      	ldr	r3, [r3, #48]	@ 0x30
 80013e2:	f003 0302 	and.w	r3, r3, #2
 80013e6:	9302      	str	r3, [sp, #8]
 80013e8:	9b02      	ldr	r3, [sp, #8]
 80013ea:	2240      	movs	r2, #64	@ 0x40
 80013ec:	2302      	movs	r3, #2
 80013ee:	e9cd 2303 	strd	r2, r3, [sp, #12]
 80013f2:	9307      	str	r3, [sp, #28]
 80013f4:	a903      	add	r1, sp, #12
 80013f6:	e7e4      	b.n	80013c2 <HAL_TIM_MspPostInit+0x3e>
 80013f8:	40000400 	.word	0x40000400
 80013fc:	40023800 	.word	0x40023800
 8001400:	40020000 	.word	0x40020000
 8001404:	40000800 	.word	0x40000800
 8001408:	40020400 	.word	0x40020400

0800140c <HAL_UART_MspInit>:
 800140c:	b5f0      	push	{r4, r5, r6, r7, lr}
 800140e:	2214      	movs	r2, #20
 8001410:	b08b      	sub	sp, #44	@ 0x2c
 8001412:	4604      	mov	r4, r0
 8001414:	2100      	movs	r1, #0
 8001416:	eb0d 0002 	add.w	r0, sp, r2
 800141a:	f001 f8ea 	bl	80025f2 <memset>
 800141e:	6823      	ldr	r3, [r4, #0]
 8001420:	4a2f      	ldr	r2, [pc, #188]	@ (80014e0 <HAL_UART_MspInit+0xd4>)
 8001422:	4293      	cmp	r3, r2
 8001424:	d123      	bne.n	800146e <HAL_UART_MspInit+0x62>
 8001426:	4b2f      	ldr	r3, [pc, #188]	@ (80014e4 <HAL_UART_MspInit+0xd8>)
 8001428:	482f      	ldr	r0, [pc, #188]	@ (80014e8 <HAL_UART_MspInit+0xdc>)
 800142a:	2100      	movs	r1, #0
 800142c:	9100      	str	r1, [sp, #0]
 800142e:	6c1a      	ldr	r2, [r3, #64]	@ 0x40
 8001430:	f442 3200 	orr.w	r2, r2, #131072	@ 0x20000
 8001434:	641a      	str	r2, [r3, #64]	@ 0x40
 8001436:	6c1a      	ldr	r2, [r3, #64]	@ 0x40
 8001438:	f402 3200 	and.w	r2, r2, #131072	@ 0x20000
 800143c:	9200      	str	r2, [sp, #0]
 800143e:	9a00      	ldr	r2, [sp, #0]
 8001440:	9101      	str	r1, [sp, #4]
 8001442:	6b1a      	ldr	r2, [r3, #48]	@ 0x30
 8001444:	f042 0201 	orr.w	r2, r2, #1
 8001448:	631a      	str	r2, [r3, #48]	@ 0x30
 800144a:	6b1b      	ldr	r3, [r3, #48]	@ 0x30
 800144c:	f003 0301 	and.w	r3, r3, #1
 8001450:	9301      	str	r3, [sp, #4]
 8001452:	9b01      	ldr	r3, [sp, #4]
 8001454:	220c      	movs	r2, #12
 8001456:	2302      	movs	r3, #2
 8001458:	2103      	movs	r1, #3
 800145a:	e9cd 2305 	strd	r2, r3, [sp, #20]
 800145e:	2307      	movs	r3, #7
 8001460:	e9cd 1308 	strd	r1, r3, [sp, #32]
 8001464:	a905      	add	r1, sp, #20
 8001466:	f000 f941 	bl	80016ec <HAL_GPIO_Init>
 800146a:	b00b      	add	sp, #44	@ 0x2c
 800146c:	bdf0      	pop	{r4, r5, r6, r7, pc}
 800146e:	4a1f      	ldr	r2, [pc, #124]	@ (80014ec <HAL_UART_MspInit+0xe0>)
 8001470:	4293      	cmp	r3, r2
 8001472:	d1fa      	bne.n	800146a <HAL_UART_MspInit+0x5e>
 8001474:	4b1b      	ldr	r3, [pc, #108]	@ (80014e4 <HAL_UART_MspInit+0xd8>)
 8001476:	481e      	ldr	r0, [pc, #120]	@ (80014f0 <HAL_UART_MspInit+0xe4>)
 8001478:	2400      	movs	r4, #0
 800147a:	9402      	str	r4, [sp, #8]
 800147c:	6c1a      	ldr	r2, [r3, #64]	@ 0x40
 800147e:	f442 2280 	orr.w	r2, r2, #262144	@ 0x40000
 8001482:	641a      	str	r2, [r3, #64]	@ 0x40
 8001484:	6c1a      	ldr	r2, [r3, #64]	@ 0x40
 8001486:	f402 2280 	and.w	r2, r2, #262144	@ 0x40000
 800148a:	9202      	str	r2, [sp, #8]
 800148c:	9a02      	ldr	r2, [sp, #8]
 800148e:	9403      	str	r4, [sp, #12]
 8001490:	6b1a      	ldr	r2, [r3, #48]	@ 0x30
 8001492:	f042 0204 	orr.w	r2, r2, #4
 8001496:	631a      	str	r2, [r3, #48]	@ 0x30
 8001498:	6b1a      	ldr	r2, [r3, #48]	@ 0x30
 800149a:	f002 0204 	and.w	r2, r2, #4
 800149e:	9203      	str	r2, [sp, #12]
 80014a0:	9a03      	ldr	r2, [sp, #12]
 80014a2:	9404      	str	r4, [sp, #16]
 80014a4:	6b1a      	ldr	r2, [r3, #48]	@ 0x30
 80014a6:	f042 0202 	orr.w	r2, r2, #2
 80014aa:	631a      	str	r2, [r3, #48]	@ 0x30
 80014ac:	6b1b      	ldr	r3, [r3, #48]	@ 0x30
 80014ae:	f003 0302 	and.w	r3, r3, #2
 80014b2:	9304      	str	r3, [sp, #16]
 80014b4:	9b04      	ldr	r3, [sp, #16]
 80014b6:	2702      	movs	r7, #2
 80014b8:	2320      	movs	r3, #32
 80014ba:	2603      	movs	r6, #3
 80014bc:	2507      	movs	r5, #7
 80014be:	a905      	add	r1, sp, #20
 80014c0:	e9cd 3705 	strd	r3, r7, [sp, #20]
 80014c4:	e9cd 6508 	strd	r6, r5, [sp, #32]
 80014c8:	f000 f910 	bl	80016ec <HAL_GPIO_Init>
 80014cc:	f44f 6380 	mov.w	r3, #1024	@ 0x400
 80014d0:	e9cd 3705 	strd	r3, r7, [sp, #20]
 80014d4:	e9cd 4607 	strd	r4, r6, [sp, #28]
 80014d8:	4806      	ldr	r0, [pc, #24]	@ (80014f4 <HAL_UART_MspInit+0xe8>)
 80014da:	9509      	str	r5, [sp, #36]	@ 0x24
 80014dc:	a905      	add	r1, sp, #20
 80014de:	e7c2      	b.n	8001466 <HAL_UART_MspInit+0x5a>
 80014e0:	40004400 	.word	0x40004400
 80014e4:	40023800 	.word	0x40023800
 80014e8:	40020000 	.word	0x40020000
 80014ec:	40004800 	.word	0x40004800
 80014f0:	40020800 	.word	0x40020800
 80014f4:	40020400 	.word	0x40020400

080014f8 <NMI_Handler>:
 80014f8:	e7fe      	b.n	80014f8 <NMI_Handler>

080014fa <HardFault_Handler>:
 80014fa:	e7fe      	b.n	80014fa <HardFault_Handler>

080014fc <MemManage_Handler>:
 80014fc:	e7fe      	b.n	80014fc <MemManage_Handler>

080014fe <BusFault_Handler>:
 80014fe:	e7fe      	b.n	80014fe <BusFault_Handler>

08001500 <UsageFault_Handler>:
 8001500:	e7fe      	b.n	8001500 <UsageFault_Handler>

08001502 <SVC_Handler>:
 8001502:	4770      	bx	lr

08001504 <DebugMon_Handler>:
 8001504:	4770      	bx	lr

08001506 <PendSV_Handler>:
 8001506:	4770      	bx	lr

08001508 <SysTick_Handler>:
 8001508:	f000 b872 	b.w	80015f0 <HAL_IncTick>

0800150c <SystemInit>:
 800150c:	4a03      	ldr	r2, [pc, #12]	@ (800151c <SystemInit+0x10>)
 800150e:	f8d2 3088 	ldr.w	r3, [r2, #136]	@ 0x88
 8001512:	f443 0370 	orr.w	r3, r3, #15728640	@ 0xf00000
 8001516:	f8c2 3088 	str.w	r3, [r2, #136]	@ 0x88
 800151a:	4770      	bx	lr
 800151c:	e000ed00 	.word	0xe000ed00

08001520 <Reset_Handler>:
 8001520:	f8df d034 	ldr.w	sp, [pc, #52]	@ 8001558 <LoopFillZerobss+0xe>
 8001524:	f7ff fff2 	bl	800150c <SystemInit>
 8001528:	480c      	ldr	r0, [pc, #48]	@ (800155c <LoopFillZerobss+0x12>)
 800152a:	490d      	ldr	r1, [pc, #52]	@ (8001560 <LoopFillZerobss+0x16>)
 800152c:	4a0d      	ldr	r2, [pc, #52]	@ (8001564 <LoopFillZerobss+0x1a>)
 800152e:	2300      	movs	r3, #0
 8001530:	e002      	b.n	8001538 <LoopCopyDataInit>

08001532 <CopyDataInit>:
 8001532:	58d4      	ldr	r4, [r2, r3]
 8001534:	50c4      	str	r4, [r0, r3]
 8001536:	3304      	adds	r3, #4

08001538 <LoopCopyDataInit>:
 8001538:	18c4      	adds	r4, r0, r3
 800153a:	428c      	cmp	r4, r1
 800153c:	d3f9      	bcc.n	8001532 <CopyDataInit>
 800153e:	4a0a      	ldr	r2, [pc, #40]	@ (8001568 <LoopFillZerobss+0x1e>)
 8001540:	4c0a      	ldr	r4, [pc, #40]	@ (800156c <LoopFillZerobss+0x22>)
 8001542:	2300      	movs	r3, #0
 8001544:	e001      	b.n	800154a <LoopFillZerobss>

08001546 <FillZerobss>:
 8001546:	6013      	str	r3, [r2, #0]
 8001548:	3204      	adds	r2, #4

0800154a <LoopFillZerobss>:
 800154a:	42a2      	cmp	r2, r4
 800154c:	d3fb      	bcc.n	8001546 <FillZerobss>
 800154e:	f001 f859 	bl	8002604 <__libc_init_array>
 8001552:	f7ff fcf7 	bl	8000f44 <main>
 8001556:	4770      	bx	lr
 8001558:	20020000 	.word	0x20020000
 800155c:	20000000 	.word	0x20000000
 8001560:	2000000c 	.word	0x2000000c
 8001564:	0800268c 	.word	0x0800268c
 8001568:	2000000c 	.word	0x2000000c
 800156c:	200001a4 	.word	0x200001a4

08001570 <ADC_IRQHandler>:
 8001570:	e7fe      	b.n	8001570 <ADC_IRQHandler>
	...

08001574 <HAL_InitTick>:
 8001574:	b538      	push	{r3, r4, r5, lr}
 8001576:	4b0e      	ldr	r3, [pc, #56]	@ (80015b0 <HAL_InitTick+0x3c>)
 8001578:	781a      	ldrb	r2, [r3, #0]
 800157a:	f44f 737a 	mov.w	r3, #1000	@ 0x3e8
 800157e:	fbb3 f3f2 	udiv	r3, r3, r2
 8001582:	4a0c      	ldr	r2, [pc, #48]	@ (80015b4 <HAL_InitTick+0x40>)
 8001584:	4605      	mov	r5, r0
 8001586:	6810      	ldr	r0, [r2, #0]
 8001588:	fbb0 f0f3 	udiv	r0, r0, r3
 800158c:	f000 f89a 	bl	80016c4 <HAL_SYSTICK_Config>
 8001590:	4604      	mov	r4, r0
 8001592:	b958      	cbnz	r0, 80015ac <HAL_InitTick+0x38>
 8001594:	2d0f      	cmp	r5, #15
 8001596:	d809      	bhi.n	80015ac <HAL_InitTick+0x38>
 8001598:	4602      	mov	r2, r0
 800159a:	4629      	mov	r1, r5
 800159c:	f04f 30ff 	mov.w	r0, #4294967295
 80015a0:	f000 f85e 	bl	8001660 <HAL_NVIC_SetPriority>
 80015a4:	4b04      	ldr	r3, [pc, #16]	@ (80015b8 <HAL_InitTick+0x44>)
 80015a6:	4620      	mov	r0, r4
 80015a8:	601d      	str	r5, [r3, #0]
 80015aa:	bd38      	pop	{r3, r4, r5, pc}
 80015ac:	2001      	movs	r0, #1
 80015ae:	e7fc      	b.n	80015aa <HAL_InitTick+0x36>
 80015b0:	20000004 	.word	0x20000004
 80015b4:	20000000 	.word	0x20000000
 80015b8:	20000008 	.word	0x20000008

080015bc <HAL_Init>:
 80015bc:	b508      	push	{r3, lr}
 80015be:	4b0b      	ldr	r3, [pc, #44]	@ (80015ec <HAL_Init+0x30>)
 80015c0:	681a      	ldr	r2, [r3, #0]
 80015c2:	f442 7200 	orr.w	r2, r2, #512	@ 0x200
 80015c6:	601a      	str	r2, [r3, #0]
 80015c8:	681a      	ldr	r2, [r3, #0]
 80015ca:	f442 6280 	orr.w	r2, r2, #1024	@ 0x400
 80015ce:	601a      	str	r2, [r3, #0]
 80015d0:	681a      	ldr	r2, [r3, #0]
 80015d2:	f442 7280 	orr.w	r2, r2, #256	@ 0x100
 80015d6:	601a      	str	r2, [r3, #0]
 80015d8:	2003      	movs	r0, #3
 80015da:	f000 f82f 	bl	800163c <HAL_NVIC_SetPriorityGrouping>
 80015de:	2000      	movs	r0, #0
 80015e0:	f7ff ffc8 	bl	8001574 <HAL_InitTick>
 80015e4:	f7ff fe50 	bl	8001288 <HAL_MspInit>
 80015e8:	2000      	movs	r0, #0
 80015ea:	bd08      	pop	{r3, pc}
 80015ec:	40023c00 	.word	0x40023c00

080015f0 <HAL_IncTick>:
 80015f0:	4a03      	ldr	r2, [pc, #12]	@ (8001600 <HAL_IncTick+0x10>)
 80015f2:	4b04      	ldr	r3, [pc, #16]	@ (8001604 <HAL_IncTick+0x14>)
 80015f4:	6811      	ldr	r1, [r2, #0]
 80015f6:	781b      	ldrb	r3, [r3, #0]
 80015f8:	440b      	add	r3, r1
 80015fa:	6013      	str	r3, [r2, #0]
 80015fc:	4770      	bx	lr
 80015fe:	bf00      	nop
 8001600:	200001a0 	.word	0x200001a0
 8001604:	20000004 	.word	0x20000004

08001608 <HAL_GetTick>:
 8001608:	4b01      	ldr	r3, [pc, #4]	@ (8001610 <HAL_GetTick+0x8>)
 800160a:	6818      	ldr	r0, [r3, #0]
 800160c:	4770      	bx	lr
 800160e:	bf00      	nop
 8001610:	200001a0 	.word	0x200001a0

08001614 <HAL_Delay>:
 8001614:	b538      	push	{r3, r4, r5, lr}
 8001616:	4604      	mov	r4, r0
 8001618:	f7ff fff6 	bl	8001608 <HAL_GetTick>
 800161c:	1c63      	adds	r3, r4, #1
 800161e:	bf1c      	itt	ne
 8001620:	4b05      	ldrne	r3, [pc, #20]	@ (8001638 <HAL_Delay+0x24>)
 8001622:	781b      	ldrbne	r3, [r3, #0]
 8001624:	4605      	mov	r5, r0
 8001626:	bf18      	it	ne
 8001628:	18e4      	addne	r4, r4, r3
 800162a:	f7ff ffed 	bl	8001608 <HAL_GetTick>
 800162e:	1b43      	subs	r3, r0, r5
 8001630:	42a3      	cmp	r3, r4
 8001632:	d3fa      	bcc.n	800162a <HAL_Delay+0x16>
 8001634:	bd38      	pop	{r3, r4, r5, pc}
 8001636:	bf00      	nop
 8001638:	20000004 	.word	0x20000004

0800163c <HAL_NVIC_SetPriorityGrouping>:
 800163c:	4907      	ldr	r1, [pc, #28]	@ (800165c <HAL_NVIC_SetPriorityGrouping+0x20>)
 800163e:	68ca      	ldr	r2, [r1, #12]
 8001640:	f422 62e0 	bic.w	r2, r2, #1792	@ 0x700
 8001644:	0203      	lsls	r3, r0, #8
 8001646:	0412      	lsls	r2, r2, #16
 8001648:	f403 63e0 	and.w	r3, r3, #1792	@ 0x700
 800164c:	0c12      	lsrs	r2, r2, #16
 800164e:	4313      	orrs	r3, r2
 8001650:	f043 63bf 	orr.w	r3, r3, #100139008	@ 0x5f80000
 8001654:	f443 3300 	orr.w	r3, r3, #131072	@ 0x20000
 8001658:	60cb      	str	r3, [r1, #12]
 800165a:	4770      	bx	lr
 800165c:	e000ed00 	.word	0xe000ed00

08001660 <HAL_NVIC_SetPriority>:
 8001660:	4b16      	ldr	r3, [pc, #88]	@ (80016bc <HAL_NVIC_SetPriority+0x5c>)
 8001662:	b530      	push	{r4, r5, lr}
 8001664:	68dc      	ldr	r4, [r3, #12]
 8001666:	f3c4 2402 	ubfx	r4, r4, #8, #3
 800166a:	f1c4 0307 	rsb	r3, r4, #7
 800166e:	1d25      	adds	r5, r4, #4
 8001670:	2b04      	cmp	r3, #4
 8001672:	bf28      	it	cs
 8001674:	2304      	movcs	r3, #4
 8001676:	2d06      	cmp	r5, #6
 8001678:	f04f 35ff 	mov.w	r5, #4294967295
 800167c:	bf8c      	ite	hi
 800167e:	3c03      	subhi	r4, #3
 8001680:	2400      	movls	r4, #0
 8001682:	fa05 f303 	lsl.w	r3, r5, r3
 8001686:	ea21 0303 	bic.w	r3, r1, r3
 800168a:	40a5      	lsls	r5, r4
 800168c:	ea22 0205 	bic.w	r2, r2, r5
 8001690:	40a3      	lsls	r3, r4
 8001692:	2800      	cmp	r0, #0
 8001694:	ea43 0302 	orr.w	r3, r3, r2
 8001698:	bfac      	ite	ge
 800169a:	f100 4060 	addge.w	r0, r0, #3758096384	@ 0xe0000000
 800169e:	4a08      	ldrlt	r2, [pc, #32]	@ (80016c0 <HAL_NVIC_SetPriority+0x60>)
 80016a0:	ea4f 1303 	mov.w	r3, r3, lsl #4
 80016a4:	bfb8      	it	lt
 80016a6:	f000 000f 	andlt.w	r0, r0, #15
 80016aa:	b2db      	uxtb	r3, r3
 80016ac:	bfaa      	itet	ge
 80016ae:	f500 4061 	addge.w	r0, r0, #57600	@ 0xe100
 80016b2:	5413      	strblt	r3, [r2, r0]
 80016b4:	f880 3300 	strbge.w	r3, [r0, #768]	@ 0x300
 80016b8:	bd30      	pop	{r4, r5, pc}
 80016ba:	bf00      	nop
 80016bc:	e000ed00 	.word	0xe000ed00
 80016c0:	e000ed14 	.word	0xe000ed14

080016c4 <HAL_SYSTICK_Config>:
 80016c4:	3801      	subs	r0, #1
 80016c6:	f1b0 7f80 	cmp.w	r0, #16777216	@ 0x1000000
 80016ca:	d20b      	bcs.n	80016e4 <HAL_SYSTICK_Config+0x20>
 80016cc:	f04f 23e0 	mov.w	r3, #3758153728	@ 0xe000e000
 80016d0:	4a05      	ldr	r2, [pc, #20]	@ (80016e8 <HAL_SYSTICK_Config+0x24>)
 80016d2:	6158      	str	r0, [r3, #20]
 80016d4:	21f0      	movs	r1, #240	@ 0xf0
 80016d6:	f882 1023 	strb.w	r1, [r2, #35]	@ 0x23
 80016da:	2000      	movs	r0, #0
 80016dc:	2207      	movs	r2, #7
 80016de:	6198      	str	r0, [r3, #24]
 80016e0:	611a      	str	r2, [r3, #16]
 80016e2:	4770      	bx	lr
 80016e4:	2001      	movs	r0, #1
 80016e6:	4770      	bx	lr
 80016e8:	e000ed00 	.word	0xe000ed00

080016ec <HAL_GPIO_Init>:
 80016ec:	e92d 4ff7 	stmdb	sp!, {r0, r1, r2, r4, r5, r6, r7, r8, r9, sl, fp, lr}
 80016f0:	f8df 9198 	ldr.w	r9, [pc, #408]	@ 800188c <HAL_GPIO_Init+0x1a0>
 80016f4:	4a63      	ldr	r2, [pc, #396]	@ (8001884 <HAL_GPIO_Init+0x198>)
 80016f6:	2300      	movs	r3, #0
 80016f8:	680d      	ldr	r5, [r1, #0]
 80016fa:	2401      	movs	r4, #1
 80016fc:	409c      	lsls	r4, r3
 80016fe:	ea04 0605 	and.w	r6, r4, r5
 8001702:	43ac      	bics	r4, r5
 8001704:	f040 80ab 	bne.w	800185e <HAL_GPIO_Init+0x172>
 8001708:	684d      	ldr	r5, [r1, #4]
 800170a:	2703      	movs	r7, #3
 800170c:	f005 0403 	and.w	r4, r5, #3
 8001710:	ea4f 0843 	mov.w	r8, r3, lsl #1
 8001714:	fa07 fc08 	lsl.w	ip, r7, r8
 8001718:	1e67      	subs	r7, r4, #1
 800171a:	2f01      	cmp	r7, #1
 800171c:	ea6f 0c0c 	mvn.w	ip, ip
 8001720:	d834      	bhi.n	800178c <HAL_GPIO_Init+0xa0>
 8001722:	6887      	ldr	r7, [r0, #8]
 8001724:	ea07 0e0c 	and.w	lr, r7, ip
 8001728:	68cf      	ldr	r7, [r1, #12]
 800172a:	fa07 f708 	lsl.w	r7, r7, r8
 800172e:	ea47 070e 	orr.w	r7, r7, lr
 8001732:	6087      	str	r7, [r0, #8]
 8001734:	6847      	ldr	r7, [r0, #4]
 8001736:	ea27 0e06 	bic.w	lr, r7, r6
 800173a:	f3c5 1700 	ubfx	r7, r5, #4, #1
 800173e:	409f      	lsls	r7, r3
 8001740:	ea47 070e 	orr.w	r7, r7, lr
 8001744:	6047      	str	r7, [r0, #4]
 8001746:	68c7      	ldr	r7, [r0, #12]
 8001748:	ea07 0e0c 	and.w	lr, r7, ip
 800174c:	688f      	ldr	r7, [r1, #8]
 800174e:	fa07 f708 	lsl.w	r7, r7, r8
 8001752:	ea47 070e 	orr.w	r7, r7, lr
 8001756:	2c02      	cmp	r4, #2
 8001758:	60c7      	str	r7, [r0, #12]
 800175a:	d119      	bne.n	8001790 <HAL_GPIO_Init+0xa4>
 800175c:	ea4f 0ad3 	mov.w	sl, r3, lsr #3
 8001760:	eb00 0a8a 	add.w	sl, r0, sl, lsl #2
 8001764:	f003 0b07 	and.w	fp, r3, #7
 8001768:	f8da 7020 	ldr.w	r7, [sl, #32]
 800176c:	ea4f 0b8b 	mov.w	fp, fp, lsl #2
 8001770:	f04f 0e0f 	mov.w	lr, #15
 8001774:	fa0e fe0b 	lsl.w	lr, lr, fp
 8001778:	ea27 0e0e 	bic.w	lr, r7, lr
 800177c:	690f      	ldr	r7, [r1, #16]
 800177e:	fa07 f70b 	lsl.w	r7, r7, fp
 8001782:	ea47 070e 	orr.w	r7, r7, lr
 8001786:	f8ca 7020 	str.w	r7, [sl, #32]
 800178a:	e001      	b.n	8001790 <HAL_GPIO_Init+0xa4>
 800178c:	2c03      	cmp	r4, #3
 800178e:	d1da      	bne.n	8001746 <HAL_GPIO_Init+0x5a>
 8001790:	6807      	ldr	r7, [r0, #0]
 8001792:	fa04 f408 	lsl.w	r4, r4, r8
 8001796:	ea07 070c 	and.w	r7, r7, ip
 800179a:	433c      	orrs	r4, r7
 800179c:	f415 3f40 	tst.w	r5, #196608	@ 0x30000
 80017a0:	6004      	str	r4, [r0, #0]
 80017a2:	d05c      	beq.n	800185e <HAL_GPIO_Init+0x172>
 80017a4:	2400      	movs	r4, #0
 80017a6:	9401      	str	r4, [sp, #4]
 80017a8:	f8d9 4044 	ldr.w	r4, [r9, #68]	@ 0x44
 80017ac:	f444 4480 	orr.w	r4, r4, #16384	@ 0x4000
 80017b0:	f8c9 4044 	str.w	r4, [r9, #68]	@ 0x44
 80017b4:	f8d9 4044 	ldr.w	r4, [r9, #68]	@ 0x44
 80017b8:	f023 0703 	bic.w	r7, r3, #3
 80017bc:	f107 4780 	add.w	r7, r7, #1073741824	@ 0x40000000
 80017c0:	f404 4480 	and.w	r4, r4, #16384	@ 0x4000
 80017c4:	f507 379c 	add.w	r7, r7, #79872	@ 0x13800
 80017c8:	9401      	str	r4, [sp, #4]
 80017ca:	f003 0c03 	and.w	ip, r3, #3
 80017ce:	9c01      	ldr	r4, [sp, #4]
 80017d0:	f8d7 e008 	ldr.w	lr, [r7, #8]
 80017d4:	ea4f 0c8c 	mov.w	ip, ip, lsl #2
 80017d8:	240f      	movs	r4, #15
 80017da:	fa04 f40c 	lsl.w	r4, r4, ip
 80017de:	ea2e 0e04 	bic.w	lr, lr, r4
 80017e2:	4c29      	ldr	r4, [pc, #164]	@ (8001888 <HAL_GPIO_Init+0x19c>)
 80017e4:	42a0      	cmp	r0, r4
 80017e6:	d041      	beq.n	800186c <HAL_GPIO_Init+0x180>
 80017e8:	f504 6480 	add.w	r4, r4, #1024	@ 0x400
 80017ec:	42a0      	cmp	r0, r4
 80017ee:	d03f      	beq.n	8001870 <HAL_GPIO_Init+0x184>
 80017f0:	f504 6480 	add.w	r4, r4, #1024	@ 0x400
 80017f4:	42a0      	cmp	r0, r4
 80017f6:	d03d      	beq.n	8001874 <HAL_GPIO_Init+0x188>
 80017f8:	f504 6480 	add.w	r4, r4, #1024	@ 0x400
 80017fc:	42a0      	cmp	r0, r4
 80017fe:	d03b      	beq.n	8001878 <HAL_GPIO_Init+0x18c>
 8001800:	f504 6480 	add.w	r4, r4, #1024	@ 0x400
 8001804:	42a0      	cmp	r0, r4
 8001806:	d039      	beq.n	800187c <HAL_GPIO_Init+0x190>
 8001808:	f504 6480 	add.w	r4, r4, #1024	@ 0x400
 800180c:	42a0      	cmp	r0, r4
 800180e:	d037      	beq.n	8001880 <HAL_GPIO_Init+0x194>
 8001810:	f504 6480 	add.w	r4, r4, #1024	@ 0x400
 8001814:	42a0      	cmp	r0, r4
 8001816:	bf14      	ite	ne
 8001818:	2407      	movne	r4, #7
 800181a:	2406      	moveq	r4, #6
 800181c:	fa04 f40c 	lsl.w	r4, r4, ip
 8001820:	ea44 040e 	orr.w	r4, r4, lr
 8001824:	60bc      	str	r4, [r7, #8]
 8001826:	6894      	ldr	r4, [r2, #8]
 8001828:	43f7      	mvns	r7, r6
 800182a:	f415 1f80 	tst.w	r5, #1048576	@ 0x100000
 800182e:	bf0c      	ite	eq
 8001830:	403c      	andeq	r4, r7
 8001832:	4334      	orrne	r4, r6
 8001834:	6094      	str	r4, [r2, #8]
 8001836:	68d4      	ldr	r4, [r2, #12]
 8001838:	f415 1f00 	tst.w	r5, #2097152	@ 0x200000
 800183c:	bf0c      	ite	eq
 800183e:	403c      	andeq	r4, r7
 8001840:	4334      	orrne	r4, r6
 8001842:	60d4      	str	r4, [r2, #12]
 8001844:	6854      	ldr	r4, [r2, #4]
 8001846:	f415 3f00 	tst.w	r5, #131072	@ 0x20000
 800184a:	bf0c      	ite	eq
 800184c:	403c      	andeq	r4, r7
 800184e:	4334      	orrne	r4, r6
 8001850:	6054      	str	r4, [r2, #4]
 8001852:	6814      	ldr	r4, [r2, #0]
 8001854:	03ed      	lsls	r5, r5, #15
 8001856:	bf54      	ite	pl
 8001858:	403c      	andpl	r4, r7
 800185a:	4334      	orrmi	r4, r6
 800185c:	6014      	str	r4, [r2, #0]
 800185e:	3301      	adds	r3, #1
 8001860:	2b10      	cmp	r3, #16
 8001862:	f47f af49 	bne.w	80016f8 <HAL_GPIO_Init+0xc>
 8001866:	b003      	add	sp, #12
 8001868:	e8bd 8ff0 	ldmia.w	sp!, {r4, r5, r6, r7, r8, r9, sl, fp, pc}
 800186c:	2400      	movs	r4, #0
 800186e:	e7d5      	b.n	800181c <HAL_GPIO_Init+0x130>
 8001870:	2401      	movs	r4, #1
 8001872:	e7d3      	b.n	800181c <HAL_GPIO_Init+0x130>
 8001874:	2402      	movs	r4, #2
 8001876:	e7d1      	b.n	800181c <HAL_GPIO_Init+0x130>
 8001878:	2403      	movs	r4, #3
 800187a:	e7cf      	b.n	800181c <HAL_GPIO_Init+0x130>
 800187c:	2404      	movs	r4, #4
 800187e:	e7cd      	b.n	800181c <HAL_GPIO_Init+0x130>
 8001880:	2405      	movs	r4, #5
 8001882:	e7cb      	b.n	800181c <HAL_GPIO_Init+0x130>
 8001884:	40013c00 	.word	0x40013c00
 8001888:	40020000 	.word	0x40020000
 800188c:	40023800 	.word	0x40023800

08001890 <HAL_GPIO_WritePin>:
 8001890:	b10a      	cbz	r2, 8001896 <HAL_GPIO_WritePin+0x6>
 8001892:	6181      	str	r1, [r0, #24]
 8001894:	4770      	bx	lr
 8001896:	0409      	lsls	r1, r1, #16
 8001898:	e7fb      	b.n	8001892 <HAL_GPIO_WritePin+0x2>
	...

0800189c <HAL_I2C_Init>:
 800189c:	b570      	push	{r4, r5, r6, lr}
 800189e:	4604      	mov	r4, r0
 80018a0:	b908      	cbnz	r0, 80018a6 <HAL_I2C_Init+0xa>
 80018a2:	2001      	movs	r0, #1
 80018a4:	bd70      	pop	{r4, r5, r6, pc}
 80018a6:	f890 303d 	ldrb.w	r3, [r0, #61]	@ 0x3d
 80018aa:	f003 02ff 	and.w	r2, r3, #255	@ 0xff
 80018ae:	b91b      	cbnz	r3, 80018b8 <HAL_I2C_Init+0x1c>
 80018b0:	f880 203c 	strb.w	r2, [r0, #60]	@ 0x3c
 80018b4:	f7ff fd04 	bl	80012c0 <HAL_I2C_MspInit>
 80018b8:	2324      	movs	r3, #36	@ 0x24
 80018ba:	f884 303d 	strb.w	r3, [r4, #61]	@ 0x3d
 80018be:	6823      	ldr	r3, [r4, #0]
 80018c0:	681a      	ldr	r2, [r3, #0]
 80018c2:	f022 0201 	bic.w	r2, r2, #1
 80018c6:	601a      	str	r2, [r3, #0]
 80018c8:	681a      	ldr	r2, [r3, #0]
 80018ca:	f442 4200 	orr.w	r2, r2, #32768	@ 0x8000
 80018ce:	601a      	str	r2, [r3, #0]
 80018d0:	681a      	ldr	r2, [r3, #0]
 80018d2:	f422 4200 	bic.w	r2, r2, #32768	@ 0x8000
 80018d6:	601a      	str	r2, [r3, #0]
 80018d8:	f000 f922 	bl	8001b20 <HAL_RCC_GetPCLK1Freq>
 80018dc:	4b3f      	ldr	r3, [pc, #252]	@ (80019dc <HAL_I2C_Init+0x140>)
 80018de:	6865      	ldr	r5, [r4, #4]
 80018e0:	429d      	cmp	r5, r3
 80018e2:	bf94      	ite	ls
 80018e4:	4b3e      	ldrls	r3, [pc, #248]	@ (80019e0 <HAL_I2C_Init+0x144>)
 80018e6:	4b3f      	ldrhi	r3, [pc, #252]	@ (80019e4 <HAL_I2C_Init+0x148>)
 80018e8:	4298      	cmp	r0, r3
 80018ea:	bf8c      	ite	hi
 80018ec:	2300      	movhi	r3, #0
 80018ee:	2301      	movls	r3, #1
 80018f0:	2b00      	cmp	r3, #0
 80018f2:	d1d6      	bne.n	80018a2 <HAL_I2C_Init+0x6>
 80018f4:	6822      	ldr	r2, [r4, #0]
 80018f6:	4e39      	ldr	r6, [pc, #228]	@ (80019dc <HAL_I2C_Init+0x140>)
 80018f8:	6851      	ldr	r1, [r2, #4]
 80018fa:	4b3b      	ldr	r3, [pc, #236]	@ (80019e8 <HAL_I2C_Init+0x14c>)
 80018fc:	fbb0 f3f3 	udiv	r3, r0, r3
 8001900:	f021 013f 	bic.w	r1, r1, #63	@ 0x3f
 8001904:	4319      	orrs	r1, r3
 8001906:	42b5      	cmp	r5, r6
 8001908:	6051      	str	r1, [r2, #4]
 800190a:	bf88      	it	hi
 800190c:	f44f 7696 	movhi.w	r6, #300	@ 0x12c
 8001910:	6a11      	ldr	r1, [r2, #32]
 8001912:	bf88      	it	hi
 8001914:	4373      	mulhi	r3, r6
 8001916:	f021 013f 	bic.w	r1, r1, #63	@ 0x3f
 800191a:	bf84      	itt	hi
 800191c:	f44f 767a 	movhi.w	r6, #1000	@ 0x3e8
 8001920:	fbb3 f3f6 	udivhi	r3, r3, r6
 8001924:	3301      	adds	r3, #1
 8001926:	430b      	orrs	r3, r1
 8001928:	6213      	str	r3, [r2, #32]
 800192a:	69d1      	ldr	r1, [r2, #28]
 800192c:	1e43      	subs	r3, r0, #1
 800192e:	482b      	ldr	r0, [pc, #172]	@ (80019dc <HAL_I2C_Init+0x140>)
 8001930:	f421 414f 	bic.w	r1, r1, #52992	@ 0xcf00
 8001934:	4285      	cmp	r5, r0
 8001936:	f021 01ff 	bic.w	r1, r1, #255	@ 0xff
 800193a:	d832      	bhi.n	80019a2 <HAL_I2C_Init+0x106>
 800193c:	006d      	lsls	r5, r5, #1
 800193e:	f640 70fc 	movw	r0, #4092	@ 0xffc
 8001942:	fbb3 f3f5 	udiv	r3, r3, r5
 8001946:	3301      	adds	r3, #1
 8001948:	4203      	tst	r3, r0
 800194a:	d042      	beq.n	80019d2 <HAL_I2C_Init+0x136>
 800194c:	f3c3 030b 	ubfx	r3, r3, #0, #12
 8001950:	4319      	orrs	r1, r3
 8001952:	61d1      	str	r1, [r2, #28]
 8001954:	e9d4 3007 	ldrd	r3, r0, [r4, #28]
 8001958:	6811      	ldr	r1, [r2, #0]
 800195a:	4303      	orrs	r3, r0
 800195c:	f021 01c0 	bic.w	r1, r1, #192	@ 0xc0
 8001960:	430b      	orrs	r3, r1
 8001962:	6013      	str	r3, [r2, #0]
 8001964:	6891      	ldr	r1, [r2, #8]
 8001966:	e9d4 0303 	ldrd	r0, r3, [r4, #12]
 800196a:	f421 4103 	bic.w	r1, r1, #33536	@ 0x8300
 800196e:	4303      	orrs	r3, r0
 8001970:	f021 01ff 	bic.w	r1, r1, #255	@ 0xff
 8001974:	430b      	orrs	r3, r1
 8001976:	6093      	str	r3, [r2, #8]
 8001978:	e9d4 3005 	ldrd	r3, r0, [r4, #20]
 800197c:	68d1      	ldr	r1, [r2, #12]
 800197e:	4303      	orrs	r3, r0
 8001980:	f021 01ff 	bic.w	r1, r1, #255	@ 0xff
 8001984:	430b      	orrs	r3, r1
 8001986:	60d3      	str	r3, [r2, #12]
 8001988:	6813      	ldr	r3, [r2, #0]
 800198a:	f043 0301 	orr.w	r3, r3, #1
 800198e:	6013      	str	r3, [r2, #0]
 8001990:	2000      	movs	r0, #0
 8001992:	2320      	movs	r3, #32
 8001994:	6420      	str	r0, [r4, #64]	@ 0x40
 8001996:	f884 303d 	strb.w	r3, [r4, #61]	@ 0x3d
 800199a:	6320      	str	r0, [r4, #48]	@ 0x30
 800199c:	f884 003e 	strb.w	r0, [r4, #62]	@ 0x3e
 80019a0:	e780      	b.n	80018a4 <HAL_I2C_Init+0x8>
 80019a2:	68a0      	ldr	r0, [r4, #8]
 80019a4:	b950      	cbnz	r0, 80019bc <HAL_I2C_Init+0x120>
 80019a6:	eb05 0545 	add.w	r5, r5, r5, lsl #1
 80019aa:	fbb3 f3f5 	udiv	r3, r3, r5
 80019ae:	3301      	adds	r3, #1
 80019b0:	f3c3 030b 	ubfx	r3, r3, #0, #12
 80019b4:	b17b      	cbz	r3, 80019d6 <HAL_I2C_Init+0x13a>
 80019b6:	f443 4300 	orr.w	r3, r3, #32768	@ 0x8000
 80019ba:	e7c9      	b.n	8001950 <HAL_I2C_Init+0xb4>
 80019bc:	2019      	movs	r0, #25
 80019be:	4368      	muls	r0, r5
 80019c0:	fbb3 f3f0 	udiv	r3, r3, r0
 80019c4:	3301      	adds	r3, #1
 80019c6:	f3c3 030b 	ubfx	r3, r3, #0, #12
 80019ca:	b123      	cbz	r3, 80019d6 <HAL_I2C_Init+0x13a>
 80019cc:	f443 4340 	orr.w	r3, r3, #49152	@ 0xc000
 80019d0:	e7be      	b.n	8001950 <HAL_I2C_Init+0xb4>
 80019d2:	2304      	movs	r3, #4
 80019d4:	e7bc      	b.n	8001950 <HAL_I2C_Init+0xb4>
 80019d6:	2301      	movs	r3, #1
 80019d8:	e7ba      	b.n	8001950 <HAL_I2C_Init+0xb4>
 80019da:	bf00      	nop
 80019dc:	000186a0 	.word	0x000186a0
 80019e0:	001e847f 	.word	0x001e847f
 80019e4:	003d08ff 	.word	0x003d08ff
 80019e8:	000f4240 	.word	0x000f4240

080019ec <HAL_RCC_ClockConfig>:
 80019ec:	e92d 41f0 	stmdb	sp!, {r4, r5, r6, r7, r8, lr}
 80019f0:	460d      	mov	r5, r1
 80019f2:	4604      	mov	r4, r0
 80019f4:	b910      	cbnz	r0, 80019fc <HAL_RCC_ClockConfig+0x10>
 80019f6:	2001      	movs	r0, #1
 80019f8:	e8bd 81f0 	ldmia.w	sp!, {r4, r5, r6, r7, r8, pc}
 80019fc:	4b43      	ldr	r3, [pc, #268]	@ (8001b0c <HAL_RCC_ClockConfig+0x120>)
 80019fe:	681a      	ldr	r2, [r3, #0]
 8001a00:	f002 020f 	and.w	r2, r2, #15
 8001a04:	428a      	cmp	r2, r1
 8001a06:	d328      	bcc.n	8001a5a <HAL_RCC_ClockConfig+0x6e>
 8001a08:	6821      	ldr	r1, [r4, #0]
 8001a0a:	078f      	lsls	r7, r1, #30
 8001a0c:	d42d      	bmi.n	8001a6a <HAL_RCC_ClockConfig+0x7e>
 8001a0e:	07c8      	lsls	r0, r1, #31
 8001a10:	d440      	bmi.n	8001a94 <HAL_RCC_ClockConfig+0xa8>
 8001a12:	4b3e      	ldr	r3, [pc, #248]	@ (8001b0c <HAL_RCC_ClockConfig+0x120>)
 8001a14:	681a      	ldr	r2, [r3, #0]
 8001a16:	f002 020f 	and.w	r2, r2, #15
 8001a1a:	42aa      	cmp	r2, r5
 8001a1c:	d865      	bhi.n	8001aea <HAL_RCC_ClockConfig+0xfe>
 8001a1e:	6822      	ldr	r2, [r4, #0]
 8001a20:	0751      	lsls	r1, r2, #29
 8001a22:	d46b      	bmi.n	8001afc <HAL_RCC_ClockConfig+0x110>
 8001a24:	0713      	lsls	r3, r2, #28
 8001a26:	d507      	bpl.n	8001a38 <HAL_RCC_ClockConfig+0x4c>
 8001a28:	4a39      	ldr	r2, [pc, #228]	@ (8001b10 <HAL_RCC_ClockConfig+0x124>)
 8001a2a:	6921      	ldr	r1, [r4, #16]
 8001a2c:	6893      	ldr	r3, [r2, #8]
 8001a2e:	f423 4360 	bic.w	r3, r3, #57344	@ 0xe000
 8001a32:	ea43 03c1 	orr.w	r3, r3, r1, lsl #3
 8001a36:	6093      	str	r3, [r2, #8]
 8001a38:	f000 f892 	bl	8001b60 <HAL_RCC_GetSysClockFreq>
 8001a3c:	4b34      	ldr	r3, [pc, #208]	@ (8001b10 <HAL_RCC_ClockConfig+0x124>)
 8001a3e:	4a35      	ldr	r2, [pc, #212]	@ (8001b14 <HAL_RCC_ClockConfig+0x128>)
 8001a40:	689b      	ldr	r3, [r3, #8]
 8001a42:	f3c3 1303 	ubfx	r3, r3, #4, #4
 8001a46:	5cd3      	ldrb	r3, [r2, r3]
 8001a48:	40d8      	lsrs	r0, r3
 8001a4a:	4b33      	ldr	r3, [pc, #204]	@ (8001b18 <HAL_RCC_ClockConfig+0x12c>)
 8001a4c:	6018      	str	r0, [r3, #0]
 8001a4e:	4b33      	ldr	r3, [pc, #204]	@ (8001b1c <HAL_RCC_ClockConfig+0x130>)
 8001a50:	6818      	ldr	r0, [r3, #0]
 8001a52:	f7ff fd8f 	bl	8001574 <HAL_InitTick>
 8001a56:	2000      	movs	r0, #0
 8001a58:	e7ce      	b.n	80019f8 <HAL_RCC_ClockConfig+0xc>
 8001a5a:	b2ca      	uxtb	r2, r1
 8001a5c:	701a      	strb	r2, [r3, #0]
 8001a5e:	681b      	ldr	r3, [r3, #0]
 8001a60:	f003 030f 	and.w	r3, r3, #15
 8001a64:	428b      	cmp	r3, r1
 8001a66:	d1c6      	bne.n	80019f6 <HAL_RCC_ClockConfig+0xa>
 8001a68:	e7ce      	b.n	8001a08 <HAL_RCC_ClockConfig+0x1c>
 8001a6a:	4b29      	ldr	r3, [pc, #164]	@ (8001b10 <HAL_RCC_ClockConfig+0x124>)
 8001a6c:	f011 0f04 	tst.w	r1, #4
 8001a70:	bf1e      	ittt	ne
 8001a72:	689a      	ldrne	r2, [r3, #8]
 8001a74:	f442 52e0 	orrne.w	r2, r2, #7168	@ 0x1c00
 8001a78:	609a      	strne	r2, [r3, #8]
 8001a7a:	070e      	lsls	r6, r1, #28
 8001a7c:	bf42      	ittt	mi
 8001a7e:	689a      	ldrmi	r2, [r3, #8]
 8001a80:	f442 4260 	orrmi.w	r2, r2, #57344	@ 0xe000
 8001a84:	609a      	strmi	r2, [r3, #8]
 8001a86:	689a      	ldr	r2, [r3, #8]
 8001a88:	68a0      	ldr	r0, [r4, #8]
 8001a8a:	f022 02f0 	bic.w	r2, r2, #240	@ 0xf0
 8001a8e:	4302      	orrs	r2, r0
 8001a90:	609a      	str	r2, [r3, #8]
 8001a92:	e7bc      	b.n	8001a0e <HAL_RCC_ClockConfig+0x22>
 8001a94:	6862      	ldr	r2, [r4, #4]
 8001a96:	4b1e      	ldr	r3, [pc, #120]	@ (8001b10 <HAL_RCC_ClockConfig+0x124>)
 8001a98:	2a01      	cmp	r2, #1
 8001a9a:	d11c      	bne.n	8001ad6 <HAL_RCC_ClockConfig+0xea>
 8001a9c:	681b      	ldr	r3, [r3, #0]
 8001a9e:	f413 3f00 	tst.w	r3, #131072	@ 0x20000
 8001aa2:	d0a8      	beq.n	80019f6 <HAL_RCC_ClockConfig+0xa>
 8001aa4:	4e1a      	ldr	r6, [pc, #104]	@ (8001b10 <HAL_RCC_ClockConfig+0x124>)
 8001aa6:	68b3      	ldr	r3, [r6, #8]
 8001aa8:	f023 0303 	bic.w	r3, r3, #3
 8001aac:	4313      	orrs	r3, r2
 8001aae:	60b3      	str	r3, [r6, #8]
 8001ab0:	f7ff fdaa 	bl	8001608 <HAL_GetTick>
 8001ab4:	f241 3888 	movw	r8, #5000	@ 0x1388
 8001ab8:	4607      	mov	r7, r0
 8001aba:	68b3      	ldr	r3, [r6, #8]
 8001abc:	6862      	ldr	r2, [r4, #4]
 8001abe:	f003 030c 	and.w	r3, r3, #12
 8001ac2:	ebb3 0f82 	cmp.w	r3, r2, lsl #2
 8001ac6:	d0a4      	beq.n	8001a12 <HAL_RCC_ClockConfig+0x26>
 8001ac8:	f7ff fd9e 	bl	8001608 <HAL_GetTick>
 8001acc:	1bc0      	subs	r0, r0, r7
 8001ace:	4540      	cmp	r0, r8
 8001ad0:	d9f3      	bls.n	8001aba <HAL_RCC_ClockConfig+0xce>
 8001ad2:	2003      	movs	r0, #3
 8001ad4:	e790      	b.n	80019f8 <HAL_RCC_ClockConfig+0xc>
 8001ad6:	1e91      	subs	r1, r2, #2
 8001ad8:	2901      	cmp	r1, #1
 8001ada:	681b      	ldr	r3, [r3, #0]
 8001adc:	d802      	bhi.n	8001ae4 <HAL_RCC_ClockConfig+0xf8>
 8001ade:	f013 7f00 	tst.w	r3, #33554432	@ 0x2000000
 8001ae2:	e7de      	b.n	8001aa2 <HAL_RCC_ClockConfig+0xb6>
 8001ae4:	f013 0f02 	tst.w	r3, #2
 8001ae8:	e7db      	b.n	8001aa2 <HAL_RCC_ClockConfig+0xb6>
 8001aea:	b2ea      	uxtb	r2, r5
 8001aec:	701a      	strb	r2, [r3, #0]
 8001aee:	681b      	ldr	r3, [r3, #0]
 8001af0:	f003 030f 	and.w	r3, r3, #15
 8001af4:	42ab      	cmp	r3, r5
 8001af6:	f47f af7e 	bne.w	80019f6 <HAL_RCC_ClockConfig+0xa>
 8001afa:	e790      	b.n	8001a1e <HAL_RCC_ClockConfig+0x32>
 8001afc:	4904      	ldr	r1, [pc, #16]	@ (8001b10 <HAL_RCC_ClockConfig+0x124>)
 8001afe:	68e0      	ldr	r0, [r4, #12]
 8001b00:	688b      	ldr	r3, [r1, #8]
 8001b02:	f423 53e0 	bic.w	r3, r3, #7168	@ 0x1c00
 8001b06:	4303      	orrs	r3, r0
 8001b08:	608b      	str	r3, [r1, #8]
 8001b0a:	e78b      	b.n	8001a24 <HAL_RCC_ClockConfig+0x38>
 8001b0c:	40023c00 	.word	0x40023c00
 8001b10:	40023800 	.word	0x40023800
 8001b14:	0800266c 	.word	0x0800266c
 8001b18:	20000000 	.word	0x20000000
 8001b1c:	20000008 	.word	0x20000008

08001b20 <HAL_RCC_GetPCLK1Freq>:
 8001b20:	4b04      	ldr	r3, [pc, #16]	@ (8001b34 <HAL_RCC_GetPCLK1Freq+0x14>)
 8001b22:	4a05      	ldr	r2, [pc, #20]	@ (8001b38 <HAL_RCC_GetPCLK1Freq+0x18>)
 8001b24:	689b      	ldr	r3, [r3, #8]
 8001b26:	f3c3 2382 	ubfx	r3, r3, #10, #3
 8001b2a:	5cd3      	ldrb	r3, [r2, r3]
 8001b2c:	4a03      	ldr	r2, [pc, #12]	@ (8001b3c <HAL_RCC_GetPCLK1Freq+0x1c>)
 8001b2e:	6810      	ldr	r0, [r2, #0]
 8001b30:	40d8      	lsrs	r0, r3
 8001b32:	4770      	bx	lr
 8001b34:	40023800 	.word	0x40023800
 8001b38:	08002664 	.word	0x08002664
 8001b3c:	20000000 	.word	0x20000000

08001b40 <HAL_RCC_GetPCLK2Freq>:
 8001b40:	4b04      	ldr	r3, [pc, #16]	@ (8001b54 <HAL_RCC_GetPCLK2Freq+0x14>)
 8001b42:	4a05      	ldr	r2, [pc, #20]	@ (8001b58 <HAL_RCC_GetPCLK2Freq+0x18>)
 8001b44:	689b      	ldr	r3, [r3, #8]
 8001b46:	f3c3 3342 	ubfx	r3, r3, #13, #3
 8001b4a:	5cd3      	ldrb	r3, [r2, r3]
 8001b4c:	4a03      	ldr	r2, [pc, #12]	@ (8001b5c <HAL_RCC_GetPCLK2Freq+0x1c>)
 8001b4e:	6810      	ldr	r0, [r2, #0]
 8001b50:	40d8      	lsrs	r0, r3
 8001b52:	4770      	bx	lr
 8001b54:	40023800 	.word	0x40023800
 8001b58:	08002664 	.word	0x08002664
 8001b5c:	20000000 	.word	0x20000000

08001b60 <HAL_RCC_GetSysClockFreq>:
 8001b60:	4920      	ldr	r1, [pc, #128]	@ (8001be4 <HAL_RCC_GetSysClockFreq+0x84>)
 8001b62:	b508      	push	{r3, lr}
 8001b64:	688b      	ldr	r3, [r1, #8]
 8001b66:	f003 030c 	and.w	r3, r3, #12
 8001b6a:	2b08      	cmp	r3, #8
 8001b6c:	d007      	beq.n	8001b7e <HAL_RCC_GetSysClockFreq+0x1e>
 8001b6e:	2b0c      	cmp	r3, #12
 8001b70:	d020      	beq.n	8001bb4 <HAL_RCC_GetSysClockFreq+0x54>
 8001b72:	481d      	ldr	r0, [pc, #116]	@ (8001be8 <HAL_RCC_GetSysClockFreq+0x88>)
 8001b74:	4a1d      	ldr	r2, [pc, #116]	@ (8001bec <HAL_RCC_GetSysClockFreq+0x8c>)
 8001b76:	2b04      	cmp	r3, #4
 8001b78:	bf18      	it	ne
 8001b7a:	4610      	movne	r0, r2
 8001b7c:	bd08      	pop	{r3, pc}
 8001b7e:	684a      	ldr	r2, [r1, #4]
 8001b80:	684b      	ldr	r3, [r1, #4]
 8001b82:	6849      	ldr	r1, [r1, #4]
 8001b84:	f413 0380 	ands.w	r3, r3, #4194304	@ 0x400000
 8001b88:	bf14      	ite	ne
 8001b8a:	4817      	ldrne	r0, [pc, #92]	@ (8001be8 <HAL_RCC_GetSysClockFreq+0x88>)
 8001b8c:	4817      	ldreq	r0, [pc, #92]	@ (8001bec <HAL_RCC_GetSysClockFreq+0x8c>)
 8001b8e:	f3c1 1188 	ubfx	r1, r1, #6, #9
 8001b92:	bf18      	it	ne
 8001b94:	2300      	movne	r3, #0
 8001b96:	f002 023f 	and.w	r2, r2, #63	@ 0x3f
 8001b9a:	fba1 0100 	umull	r0, r1, r1, r0
 8001b9e:	f7fe ff1f 	bl	80009e0 <__aeabi_uldivmod>
 8001ba2:	4b10      	ldr	r3, [pc, #64]	@ (8001be4 <HAL_RCC_GetSysClockFreq+0x84>)
 8001ba4:	685b      	ldr	r3, [r3, #4]
 8001ba6:	f3c3 4301 	ubfx	r3, r3, #16, #2
 8001baa:	3301      	adds	r3, #1
 8001bac:	005b      	lsls	r3, r3, #1
 8001bae:	fbb0 f0f3 	udiv	r0, r0, r3
 8001bb2:	e7e3      	b.n	8001b7c <HAL_RCC_GetSysClockFreq+0x1c>
 8001bb4:	684a      	ldr	r2, [r1, #4]
 8001bb6:	684b      	ldr	r3, [r1, #4]
 8001bb8:	6849      	ldr	r1, [r1, #4]
 8001bba:	f413 0380 	ands.w	r3, r3, #4194304	@ 0x400000
 8001bbe:	bf14      	ite	ne
 8001bc0:	4809      	ldrne	r0, [pc, #36]	@ (8001be8 <HAL_RCC_GetSysClockFreq+0x88>)
 8001bc2:	480a      	ldreq	r0, [pc, #40]	@ (8001bec <HAL_RCC_GetSysClockFreq+0x8c>)
 8001bc4:	f3c1 1188 	ubfx	r1, r1, #6, #9
 8001bc8:	bf18      	it	ne
 8001bca:	2300      	movne	r3, #0
 8001bcc:	f002 023f 	and.w	r2, r2, #63	@ 0x3f
 8001bd0:	fba1 0100 	umull	r0, r1, r1, r0
 8001bd4:	f7fe ff04 	bl	80009e0 <__aeabi_uldivmod>
 8001bd8:	4b02      	ldr	r3, [pc, #8]	@ (8001be4 <HAL_RCC_GetSysClockFreq+0x84>)
 8001bda:	685b      	ldr	r3, [r3, #4]
 8001bdc:	f3c3 7302 	ubfx	r3, r3, #28, #3
 8001be0:	e7e5      	b.n	8001bae <HAL_RCC_GetSysClockFreq+0x4e>
 8001be2:	bf00      	nop
 8001be4:	40023800 	.word	0x40023800
 8001be8:	017d7840 	.word	0x017d7840
 8001bec:	00f42400 	.word	0x00f42400

08001bf0 <HAL_RCC_OscConfig>:
 8001bf0:	e92d 41f3 	stmdb	sp!, {r0, r1, r4, r5, r6, r7, r8, lr}
 8001bf4:	4604      	mov	r4, r0
 8001bf6:	2800      	cmp	r0, #0
 8001bf8:	d031      	beq.n	8001c5e <HAL_RCC_OscConfig+0x6e>
 8001bfa:	6803      	ldr	r3, [r0, #0]
 8001bfc:	07df      	lsls	r7, r3, #31
 8001bfe:	d410      	bmi.n	8001c22 <HAL_RCC_OscConfig+0x32>
 8001c00:	6823      	ldr	r3, [r4, #0]
 8001c02:	079e      	lsls	r6, r3, #30
 8001c04:	d467      	bmi.n	8001cd6 <HAL_RCC_OscConfig+0xe6>
 8001c06:	6823      	ldr	r3, [r4, #0]
 8001c08:	0719      	lsls	r1, r3, #28
 8001c0a:	f100 80b2 	bmi.w	8001d72 <HAL_RCC_OscConfig+0x182>
 8001c0e:	6823      	ldr	r3, [r4, #0]
 8001c10:	075a      	lsls	r2, r3, #29
 8001c12:	f100 80d2 	bmi.w	8001dba <HAL_RCC_OscConfig+0x1ca>
 8001c16:	69a3      	ldr	r3, [r4, #24]
 8001c18:	2b00      	cmp	r3, #0
 8001c1a:	f040 8139 	bne.w	8001e90 <HAL_RCC_OscConfig+0x2a0>
 8001c1e:	2000      	movs	r0, #0
 8001c20:	e034      	b.n	8001c8c <HAL_RCC_OscConfig+0x9c>
 8001c22:	4b98      	ldr	r3, [pc, #608]	@ (8001e84 <HAL_RCC_OscConfig+0x294>)
 8001c24:	689a      	ldr	r2, [r3, #8]
 8001c26:	f002 020c 	and.w	r2, r2, #12
 8001c2a:	2a04      	cmp	r2, #4
 8001c2c:	d010      	beq.n	8001c50 <HAL_RCC_OscConfig+0x60>
 8001c2e:	689a      	ldr	r2, [r3, #8]
 8001c30:	f002 020c 	and.w	r2, r2, #12
 8001c34:	2a08      	cmp	r2, #8
 8001c36:	d102      	bne.n	8001c3e <HAL_RCC_OscConfig+0x4e>
 8001c38:	685b      	ldr	r3, [r3, #4]
 8001c3a:	025d      	lsls	r5, r3, #9
 8001c3c:	d408      	bmi.n	8001c50 <HAL_RCC_OscConfig+0x60>
 8001c3e:	4b91      	ldr	r3, [pc, #580]	@ (8001e84 <HAL_RCC_OscConfig+0x294>)
 8001c40:	689a      	ldr	r2, [r3, #8]
 8001c42:	f002 020c 	and.w	r2, r2, #12
 8001c46:	2a0c      	cmp	r2, #12
 8001c48:	d10b      	bne.n	8001c62 <HAL_RCC_OscConfig+0x72>
 8001c4a:	685a      	ldr	r2, [r3, #4]
 8001c4c:	0251      	lsls	r1, r2, #9
 8001c4e:	d508      	bpl.n	8001c62 <HAL_RCC_OscConfig+0x72>
 8001c50:	4b8c      	ldr	r3, [pc, #560]	@ (8001e84 <HAL_RCC_OscConfig+0x294>)
 8001c52:	681b      	ldr	r3, [r3, #0]
 8001c54:	039a      	lsls	r2, r3, #14
 8001c56:	d5d3      	bpl.n	8001c00 <HAL_RCC_OscConfig+0x10>
 8001c58:	6863      	ldr	r3, [r4, #4]
 8001c5a:	2b00      	cmp	r3, #0
 8001c5c:	d1d0      	bne.n	8001c00 <HAL_RCC_OscConfig+0x10>
 8001c5e:	2001      	movs	r0, #1
 8001c60:	e014      	b.n	8001c8c <HAL_RCC_OscConfig+0x9c>
 8001c62:	6862      	ldr	r2, [r4, #4]
 8001c64:	f5b2 3f80 	cmp.w	r2, #65536	@ 0x10000
 8001c68:	d113      	bne.n	8001c92 <HAL_RCC_OscConfig+0xa2>
 8001c6a:	681a      	ldr	r2, [r3, #0]
 8001c6c:	f442 3280 	orr.w	r2, r2, #65536	@ 0x10000
 8001c70:	601a      	str	r2, [r3, #0]
 8001c72:	f7ff fcc9 	bl	8001608 <HAL_GetTick>
 8001c76:	4e83      	ldr	r6, [pc, #524]	@ (8001e84 <HAL_RCC_OscConfig+0x294>)
 8001c78:	4605      	mov	r5, r0
 8001c7a:	6833      	ldr	r3, [r6, #0]
 8001c7c:	039b      	lsls	r3, r3, #14
 8001c7e:	d4bf      	bmi.n	8001c00 <HAL_RCC_OscConfig+0x10>
 8001c80:	f7ff fcc2 	bl	8001608 <HAL_GetTick>
 8001c84:	1b40      	subs	r0, r0, r5
 8001c86:	2864      	cmp	r0, #100	@ 0x64
 8001c88:	d9f7      	bls.n	8001c7a <HAL_RCC_OscConfig+0x8a>
 8001c8a:	2003      	movs	r0, #3
 8001c8c:	b002      	add	sp, #8
 8001c8e:	e8bd 81f0 	ldmia.w	sp!, {r4, r5, r6, r7, r8, pc}
 8001c92:	4d7c      	ldr	r5, [pc, #496]	@ (8001e84 <HAL_RCC_OscConfig+0x294>)
 8001c94:	f5b2 2fa0 	cmp.w	r2, #327680	@ 0x50000
 8001c98:	682b      	ldr	r3, [r5, #0]
 8001c9a:	d107      	bne.n	8001cac <HAL_RCC_OscConfig+0xbc>
 8001c9c:	f443 2380 	orr.w	r3, r3, #262144	@ 0x40000
 8001ca0:	602b      	str	r3, [r5, #0]
 8001ca2:	682b      	ldr	r3, [r5, #0]
 8001ca4:	f443 3380 	orr.w	r3, r3, #65536	@ 0x10000
 8001ca8:	602b      	str	r3, [r5, #0]
 8001caa:	e7e2      	b.n	8001c72 <HAL_RCC_OscConfig+0x82>
 8001cac:	f423 3380 	bic.w	r3, r3, #65536	@ 0x10000
 8001cb0:	602b      	str	r3, [r5, #0]
 8001cb2:	682b      	ldr	r3, [r5, #0]
 8001cb4:	f423 2380 	bic.w	r3, r3, #262144	@ 0x40000
 8001cb8:	602b      	str	r3, [r5, #0]
 8001cba:	2a00      	cmp	r2, #0
 8001cbc:	d1d9      	bne.n	8001c72 <HAL_RCC_OscConfig+0x82>
 8001cbe:	f7ff fca3 	bl	8001608 <HAL_GetTick>
 8001cc2:	4606      	mov	r6, r0
 8001cc4:	682b      	ldr	r3, [r5, #0]
 8001cc6:	039f      	lsls	r7, r3, #14
 8001cc8:	d59a      	bpl.n	8001c00 <HAL_RCC_OscConfig+0x10>
 8001cca:	f7ff fc9d 	bl	8001608 <HAL_GetTick>
 8001cce:	1b80      	subs	r0, r0, r6
 8001cd0:	2864      	cmp	r0, #100	@ 0x64
 8001cd2:	d9f7      	bls.n	8001cc4 <HAL_RCC_OscConfig+0xd4>
 8001cd4:	e7d9      	b.n	8001c8a <HAL_RCC_OscConfig+0x9a>
 8001cd6:	4b6b      	ldr	r3, [pc, #428]	@ (8001e84 <HAL_RCC_OscConfig+0x294>)
 8001cd8:	689a      	ldr	r2, [r3, #8]
 8001cda:	f012 0f0c 	tst.w	r2, #12
 8001cde:	d010      	beq.n	8001d02 <HAL_RCC_OscConfig+0x112>
 8001ce0:	689a      	ldr	r2, [r3, #8]
 8001ce2:	f002 020c 	and.w	r2, r2, #12
 8001ce6:	2a08      	cmp	r2, #8
 8001ce8:	d102      	bne.n	8001cf0 <HAL_RCC_OscConfig+0x100>
 8001cea:	685b      	ldr	r3, [r3, #4]
 8001cec:	025e      	lsls	r6, r3, #9
 8001cee:	d508      	bpl.n	8001d02 <HAL_RCC_OscConfig+0x112>
 8001cf0:	4a64      	ldr	r2, [pc, #400]	@ (8001e84 <HAL_RCC_OscConfig+0x294>)
 8001cf2:	6893      	ldr	r3, [r2, #8]
 8001cf4:	f003 030c 	and.w	r3, r3, #12
 8001cf8:	2b0c      	cmp	r3, #12
 8001cfa:	d111      	bne.n	8001d20 <HAL_RCC_OscConfig+0x130>
 8001cfc:	6853      	ldr	r3, [r2, #4]
 8001cfe:	025d      	lsls	r5, r3, #9
 8001d00:	d40e      	bmi.n	8001d20 <HAL_RCC_OscConfig+0x130>
 8001d02:	4a60      	ldr	r2, [pc, #384]	@ (8001e84 <HAL_RCC_OscConfig+0x294>)
 8001d04:	6813      	ldr	r3, [r2, #0]
 8001d06:	0799      	lsls	r1, r3, #30
 8001d08:	d502      	bpl.n	8001d10 <HAL_RCC_OscConfig+0x120>
 8001d0a:	68e3      	ldr	r3, [r4, #12]
 8001d0c:	2b01      	cmp	r3, #1
 8001d0e:	d1a6      	bne.n	8001c5e <HAL_RCC_OscConfig+0x6e>
 8001d10:	6813      	ldr	r3, [r2, #0]
 8001d12:	6921      	ldr	r1, [r4, #16]
 8001d14:	f023 03f8 	bic.w	r3, r3, #248	@ 0xf8
 8001d18:	ea43 03c1 	orr.w	r3, r3, r1, lsl #3
 8001d1c:	6013      	str	r3, [r2, #0]
 8001d1e:	e772      	b.n	8001c06 <HAL_RCC_OscConfig+0x16>
 8001d20:	68e2      	ldr	r2, [r4, #12]
 8001d22:	4b59      	ldr	r3, [pc, #356]	@ (8001e88 <HAL_RCC_OscConfig+0x298>)
 8001d24:	b1b2      	cbz	r2, 8001d54 <HAL_RCC_OscConfig+0x164>
 8001d26:	2201      	movs	r2, #1
 8001d28:	601a      	str	r2, [r3, #0]
 8001d2a:	f7ff fc6d 	bl	8001608 <HAL_GetTick>
 8001d2e:	4d55      	ldr	r5, [pc, #340]	@ (8001e84 <HAL_RCC_OscConfig+0x294>)
 8001d30:	4606      	mov	r6, r0
 8001d32:	682b      	ldr	r3, [r5, #0]
 8001d34:	079b      	lsls	r3, r3, #30
 8001d36:	d507      	bpl.n	8001d48 <HAL_RCC_OscConfig+0x158>
 8001d38:	682b      	ldr	r3, [r5, #0]
 8001d3a:	6922      	ldr	r2, [r4, #16]
 8001d3c:	f023 03f8 	bic.w	r3, r3, #248	@ 0xf8
 8001d40:	ea43 03c2 	orr.w	r3, r3, r2, lsl #3
 8001d44:	602b      	str	r3, [r5, #0]
 8001d46:	e75e      	b.n	8001c06 <HAL_RCC_OscConfig+0x16>
 8001d48:	f7ff fc5e 	bl	8001608 <HAL_GetTick>
 8001d4c:	1b80      	subs	r0, r0, r6
 8001d4e:	2802      	cmp	r0, #2
 8001d50:	d9ef      	bls.n	8001d32 <HAL_RCC_OscConfig+0x142>
 8001d52:	e79a      	b.n	8001c8a <HAL_RCC_OscConfig+0x9a>
 8001d54:	601a      	str	r2, [r3, #0]
 8001d56:	f7ff fc57 	bl	8001608 <HAL_GetTick>
 8001d5a:	4e4a      	ldr	r6, [pc, #296]	@ (8001e84 <HAL_RCC_OscConfig+0x294>)
 8001d5c:	4605      	mov	r5, r0
 8001d5e:	6833      	ldr	r3, [r6, #0]
 8001d60:	079f      	lsls	r7, r3, #30
 8001d62:	f57f af50 	bpl.w	8001c06 <HAL_RCC_OscConfig+0x16>
 8001d66:	f7ff fc4f 	bl	8001608 <HAL_GetTick>
 8001d6a:	1b40      	subs	r0, r0, r5
 8001d6c:	2802      	cmp	r0, #2
 8001d6e:	d9f6      	bls.n	8001d5e <HAL_RCC_OscConfig+0x16e>
 8001d70:	e78b      	b.n	8001c8a <HAL_RCC_OscConfig+0x9a>
 8001d72:	6962      	ldr	r2, [r4, #20]
 8001d74:	4b44      	ldr	r3, [pc, #272]	@ (8001e88 <HAL_RCC_OscConfig+0x298>)
 8001d76:	b182      	cbz	r2, 8001d9a <HAL_RCC_OscConfig+0x1aa>
 8001d78:	2201      	movs	r2, #1
 8001d7a:	f8c3 2e80 	str.w	r2, [r3, #3712]	@ 0xe80
 8001d7e:	f7ff fc43 	bl	8001608 <HAL_GetTick>
 8001d82:	4e40      	ldr	r6, [pc, #256]	@ (8001e84 <HAL_RCC_OscConfig+0x294>)
 8001d84:	4605      	mov	r5, r0
 8001d86:	6f73      	ldr	r3, [r6, #116]	@ 0x74
 8001d88:	079b      	lsls	r3, r3, #30
 8001d8a:	f53f af40 	bmi.w	8001c0e <HAL_RCC_OscConfig+0x1e>
 8001d8e:	f7ff fc3b 	bl	8001608 <HAL_GetTick>
 8001d92:	1b40      	subs	r0, r0, r5
 8001d94:	2802      	cmp	r0, #2
 8001d96:	d9f6      	bls.n	8001d86 <HAL_RCC_OscConfig+0x196>
 8001d98:	e777      	b.n	8001c8a <HAL_RCC_OscConfig+0x9a>
 8001d9a:	f8c3 2e80 	str.w	r2, [r3, #3712]	@ 0xe80
 8001d9e:	f7ff fc33 	bl	8001608 <HAL_GetTick>
 8001da2:	4e38      	ldr	r6, [pc, #224]	@ (8001e84 <HAL_RCC_OscConfig+0x294>)
 8001da4:	4605      	mov	r5, r0
 8001da6:	6f73      	ldr	r3, [r6, #116]	@ 0x74
 8001da8:	079f      	lsls	r7, r3, #30
 8001daa:	f57f af30 	bpl.w	8001c0e <HAL_RCC_OscConfig+0x1e>
 8001dae:	f7ff fc2b 	bl	8001608 <HAL_GetTick>
 8001db2:	1b40      	subs	r0, r0, r5
 8001db4:	2802      	cmp	r0, #2
 8001db6:	d9f6      	bls.n	8001da6 <HAL_RCC_OscConfig+0x1b6>
 8001db8:	e767      	b.n	8001c8a <HAL_RCC_OscConfig+0x9a>
 8001dba:	4b32      	ldr	r3, [pc, #200]	@ (8001e84 <HAL_RCC_OscConfig+0x294>)
 8001dbc:	6c1a      	ldr	r2, [r3, #64]	@ 0x40
 8001dbe:	f012 5280 	ands.w	r2, r2, #268435456	@ 0x10000000
 8001dc2:	d128      	bne.n	8001e16 <HAL_RCC_OscConfig+0x226>
 8001dc4:	9201      	str	r2, [sp, #4]
 8001dc6:	6c1a      	ldr	r2, [r3, #64]	@ 0x40
 8001dc8:	f042 5280 	orr.w	r2, r2, #268435456	@ 0x10000000
 8001dcc:	641a      	str	r2, [r3, #64]	@ 0x40
 8001dce:	6c1b      	ldr	r3, [r3, #64]	@ 0x40
 8001dd0:	f003 5380 	and.w	r3, r3, #268435456	@ 0x10000000
 8001dd4:	9301      	str	r3, [sp, #4]
 8001dd6:	9b01      	ldr	r3, [sp, #4]
 8001dd8:	2701      	movs	r7, #1
 8001dda:	4d2c      	ldr	r5, [pc, #176]	@ (8001e8c <HAL_RCC_OscConfig+0x29c>)
 8001ddc:	682b      	ldr	r3, [r5, #0]
 8001dde:	05d8      	lsls	r0, r3, #23
 8001de0:	d51b      	bpl.n	8001e1a <HAL_RCC_OscConfig+0x22a>
 8001de2:	68a3      	ldr	r3, [r4, #8]
 8001de4:	4d27      	ldr	r5, [pc, #156]	@ (8001e84 <HAL_RCC_OscConfig+0x294>)
 8001de6:	2b01      	cmp	r3, #1
 8001de8:	d127      	bne.n	8001e3a <HAL_RCC_OscConfig+0x24a>
 8001dea:	6f2b      	ldr	r3, [r5, #112]	@ 0x70
 8001dec:	f043 0301 	orr.w	r3, r3, #1
 8001df0:	672b      	str	r3, [r5, #112]	@ 0x70
 8001df2:	f7ff fc09 	bl	8001608 <HAL_GetTick>
 8001df6:	4e23      	ldr	r6, [pc, #140]	@ (8001e84 <HAL_RCC_OscConfig+0x294>)
 8001df8:	4605      	mov	r5, r0
 8001dfa:	f241 3888 	movw	r8, #5000	@ 0x1388
 8001dfe:	6f33      	ldr	r3, [r6, #112]	@ 0x70
 8001e00:	079a      	lsls	r2, r3, #30
 8001e02:	d539      	bpl.n	8001e78 <HAL_RCC_OscConfig+0x288>
 8001e04:	2f00      	cmp	r7, #0
 8001e06:	f43f af06 	beq.w	8001c16 <HAL_RCC_OscConfig+0x26>
 8001e0a:	4a1e      	ldr	r2, [pc, #120]	@ (8001e84 <HAL_RCC_OscConfig+0x294>)
 8001e0c:	6c13      	ldr	r3, [r2, #64]	@ 0x40
 8001e0e:	f023 5380 	bic.w	r3, r3, #268435456	@ 0x10000000
 8001e12:	6413      	str	r3, [r2, #64]	@ 0x40
 8001e14:	e6ff      	b.n	8001c16 <HAL_RCC_OscConfig+0x26>
 8001e16:	2700      	movs	r7, #0
 8001e18:	e7df      	b.n	8001dda <HAL_RCC_OscConfig+0x1ea>
 8001e1a:	682b      	ldr	r3, [r5, #0]
 8001e1c:	f443 7380 	orr.w	r3, r3, #256	@ 0x100
 8001e20:	602b      	str	r3, [r5, #0]
 8001e22:	f7ff fbf1 	bl	8001608 <HAL_GetTick>
 8001e26:	4606      	mov	r6, r0
 8001e28:	682b      	ldr	r3, [r5, #0]
 8001e2a:	05d9      	lsls	r1, r3, #23
 8001e2c:	d4d9      	bmi.n	8001de2 <HAL_RCC_OscConfig+0x1f2>
 8001e2e:	f7ff fbeb 	bl	8001608 <HAL_GetTick>
 8001e32:	1b80      	subs	r0, r0, r6
 8001e34:	2802      	cmp	r0, #2
 8001e36:	d9f7      	bls.n	8001e28 <HAL_RCC_OscConfig+0x238>
 8001e38:	e727      	b.n	8001c8a <HAL_RCC_OscConfig+0x9a>
 8001e3a:	2b05      	cmp	r3, #5
 8001e3c:	d104      	bne.n	8001e48 <HAL_RCC_OscConfig+0x258>
 8001e3e:	6f2b      	ldr	r3, [r5, #112]	@ 0x70
 8001e40:	f043 0304 	orr.w	r3, r3, #4
 8001e44:	672b      	str	r3, [r5, #112]	@ 0x70
 8001e46:	e7d0      	b.n	8001dea <HAL_RCC_OscConfig+0x1fa>
 8001e48:	6f2a      	ldr	r2, [r5, #112]	@ 0x70
 8001e4a:	f022 0201 	bic.w	r2, r2, #1
 8001e4e:	672a      	str	r2, [r5, #112]	@ 0x70
 8001e50:	6f2a      	ldr	r2, [r5, #112]	@ 0x70
 8001e52:	f022 0204 	bic.w	r2, r2, #4
 8001e56:	672a      	str	r2, [r5, #112]	@ 0x70
 8001e58:	2b00      	cmp	r3, #0
 8001e5a:	d1ca      	bne.n	8001df2 <HAL_RCC_OscConfig+0x202>
 8001e5c:	f7ff fbd4 	bl	8001608 <HAL_GetTick>
 8001e60:	f241 3888 	movw	r8, #5000	@ 0x1388
 8001e64:	4606      	mov	r6, r0
 8001e66:	6f2b      	ldr	r3, [r5, #112]	@ 0x70
 8001e68:	079b      	lsls	r3, r3, #30
 8001e6a:	d5cb      	bpl.n	8001e04 <HAL_RCC_OscConfig+0x214>
 8001e6c:	f7ff fbcc 	bl	8001608 <HAL_GetTick>
 8001e70:	1b80      	subs	r0, r0, r6
 8001e72:	4540      	cmp	r0, r8
 8001e74:	d9f7      	bls.n	8001e66 <HAL_RCC_OscConfig+0x276>
 8001e76:	e708      	b.n	8001c8a <HAL_RCC_OscConfig+0x9a>
 8001e78:	f7ff fbc6 	bl	8001608 <HAL_GetTick>
 8001e7c:	1b40      	subs	r0, r0, r5
 8001e7e:	4540      	cmp	r0, r8
 8001e80:	d9bd      	bls.n	8001dfe <HAL_RCC_OscConfig+0x20e>
 8001e82:	e702      	b.n	8001c8a <HAL_RCC_OscConfig+0x9a>
 8001e84:	40023800 	.word	0x40023800
 8001e88:	42470000 	.word	0x42470000
 8001e8c:	40007000 	.word	0x40007000
 8001e90:	4d3c      	ldr	r5, [pc, #240]	@ (8001f84 <HAL_RCC_OscConfig+0x394>)
 8001e92:	68aa      	ldr	r2, [r5, #8]
 8001e94:	f002 020c 	and.w	r2, r2, #12
 8001e98:	2a08      	cmp	r2, #8
 8001e9a:	d041      	beq.n	8001f20 <HAL_RCC_OscConfig+0x330>
 8001e9c:	2b02      	cmp	r3, #2
 8001e9e:	4b3a      	ldr	r3, [pc, #232]	@ (8001f88 <HAL_RCC_OscConfig+0x398>)
 8001ea0:	f04f 0200 	mov.w	r2, #0
 8001ea4:	661a      	str	r2, [r3, #96]	@ 0x60
 8001ea6:	d12e      	bne.n	8001f06 <HAL_RCC_OscConfig+0x316>
 8001ea8:	f7ff fbae 	bl	8001608 <HAL_GetTick>
 8001eac:	4606      	mov	r6, r0
 8001eae:	682b      	ldr	r3, [r5, #0]
 8001eb0:	0199      	lsls	r1, r3, #6
 8001eb2:	d422      	bmi.n	8001efa <HAL_RCC_OscConfig+0x30a>
 8001eb4:	e9d4 3207 	ldrd	r3, r2, [r4, #28]
 8001eb8:	4313      	orrs	r3, r2
 8001eba:	6a62      	ldr	r2, [r4, #36]	@ 0x24
 8001ebc:	ea43 1382 	orr.w	r3, r3, r2, lsl #6
 8001ec0:	6ae2      	ldr	r2, [r4, #44]	@ 0x2c
 8001ec2:	ea43 6302 	orr.w	r3, r3, r2, lsl #24
 8001ec6:	6b22      	ldr	r2, [r4, #48]	@ 0x30
 8001ec8:	ea43 7302 	orr.w	r3, r3, r2, lsl #28
 8001ecc:	6aa2      	ldr	r2, [r4, #40]	@ 0x28
 8001ece:	0852      	lsrs	r2, r2, #1
 8001ed0:	3a01      	subs	r2, #1
 8001ed2:	ea43 4302 	orr.w	r3, r3, r2, lsl #16
 8001ed6:	606b      	str	r3, [r5, #4]
 8001ed8:	4b2b      	ldr	r3, [pc, #172]	@ (8001f88 <HAL_RCC_OscConfig+0x398>)
 8001eda:	4d2a      	ldr	r5, [pc, #168]	@ (8001f84 <HAL_RCC_OscConfig+0x394>)
 8001edc:	2201      	movs	r2, #1
 8001ede:	661a      	str	r2, [r3, #96]	@ 0x60
 8001ee0:	f7ff fb92 	bl	8001608 <HAL_GetTick>
 8001ee4:	4604      	mov	r4, r0
 8001ee6:	682b      	ldr	r3, [r5, #0]
 8001ee8:	019a      	lsls	r2, r3, #6
 8001eea:	f53f ae98 	bmi.w	8001c1e <HAL_RCC_OscConfig+0x2e>
 8001eee:	f7ff fb8b 	bl	8001608 <HAL_GetTick>
 8001ef2:	1b00      	subs	r0, r0, r4
 8001ef4:	2802      	cmp	r0, #2
 8001ef6:	d9f6      	bls.n	8001ee6 <HAL_RCC_OscConfig+0x2f6>
 8001ef8:	e6c7      	b.n	8001c8a <HAL_RCC_OscConfig+0x9a>
 8001efa:	f7ff fb85 	bl	8001608 <HAL_GetTick>
 8001efe:	1b80      	subs	r0, r0, r6
 8001f00:	2802      	cmp	r0, #2
 8001f02:	d9d4      	bls.n	8001eae <HAL_RCC_OscConfig+0x2be>
 8001f04:	e6c1      	b.n	8001c8a <HAL_RCC_OscConfig+0x9a>
 8001f06:	f7ff fb7f 	bl	8001608 <HAL_GetTick>
 8001f0a:	4604      	mov	r4, r0
 8001f0c:	682b      	ldr	r3, [r5, #0]
 8001f0e:	019b      	lsls	r3, r3, #6
 8001f10:	f57f ae85 	bpl.w	8001c1e <HAL_RCC_OscConfig+0x2e>
 8001f14:	f7ff fb78 	bl	8001608 <HAL_GetTick>
 8001f18:	1b00      	subs	r0, r0, r4
 8001f1a:	2802      	cmp	r0, #2
 8001f1c:	d9f6      	bls.n	8001f0c <HAL_RCC_OscConfig+0x31c>
 8001f1e:	e6b4      	b.n	8001c8a <HAL_RCC_OscConfig+0x9a>
 8001f20:	2b01      	cmp	r3, #1
 8001f22:	f43f ae9c 	beq.w	8001c5e <HAL_RCC_OscConfig+0x6e>
 8001f26:	686b      	ldr	r3, [r5, #4]
 8001f28:	69e2      	ldr	r2, [r4, #28]
 8001f2a:	f403 0180 	and.w	r1, r3, #4194304	@ 0x400000
 8001f2e:	4291      	cmp	r1, r2
 8001f30:	f47f ae95 	bne.w	8001c5e <HAL_RCC_OscConfig+0x6e>
 8001f34:	6a21      	ldr	r1, [r4, #32]
 8001f36:	f003 023f 	and.w	r2, r3, #63	@ 0x3f
 8001f3a:	428a      	cmp	r2, r1
 8001f3c:	f47f ae8f 	bne.w	8001c5e <HAL_RCC_OscConfig+0x6e>
 8001f40:	6a61      	ldr	r1, [r4, #36]	@ 0x24
 8001f42:	f647 72c0 	movw	r2, #32704	@ 0x7fc0
 8001f46:	401a      	ands	r2, r3
 8001f48:	ebb2 1f81 	cmp.w	r2, r1, lsl #6
 8001f4c:	f47f ae87 	bne.w	8001c5e <HAL_RCC_OscConfig+0x6e>
 8001f50:	6aa2      	ldr	r2, [r4, #40]	@ 0x28
 8001f52:	0852      	lsrs	r2, r2, #1
 8001f54:	f403 3140 	and.w	r1, r3, #196608	@ 0x30000
 8001f58:	3a01      	subs	r2, #1
 8001f5a:	ebb1 4f02 	cmp.w	r1, r2, lsl #16
 8001f5e:	f47f ae7e 	bne.w	8001c5e <HAL_RCC_OscConfig+0x6e>
 8001f62:	6ae1      	ldr	r1, [r4, #44]	@ 0x2c
 8001f64:	f003 6270 	and.w	r2, r3, #251658240	@ 0xf000000
 8001f68:	ebb2 6f01 	cmp.w	r2, r1, lsl #24
 8001f6c:	f47f ae77 	bne.w	8001c5e <HAL_RCC_OscConfig+0x6e>
 8001f70:	6b22      	ldr	r2, [r4, #48]	@ 0x30
 8001f72:	f003 43e0 	and.w	r3, r3, #1879048192	@ 0x70000000
 8001f76:	ebb3 7f02 	cmp.w	r3, r2, lsl #28
 8001f7a:	bf14      	ite	ne
 8001f7c:	2001      	movne	r0, #1
 8001f7e:	2000      	moveq	r0, #0
 8001f80:	e684      	b.n	8001c8c <HAL_RCC_OscConfig+0x9c>
 8001f82:	bf00      	nop
 8001f84:	40023800 	.word	0x40023800
 8001f88:	42470000 	.word	0x42470000

08001f8c <TIM_OC1_SetConfig>:
 8001f8c:	6a03      	ldr	r3, [r0, #32]
 8001f8e:	6a02      	ldr	r2, [r0, #32]
 8001f90:	f022 0201 	bic.w	r2, r2, #1
 8001f94:	6202      	str	r2, [r0, #32]
 8001f96:	b570      	push	{r4, r5, r6, lr}
 8001f98:	6844      	ldr	r4, [r0, #4]
 8001f9a:	6982      	ldr	r2, [r0, #24]
 8001f9c:	680d      	ldr	r5, [r1, #0]
 8001f9e:	f022 0273 	bic.w	r2, r2, #115	@ 0x73
 8001fa2:	432a      	orrs	r2, r5
 8001fa4:	688d      	ldr	r5, [r1, #8]
 8001fa6:	f023 0302 	bic.w	r3, r3, #2
 8001faa:	432b      	orrs	r3, r5
 8001fac:	4d0e      	ldr	r5, [pc, #56]	@ (8001fe8 <TIM_OC1_SetConfig+0x5c>)
 8001fae:	42a8      	cmp	r0, r5
 8001fb0:	d002      	beq.n	8001fb8 <TIM_OC1_SetConfig+0x2c>
 8001fb2:	4e0e      	ldr	r6, [pc, #56]	@ (8001fec <TIM_OC1_SetConfig+0x60>)
 8001fb4:	42b0      	cmp	r0, r6
 8001fb6:	d110      	bne.n	8001fda <TIM_OC1_SetConfig+0x4e>
 8001fb8:	68ce      	ldr	r6, [r1, #12]
 8001fba:	f023 0308 	bic.w	r3, r3, #8
 8001fbe:	4333      	orrs	r3, r6
 8001fc0:	42a8      	cmp	r0, r5
 8001fc2:	f023 0304 	bic.w	r3, r3, #4
 8001fc6:	d002      	beq.n	8001fce <TIM_OC1_SetConfig+0x42>
 8001fc8:	4d08      	ldr	r5, [pc, #32]	@ (8001fec <TIM_OC1_SetConfig+0x60>)
 8001fca:	42a8      	cmp	r0, r5
 8001fcc:	d105      	bne.n	8001fda <TIM_OC1_SetConfig+0x4e>
 8001fce:	e9d1 5605 	ldrd	r5, r6, [r1, #20]
 8001fd2:	f424 7440 	bic.w	r4, r4, #768	@ 0x300
 8001fd6:	4335      	orrs	r5, r6
 8001fd8:	432c      	orrs	r4, r5
 8001fda:	6044      	str	r4, [r0, #4]
 8001fdc:	6182      	str	r2, [r0, #24]
 8001fde:	684a      	ldr	r2, [r1, #4]
 8001fe0:	6342      	str	r2, [r0, #52]	@ 0x34
 8001fe2:	6203      	str	r3, [r0, #32]
 8001fe4:	bd70      	pop	{r4, r5, r6, pc}
 8001fe6:	bf00      	nop
 8001fe8:	40010000 	.word	0x40010000
 8001fec:	40010400 	.word	0x40010400

08001ff0 <TIM_OC3_SetConfig>:
 8001ff0:	6a03      	ldr	r3, [r0, #32]
 8001ff2:	6a02      	ldr	r2, [r0, #32]
 8001ff4:	f422 7280 	bic.w	r2, r2, #256	@ 0x100
 8001ff8:	6202      	str	r2, [r0, #32]
 8001ffa:	b570      	push	{r4, r5, r6, lr}
 8001ffc:	6844      	ldr	r4, [r0, #4]
 8001ffe:	69c2      	ldr	r2, [r0, #28]
 8002000:	680d      	ldr	r5, [r1, #0]
 8002002:	f022 0273 	bic.w	r2, r2, #115	@ 0x73
 8002006:	432a      	orrs	r2, r5
 8002008:	688d      	ldr	r5, [r1, #8]
 800200a:	f423 7300 	bic.w	r3, r3, #512	@ 0x200
 800200e:	ea43 2305 	orr.w	r3, r3, r5, lsl #8
 8002012:	4d11      	ldr	r5, [pc, #68]	@ (8002058 <TIM_OC3_SetConfig+0x68>)
 8002014:	42a8      	cmp	r0, r5
 8002016:	d003      	beq.n	8002020 <TIM_OC3_SetConfig+0x30>
 8002018:	f505 6580 	add.w	r5, r5, #1024	@ 0x400
 800201c:	42a8      	cmp	r0, r5
 800201e:	d114      	bne.n	800204a <TIM_OC3_SetConfig+0x5a>
 8002020:	68cd      	ldr	r5, [r1, #12]
 8002022:	f423 6300 	bic.w	r3, r3, #2048	@ 0x800
 8002026:	ea43 2305 	orr.w	r3, r3, r5, lsl #8
 800202a:	4d0b      	ldr	r5, [pc, #44]	@ (8002058 <TIM_OC3_SetConfig+0x68>)
 800202c:	42a8      	cmp	r0, r5
 800202e:	f423 6380 	bic.w	r3, r3, #1024	@ 0x400
 8002032:	d003      	beq.n	800203c <TIM_OC3_SetConfig+0x4c>
 8002034:	f505 6580 	add.w	r5, r5, #1024	@ 0x400
 8002038:	42a8      	cmp	r0, r5
 800203a:	d106      	bne.n	800204a <TIM_OC3_SetConfig+0x5a>
 800203c:	e9d1 5605 	ldrd	r5, r6, [r1, #20]
 8002040:	f424 5440 	bic.w	r4, r4, #12288	@ 0x3000
 8002044:	4335      	orrs	r5, r6
 8002046:	ea44 1405 	orr.w	r4, r4, r5, lsl #4
 800204a:	6044      	str	r4, [r0, #4]
 800204c:	61c2      	str	r2, [r0, #28]
 800204e:	684a      	ldr	r2, [r1, #4]
 8002050:	63c2      	str	r2, [r0, #60]	@ 0x3c
 8002052:	6203      	str	r3, [r0, #32]
 8002054:	bd70      	pop	{r4, r5, r6, pc}
 8002056:	bf00      	nop
 8002058:	40010000 	.word	0x40010000

0800205c <TIM_OC4_SetConfig>:
 800205c:	6a03      	ldr	r3, [r0, #32]
 800205e:	6a02      	ldr	r2, [r0, #32]
 8002060:	f422 5280 	bic.w	r2, r2, #4096	@ 0x1000
 8002064:	6202      	str	r2, [r0, #32]
 8002066:	b530      	push	{r4, r5, lr}
 8002068:	6844      	ldr	r4, [r0, #4]
 800206a:	69c2      	ldr	r2, [r0, #28]
 800206c:	680d      	ldr	r5, [r1, #0]
 800206e:	f422 42e6 	bic.w	r2, r2, #29440	@ 0x7300
 8002072:	ea42 2205 	orr.w	r2, r2, r5, lsl #8
 8002076:	688d      	ldr	r5, [r1, #8]
 8002078:	f423 5300 	bic.w	r3, r3, #8192	@ 0x2000
 800207c:	ea43 3305 	orr.w	r3, r3, r5, lsl #12
 8002080:	4d08      	ldr	r5, [pc, #32]	@ (80020a4 <TIM_OC4_SetConfig+0x48>)
 8002082:	42a8      	cmp	r0, r5
 8002084:	d003      	beq.n	800208e <TIM_OC4_SetConfig+0x32>
 8002086:	f505 6580 	add.w	r5, r5, #1024	@ 0x400
 800208a:	42a8      	cmp	r0, r5
 800208c:	d104      	bne.n	8002098 <TIM_OC4_SetConfig+0x3c>
 800208e:	694d      	ldr	r5, [r1, #20]
 8002090:	f424 4480 	bic.w	r4, r4, #16384	@ 0x4000
 8002094:	ea44 1485 	orr.w	r4, r4, r5, lsl #6
 8002098:	6044      	str	r4, [r0, #4]
 800209a:	61c2      	str	r2, [r0, #28]
 800209c:	684a      	ldr	r2, [r1, #4]
 800209e:	6402      	str	r2, [r0, #64]	@ 0x40
 80020a0:	6203      	str	r3, [r0, #32]
 80020a2:	bd30      	pop	{r4, r5, pc}
 80020a4:	40010000 	.word	0x40010000

080020a8 <TIM_Base_SetConfig>:
 80020a8:	4a33      	ldr	r2, [pc, #204]	@ (8002178 <TIM_Base_SetConfig+0xd0>)
 80020aa:	6803      	ldr	r3, [r0, #0]
 80020ac:	4290      	cmp	r0, r2
 80020ae:	d012      	beq.n	80020d6 <TIM_Base_SetConfig+0x2e>
 80020b0:	f1b0 4f80 	cmp.w	r0, #1073741824	@ 0x40000000
 80020b4:	d00f      	beq.n	80020d6 <TIM_Base_SetConfig+0x2e>
 80020b6:	f5a2 427c 	sub.w	r2, r2, #64512	@ 0xfc00
 80020ba:	4290      	cmp	r0, r2
 80020bc:	d00b      	beq.n	80020d6 <TIM_Base_SetConfig+0x2e>
 80020be:	f502 6280 	add.w	r2, r2, #1024	@ 0x400
 80020c2:	4290      	cmp	r0, r2
 80020c4:	d007      	beq.n	80020d6 <TIM_Base_SetConfig+0x2e>
 80020c6:	f502 6280 	add.w	r2, r2, #1024	@ 0x400
 80020ca:	4290      	cmp	r0, r2
 80020cc:	d003      	beq.n	80020d6 <TIM_Base_SetConfig+0x2e>
 80020ce:	f502 4278 	add.w	r2, r2, #63488	@ 0xf800
 80020d2:	4290      	cmp	r0, r2
 80020d4:	d119      	bne.n	800210a <TIM_Base_SetConfig+0x62>
 80020d6:	684a      	ldr	r2, [r1, #4]
 80020d8:	f023 0370 	bic.w	r3, r3, #112	@ 0x70
 80020dc:	4313      	orrs	r3, r2
 80020de:	4a26      	ldr	r2, [pc, #152]	@ (8002178 <TIM_Base_SetConfig+0xd0>)
 80020e0:	4290      	cmp	r0, r2
 80020e2:	d029      	beq.n	8002138 <TIM_Base_SetConfig+0x90>
 80020e4:	f1b0 4f80 	cmp.w	r0, #1073741824	@ 0x40000000
 80020e8:	d026      	beq.n	8002138 <TIM_Base_SetConfig+0x90>
 80020ea:	f5a2 427c 	sub.w	r2, r2, #64512	@ 0xfc00
 80020ee:	4290      	cmp	r0, r2
 80020f0:	d022      	beq.n	8002138 <TIM_Base_SetConfig+0x90>
 80020f2:	f502 6280 	add.w	r2, r2, #1024	@ 0x400
 80020f6:	4290      	cmp	r0, r2
 80020f8:	d01e      	beq.n	8002138 <TIM_Base_SetConfig+0x90>
 80020fa:	f502 6280 	add.w	r2, r2, #1024	@ 0x400
 80020fe:	4290      	cmp	r0, r2
 8002100:	d01a      	beq.n	8002138 <TIM_Base_SetConfig+0x90>
 8002102:	f502 4278 	add.w	r2, r2, #63488	@ 0xf800
 8002106:	4290      	cmp	r0, r2
 8002108:	d016      	beq.n	8002138 <TIM_Base_SetConfig+0x90>
 800210a:	4a1c      	ldr	r2, [pc, #112]	@ (800217c <TIM_Base_SetConfig+0xd4>)
 800210c:	4290      	cmp	r0, r2
 800210e:	d013      	beq.n	8002138 <TIM_Base_SetConfig+0x90>
 8002110:	f502 6280 	add.w	r2, r2, #1024	@ 0x400
 8002114:	4290      	cmp	r0, r2
 8002116:	d00f      	beq.n	8002138 <TIM_Base_SetConfig+0x90>
 8002118:	f502 6280 	add.w	r2, r2, #1024	@ 0x400
 800211c:	4290      	cmp	r0, r2
 800211e:	d00b      	beq.n	8002138 <TIM_Base_SetConfig+0x90>
 8002120:	f5a2 3298 	sub.w	r2, r2, #77824	@ 0x13000
 8002124:	4290      	cmp	r0, r2
 8002126:	d007      	beq.n	8002138 <TIM_Base_SetConfig+0x90>
 8002128:	f502 6280 	add.w	r2, r2, #1024	@ 0x400
 800212c:	4290      	cmp	r0, r2
 800212e:	d003      	beq.n	8002138 <TIM_Base_SetConfig+0x90>
 8002130:	f502 6280 	add.w	r2, r2, #1024	@ 0x400
 8002134:	4290      	cmp	r0, r2
 8002136:	d103      	bne.n	8002140 <TIM_Base_SetConfig+0x98>
 8002138:	68ca      	ldr	r2, [r1, #12]
 800213a:	f423 7340 	bic.w	r3, r3, #768	@ 0x300
 800213e:	4313      	orrs	r3, r2
 8002140:	694a      	ldr	r2, [r1, #20]
 8002142:	f023 0380 	bic.w	r3, r3, #128	@ 0x80
 8002146:	4313      	orrs	r3, r2
 8002148:	6003      	str	r3, [r0, #0]
 800214a:	688b      	ldr	r3, [r1, #8]
 800214c:	62c3      	str	r3, [r0, #44]	@ 0x2c
 800214e:	680b      	ldr	r3, [r1, #0]
 8002150:	6283      	str	r3, [r0, #40]	@ 0x28
 8002152:	4b09      	ldr	r3, [pc, #36]	@ (8002178 <TIM_Base_SetConfig+0xd0>)
 8002154:	4298      	cmp	r0, r3
 8002156:	d003      	beq.n	8002160 <TIM_Base_SetConfig+0xb8>
 8002158:	f503 6380 	add.w	r3, r3, #1024	@ 0x400
 800215c:	4298      	cmp	r0, r3
 800215e:	d101      	bne.n	8002164 <TIM_Base_SetConfig+0xbc>
 8002160:	690b      	ldr	r3, [r1, #16]
 8002162:	6303      	str	r3, [r0, #48]	@ 0x30
 8002164:	2301      	movs	r3, #1
 8002166:	6143      	str	r3, [r0, #20]
 8002168:	6903      	ldr	r3, [r0, #16]
 800216a:	07db      	lsls	r3, r3, #31
 800216c:	bf42      	ittt	mi
 800216e:	6903      	ldrmi	r3, [r0, #16]
 8002170:	f023 0301 	bicmi.w	r3, r3, #1
 8002174:	6103      	strmi	r3, [r0, #16]
 8002176:	4770      	bx	lr
 8002178:	40010000 	.word	0x40010000
 800217c:	40014000 	.word	0x40014000

08002180 <HAL_TIM_PWM_Init>:
 8002180:	b510      	push	{r4, lr}
 8002182:	4604      	mov	r4, r0
 8002184:	b330      	cbz	r0, 80021d4 <HAL_TIM_PWM_Init+0x54>
 8002186:	f890 303d 	ldrb.w	r3, [r0, #61]	@ 0x3d
 800218a:	f003 02ff 	and.w	r2, r3, #255	@ 0xff
 800218e:	b91b      	cbnz	r3, 8002198 <HAL_TIM_PWM_Init+0x18>
 8002190:	f880 203c 	strb.w	r2, [r0, #60]	@ 0x3c
 8002194:	f7ff f8cc 	bl	8001330 <HAL_TIM_PWM_MspInit>
 8002198:	2302      	movs	r3, #2
 800219a:	6820      	ldr	r0, [r4, #0]
 800219c:	f884 303d 	strb.w	r3, [r4, #61]	@ 0x3d
 80021a0:	1d21      	adds	r1, r4, #4
 80021a2:	f7ff ff81 	bl	80020a8 <TIM_Base_SetConfig>
 80021a6:	2301      	movs	r3, #1
 80021a8:	f884 3046 	strb.w	r3, [r4, #70]	@ 0x46
 80021ac:	2000      	movs	r0, #0
 80021ae:	f884 303e 	strb.w	r3, [r4, #62]	@ 0x3e
 80021b2:	f884 303f 	strb.w	r3, [r4, #63]	@ 0x3f
 80021b6:	f884 3040 	strb.w	r3, [r4, #64]	@ 0x40
 80021ba:	f884 3041 	strb.w	r3, [r4, #65]	@ 0x41
 80021be:	f884 3042 	strb.w	r3, [r4, #66]	@ 0x42
 80021c2:	f884 3043 	strb.w	r3, [r4, #67]	@ 0x43
 80021c6:	f884 3044 	strb.w	r3, [r4, #68]	@ 0x44
 80021ca:	f884 3045 	strb.w	r3, [r4, #69]	@ 0x45
 80021ce:	f884 303d 	strb.w	r3, [r4, #61]	@ 0x3d
 80021d2:	bd10      	pop	{r4, pc}
 80021d4:	2001      	movs	r0, #1
 80021d6:	e7fc      	b.n	80021d2 <HAL_TIM_PWM_Init+0x52>

080021d8 <TIM_OC2_SetConfig>:
 80021d8:	6a03      	ldr	r3, [r0, #32]
 80021da:	6a02      	ldr	r2, [r0, #32]
 80021dc:	f022 0210 	bic.w	r2, r2, #16
 80021e0:	6202      	str	r2, [r0, #32]
 80021e2:	b570      	push	{r4, r5, r6, lr}
 80021e4:	6844      	ldr	r4, [r0, #4]
 80021e6:	6982      	ldr	r2, [r0, #24]
 80021e8:	680d      	ldr	r5, [r1, #0]
 80021ea:	f422 42e6 	bic.w	r2, r2, #29440	@ 0x7300
 80021ee:	ea42 2205 	orr.w	r2, r2, r5, lsl #8
 80021f2:	688d      	ldr	r5, [r1, #8]
 80021f4:	f023 0320 	bic.w	r3, r3, #32
 80021f8:	ea43 1305 	orr.w	r3, r3, r5, lsl #4
 80021fc:	4d10      	ldr	r5, [pc, #64]	@ (8002240 <TIM_OC2_SetConfig+0x68>)
 80021fe:	42a8      	cmp	r0, r5
 8002200:	d003      	beq.n	800220a <TIM_OC2_SetConfig+0x32>
 8002202:	f505 6580 	add.w	r5, r5, #1024	@ 0x400
 8002206:	42a8      	cmp	r0, r5
 8002208:	d114      	bne.n	8002234 <TIM_OC2_SetConfig+0x5c>
 800220a:	68cd      	ldr	r5, [r1, #12]
 800220c:	f023 0380 	bic.w	r3, r3, #128	@ 0x80
 8002210:	ea43 1305 	orr.w	r3, r3, r5, lsl #4
 8002214:	4d0a      	ldr	r5, [pc, #40]	@ (8002240 <TIM_OC2_SetConfig+0x68>)
 8002216:	42a8      	cmp	r0, r5
 8002218:	f023 0340 	bic.w	r3, r3, #64	@ 0x40
 800221c:	d003      	beq.n	8002226 <TIM_OC2_SetConfig+0x4e>
 800221e:	f505 6580 	add.w	r5, r5, #1024	@ 0x400
 8002222:	42a8      	cmp	r0, r5
 8002224:	d106      	bne.n	8002234 <TIM_OC2_SetConfig+0x5c>
 8002226:	e9d1 5605 	ldrd	r5, r6, [r1, #20]
 800222a:	f424 6440 	bic.w	r4, r4, #3072	@ 0xc00
 800222e:	4335      	orrs	r5, r6
 8002230:	ea44 0485 	orr.w	r4, r4, r5, lsl #2
 8002234:	6044      	str	r4, [r0, #4]
 8002236:	6182      	str	r2, [r0, #24]
 8002238:	684a      	ldr	r2, [r1, #4]
 800223a:	6382      	str	r2, [r0, #56]	@ 0x38
 800223c:	6203      	str	r3, [r0, #32]
 800223e:	bd70      	pop	{r4, r5, r6, pc}
 8002240:	40010000 	.word	0x40010000

08002244 <HAL_TIM_PWM_ConfigChannel>:
 8002244:	b538      	push	{r3, r4, r5, lr}
 8002246:	f890 303c 	ldrb.w	r3, [r0, #60]	@ 0x3c
 800224a:	2b01      	cmp	r3, #1
 800224c:	4604      	mov	r4, r0
 800224e:	d04f      	beq.n	80022f0 <HAL_TIM_PWM_ConfigChannel+0xac>
 8002250:	2001      	movs	r0, #1
 8002252:	2a08      	cmp	r2, #8
 8002254:	f884 003c 	strb.w	r0, [r4, #60]	@ 0x3c
 8002258:	d03a      	beq.n	80022d0 <HAL_TIM_PWM_ConfigChannel+0x8c>
 800225a:	d806      	bhi.n	800226a <HAL_TIM_PWM_ConfigChannel+0x26>
 800225c:	b1ba      	cbz	r2, 800228e <HAL_TIM_PWM_ConfigChannel+0x4a>
 800225e:	2a04      	cmp	r2, #4
 8002260:	d026      	beq.n	80022b0 <HAL_TIM_PWM_ConfigChannel+0x6c>
 8002262:	2300      	movs	r3, #0
 8002264:	f884 303c 	strb.w	r3, [r4, #60]	@ 0x3c
 8002268:	bd38      	pop	{r3, r4, r5, pc}
 800226a:	2a0c      	cmp	r2, #12
 800226c:	d1f9      	bne.n	8002262 <HAL_TIM_PWM_ConfigChannel+0x1e>
 800226e:	6820      	ldr	r0, [r4, #0]
 8002270:	f7ff fef4 	bl	800205c <TIM_OC4_SetConfig>
 8002274:	69c3      	ldr	r3, [r0, #28]
 8002276:	690a      	ldr	r2, [r1, #16]
 8002278:	f443 6300 	orr.w	r3, r3, #2048	@ 0x800
 800227c:	61c3      	str	r3, [r0, #28]
 800227e:	69c3      	ldr	r3, [r0, #28]
 8002280:	f423 6380 	bic.w	r3, r3, #1024	@ 0x400
 8002284:	61c3      	str	r3, [r0, #28]
 8002286:	69c3      	ldr	r3, [r0, #28]
 8002288:	ea43 2302 	orr.w	r3, r3, r2, lsl #8
 800228c:	e02e      	b.n	80022ec <HAL_TIM_PWM_ConfigChannel+0xa8>
 800228e:	6820      	ldr	r0, [r4, #0]
 8002290:	f7ff fe7c 	bl	8001f8c <TIM_OC1_SetConfig>
 8002294:	6983      	ldr	r3, [r0, #24]
 8002296:	690a      	ldr	r2, [r1, #16]
 8002298:	f043 0308 	orr.w	r3, r3, #8
 800229c:	6183      	str	r3, [r0, #24]
 800229e:	6983      	ldr	r3, [r0, #24]
 80022a0:	f023 0304 	bic.w	r3, r3, #4
 80022a4:	6183      	str	r3, [r0, #24]
 80022a6:	6983      	ldr	r3, [r0, #24]
 80022a8:	4313      	orrs	r3, r2
 80022aa:	6183      	str	r3, [r0, #24]
 80022ac:	2000      	movs	r0, #0
 80022ae:	e7d8      	b.n	8002262 <HAL_TIM_PWM_ConfigChannel+0x1e>
 80022b0:	6820      	ldr	r0, [r4, #0]
 80022b2:	f7ff ff91 	bl	80021d8 <TIM_OC2_SetConfig>
 80022b6:	6983      	ldr	r3, [r0, #24]
 80022b8:	690a      	ldr	r2, [r1, #16]
 80022ba:	f443 6300 	orr.w	r3, r3, #2048	@ 0x800
 80022be:	6183      	str	r3, [r0, #24]
 80022c0:	6983      	ldr	r3, [r0, #24]
 80022c2:	f423 6380 	bic.w	r3, r3, #1024	@ 0x400
 80022c6:	6183      	str	r3, [r0, #24]
 80022c8:	6983      	ldr	r3, [r0, #24]
 80022ca:	ea43 2302 	orr.w	r3, r3, r2, lsl #8
 80022ce:	e7ec      	b.n	80022aa <HAL_TIM_PWM_ConfigChannel+0x66>
 80022d0:	6820      	ldr	r0, [r4, #0]
 80022d2:	f7ff fe8d 	bl	8001ff0 <TIM_OC3_SetConfig>
 80022d6:	69c3      	ldr	r3, [r0, #28]
 80022d8:	690a      	ldr	r2, [r1, #16]
 80022da:	f043 0308 	orr.w	r3, r3, #8
 80022de:	61c3      	str	r3, [r0, #28]
 80022e0:	69c3      	ldr	r3, [r0, #28]
 80022e2:	f023 0304 	bic.w	r3, r3, #4
 80022e6:	61c3      	str	r3, [r0, #28]
 80022e8:	69c3      	ldr	r3, [r0, #28]
 80022ea:	4313      	orrs	r3, r2
 80022ec:	61c3      	str	r3, [r0, #28]
 80022ee:	e7dd      	b.n	80022ac <HAL_TIM_PWM_ConfigChannel+0x68>
 80022f0:	2002      	movs	r0, #2
 80022f2:	e7b9      	b.n	8002268 <HAL_TIM_PWM_ConfigChannel+0x24>

080022f4 <TIM_CCxChannelCmd>:
 80022f4:	6a03      	ldr	r3, [r0, #32]
 80022f6:	f001 011f 	and.w	r1, r1, #31
 80022fa:	b510      	push	{r4, lr}
 80022fc:	2401      	movs	r4, #1
 80022fe:	408c      	lsls	r4, r1
 8002300:	ea23 0304 	bic.w	r3, r3, r4
 8002304:	6203      	str	r3, [r0, #32]
 8002306:	6a03      	ldr	r3, [r0, #32]
 8002308:	408a      	lsls	r2, r1
 800230a:	431a      	orrs	r2, r3
 800230c:	6202      	str	r2, [r0, #32]
 800230e:	bd10      	pop	{r4, pc}

08002310 <HAL_TIM_OC_Start>:
 8002310:	b508      	push	{r3, lr}
 8002312:	b939      	cbnz	r1, 8002324 <HAL_TIM_OC_Start+0x14>
 8002314:	f890 303e 	ldrb.w	r3, [r0, #62]	@ 0x3e
 8002318:	3b01      	subs	r3, #1
 800231a:	bf18      	it	ne
 800231c:	2301      	movne	r3, #1
 800231e:	b173      	cbz	r3, 800233e <HAL_TIM_OC_Start+0x2e>
 8002320:	2001      	movs	r0, #1
 8002322:	e023      	b.n	800236c <HAL_TIM_OC_Start+0x5c>
 8002324:	2904      	cmp	r1, #4
 8002326:	d102      	bne.n	800232e <HAL_TIM_OC_Start+0x1e>
 8002328:	f890 303f 	ldrb.w	r3, [r0, #63]	@ 0x3f
 800232c:	e7f4      	b.n	8002318 <HAL_TIM_OC_Start+0x8>
 800232e:	2908      	cmp	r1, #8
 8002330:	d102      	bne.n	8002338 <HAL_TIM_OC_Start+0x28>
 8002332:	f890 3040 	ldrb.w	r3, [r0, #64]	@ 0x40
 8002336:	e7ef      	b.n	8002318 <HAL_TIM_OC_Start+0x8>
 8002338:	f890 3041 	ldrb.w	r3, [r0, #65]	@ 0x41
 800233c:	e7ec      	b.n	8002318 <HAL_TIM_OC_Start+0x8>
 800233e:	2302      	movs	r3, #2
 8002340:	b9a9      	cbnz	r1, 800236e <HAL_TIM_OC_Start+0x5e>
 8002342:	f880 303e 	strb.w	r3, [r0, #62]	@ 0x3e
 8002346:	6800      	ldr	r0, [r0, #0]
 8002348:	2201      	movs	r2, #1
 800234a:	f7ff ffd3 	bl	80022f4 <TIM_CCxChannelCmd>
 800234e:	4a1f      	ldr	r2, [pc, #124]	@ (80023cc <HAL_TIM_OC_Start+0xbc>)
 8002350:	4290      	cmp	r0, r2
 8002352:	d018      	beq.n	8002386 <HAL_TIM_OC_Start+0x76>
 8002354:	4b1e      	ldr	r3, [pc, #120]	@ (80023d0 <HAL_TIM_OC_Start+0xc0>)
 8002356:	4298      	cmp	r0, r3
 8002358:	d015      	beq.n	8002386 <HAL_TIM_OC_Start+0x76>
 800235a:	f1b0 4f80 	cmp.w	r0, #1073741824	@ 0x40000000
 800235e:	d119      	bne.n	8002394 <HAL_TIM_OC_Start+0x84>
 8002360:	6883      	ldr	r3, [r0, #8]
 8002362:	f003 0307 	and.w	r3, r3, #7
 8002366:	2b06      	cmp	r3, #6
 8002368:	d12b      	bne.n	80023c2 <HAL_TIM_OC_Start+0xb2>
 800236a:	2000      	movs	r0, #0
 800236c:	bd08      	pop	{r3, pc}
 800236e:	2904      	cmp	r1, #4
 8002370:	d102      	bne.n	8002378 <HAL_TIM_OC_Start+0x68>
 8002372:	f880 303f 	strb.w	r3, [r0, #63]	@ 0x3f
 8002376:	e7e6      	b.n	8002346 <HAL_TIM_OC_Start+0x36>
 8002378:	2908      	cmp	r1, #8
 800237a:	bf0c      	ite	eq
 800237c:	f880 3040 	strbeq.w	r3, [r0, #64]	@ 0x40
 8002380:	f880 3041 	strbne.w	r3, [r0, #65]	@ 0x41
 8002384:	e7df      	b.n	8002346 <HAL_TIM_OC_Start+0x36>
 8002386:	6c43      	ldr	r3, [r0, #68]	@ 0x44
 8002388:	4290      	cmp	r0, r2
 800238a:	f443 4300 	orr.w	r3, r3, #32768	@ 0x8000
 800238e:	6443      	str	r3, [r0, #68]	@ 0x44
 8002390:	d0e6      	beq.n	8002360 <HAL_TIM_OC_Start+0x50>
 8002392:	e7e2      	b.n	800235a <HAL_TIM_OC_Start+0x4a>
 8002394:	4b0f      	ldr	r3, [pc, #60]	@ (80023d4 <HAL_TIM_OC_Start+0xc4>)
 8002396:	4298      	cmp	r0, r3
 8002398:	d0e2      	beq.n	8002360 <HAL_TIM_OC_Start+0x50>
 800239a:	f503 6380 	add.w	r3, r3, #1024	@ 0x400
 800239e:	4298      	cmp	r0, r3
 80023a0:	d0de      	beq.n	8002360 <HAL_TIM_OC_Start+0x50>
 80023a2:	f503 6380 	add.w	r3, r3, #1024	@ 0x400
 80023a6:	4298      	cmp	r0, r3
 80023a8:	d0da      	beq.n	8002360 <HAL_TIM_OC_Start+0x50>
 80023aa:	f503 4378 	add.w	r3, r3, #63488	@ 0xf800
 80023ae:	4298      	cmp	r0, r3
 80023b0:	d0d6      	beq.n	8002360 <HAL_TIM_OC_Start+0x50>
 80023b2:	f503 5370 	add.w	r3, r3, #15360	@ 0x3c00
 80023b6:	4298      	cmp	r0, r3
 80023b8:	d0d2      	beq.n	8002360 <HAL_TIM_OC_Start+0x50>
 80023ba:	f5a3 3394 	sub.w	r3, r3, #75776	@ 0x12800
 80023be:	4298      	cmp	r0, r3
 80023c0:	d0ce      	beq.n	8002360 <HAL_TIM_OC_Start+0x50>
 80023c2:	6803      	ldr	r3, [r0, #0]
 80023c4:	f043 0301 	orr.w	r3, r3, #1
 80023c8:	6003      	str	r3, [r0, #0]
 80023ca:	e7ce      	b.n	800236a <HAL_TIM_OC_Start+0x5a>
 80023cc:	40010000 	.word	0x40010000
 80023d0:	40010400 	.word	0x40010400
 80023d4:	40000400 	.word	0x40000400

080023d8 <HAL_TIM_PWM_Start>:
 80023d8:	f7ff bf9a 	b.w	8002310 <HAL_TIM_OC_Start>

080023dc <HAL_TIM_OC_Stop>:
 80023dc:	b538      	push	{r3, r4, r5, lr}
 80023de:	2200      	movs	r2, #0
 80023e0:	4604      	mov	r4, r0
 80023e2:	6800      	ldr	r0, [r0, #0]
 80023e4:	460d      	mov	r5, r1
 80023e6:	f7ff ff85 	bl	80022f4 <TIM_CCxChannelCmd>
 80023ea:	4b1a      	ldr	r3, [pc, #104]	@ (8002454 <HAL_TIM_OC_Stop+0x78>)
 80023ec:	4298      	cmp	r0, r3
 80023ee:	d003      	beq.n	80023f8 <HAL_TIM_OC_Stop+0x1c>
 80023f0:	f503 6380 	add.w	r3, r3, #1024	@ 0x400
 80023f4:	4298      	cmp	r0, r3
 80023f6:	d10d      	bne.n	8002414 <HAL_TIM_OC_Stop+0x38>
 80023f8:	6a02      	ldr	r2, [r0, #32]
 80023fa:	f241 1311 	movw	r3, #4369	@ 0x1111
 80023fe:	421a      	tst	r2, r3
 8002400:	d108      	bne.n	8002414 <HAL_TIM_OC_Stop+0x38>
 8002402:	6a02      	ldr	r2, [r0, #32]
 8002404:	f240 4344 	movw	r3, #1092	@ 0x444
 8002408:	421a      	tst	r2, r3
 800240a:	bf02      	ittt	eq
 800240c:	6c43      	ldreq	r3, [r0, #68]	@ 0x44
 800240e:	f423 4300 	biceq.w	r3, r3, #32768	@ 0x8000
 8002412:	6443      	streq	r3, [r0, #68]	@ 0x44
 8002414:	6a02      	ldr	r2, [r0, #32]
 8002416:	f241 1311 	movw	r3, #4369	@ 0x1111
 800241a:	421a      	tst	r2, r3
 800241c:	d108      	bne.n	8002430 <HAL_TIM_OC_Stop+0x54>
 800241e:	6a02      	ldr	r2, [r0, #32]
 8002420:	f240 4344 	movw	r3, #1092	@ 0x444
 8002424:	421a      	tst	r2, r3
 8002426:	bf02      	ittt	eq
 8002428:	6803      	ldreq	r3, [r0, #0]
 800242a:	f023 0301 	biceq.w	r3, r3, #1
 800242e:	6003      	streq	r3, [r0, #0]
 8002430:	2301      	movs	r3, #1
 8002432:	b91d      	cbnz	r5, 800243c <HAL_TIM_OC_Stop+0x60>
 8002434:	f884 303e 	strb.w	r3, [r4, #62]	@ 0x3e
 8002438:	2000      	movs	r0, #0
 800243a:	bd38      	pop	{r3, r4, r5, pc}
 800243c:	2d04      	cmp	r5, #4
 800243e:	d102      	bne.n	8002446 <HAL_TIM_OC_Stop+0x6a>
 8002440:	f884 303f 	strb.w	r3, [r4, #63]	@ 0x3f
 8002444:	e7f8      	b.n	8002438 <HAL_TIM_OC_Stop+0x5c>
 8002446:	2d08      	cmp	r5, #8
 8002448:	bf0c      	ite	eq
 800244a:	f884 3040 	strbeq.w	r3, [r4, #64]	@ 0x40
 800244e:	f884 3041 	strbne.w	r3, [r4, #65]	@ 0x41
 8002452:	e7f1      	b.n	8002438 <HAL_TIM_OC_Stop+0x5c>
 8002454:	40010000 	.word	0x40010000

08002458 <HAL_TIM_PWM_Stop>:
 8002458:	f7ff bfc0 	b.w	80023dc <HAL_TIM_OC_Stop>

0800245c <HAL_TIMEx_MasterConfigSynchronization>:
 800245c:	b530      	push	{r4, r5, lr}
 800245e:	f890 303c 	ldrb.w	r3, [r0, #60]	@ 0x3c
 8002462:	2b01      	cmp	r3, #1
 8002464:	4602      	mov	r2, r0
 8002466:	f04f 0002 	mov.w	r0, #2
 800246a:	d032      	beq.n	80024d2 <HAL_TIMEx_MasterConfigSynchronization+0x76>
 800246c:	6813      	ldr	r3, [r2, #0]
 800246e:	f882 003d 	strb.w	r0, [r2, #61]	@ 0x3d
 8002472:	685c      	ldr	r4, [r3, #4]
 8002474:	680d      	ldr	r5, [r1, #0]
 8002476:	6898      	ldr	r0, [r3, #8]
 8002478:	f024 0470 	bic.w	r4, r4, #112	@ 0x70
 800247c:	432c      	orrs	r4, r5
 800247e:	605c      	str	r4, [r3, #4]
 8002480:	4c14      	ldr	r4, [pc, #80]	@ (80024d4 <HAL_TIMEx_MasterConfigSynchronization+0x78>)
 8002482:	42a3      	cmp	r3, r4
 8002484:	d01a      	beq.n	80024bc <HAL_TIMEx_MasterConfigSynchronization+0x60>
 8002486:	f1b3 4f80 	cmp.w	r3, #1073741824	@ 0x40000000
 800248a:	d017      	beq.n	80024bc <HAL_TIMEx_MasterConfigSynchronization+0x60>
 800248c:	f5a4 447c 	sub.w	r4, r4, #64512	@ 0xfc00
 8002490:	42a3      	cmp	r3, r4
 8002492:	d013      	beq.n	80024bc <HAL_TIMEx_MasterConfigSynchronization+0x60>
 8002494:	f504 6480 	add.w	r4, r4, #1024	@ 0x400
 8002498:	42a3      	cmp	r3, r4
 800249a:	d00f      	beq.n	80024bc <HAL_TIMEx_MasterConfigSynchronization+0x60>
 800249c:	f504 6480 	add.w	r4, r4, #1024	@ 0x400
 80024a0:	42a3      	cmp	r3, r4
 80024a2:	d00b      	beq.n	80024bc <HAL_TIMEx_MasterConfigSynchronization+0x60>
 80024a4:	f504 4478 	add.w	r4, r4, #63488	@ 0xf800
 80024a8:	42a3      	cmp	r3, r4
 80024aa:	d007      	beq.n	80024bc <HAL_TIMEx_MasterConfigSynchronization+0x60>
 80024ac:	f504 5470 	add.w	r4, r4, #15360	@ 0x3c00
 80024b0:	42a3      	cmp	r3, r4
 80024b2:	d003      	beq.n	80024bc <HAL_TIMEx_MasterConfigSynchronization+0x60>
 80024b4:	f5a4 3494 	sub.w	r4, r4, #75776	@ 0x12800
 80024b8:	42a3      	cmp	r3, r4
 80024ba:	d104      	bne.n	80024c6 <HAL_TIMEx_MasterConfigSynchronization+0x6a>
 80024bc:	6849      	ldr	r1, [r1, #4]
 80024be:	f020 0080 	bic.w	r0, r0, #128	@ 0x80
 80024c2:	4301      	orrs	r1, r0
 80024c4:	6099      	str	r1, [r3, #8]
 80024c6:	2301      	movs	r3, #1
 80024c8:	2000      	movs	r0, #0
 80024ca:	f882 303d 	strb.w	r3, [r2, #61]	@ 0x3d
 80024ce:	f882 003c 	strb.w	r0, [r2, #60]	@ 0x3c
 80024d2:	bd30      	pop	{r4, r5, pc}
 80024d4:	40010000 	.word	0x40010000

080024d8 <UART_SetConfig>:
 80024d8:	6802      	ldr	r2, [r0, #0]
 80024da:	68c1      	ldr	r1, [r0, #12]
 80024dc:	b538      	push	{r3, r4, r5, lr}
 80024de:	6913      	ldr	r3, [r2, #16]
 80024e0:	f423 5340 	bic.w	r3, r3, #12288	@ 0x3000
 80024e4:	430b      	orrs	r3, r1
 80024e6:	6113      	str	r3, [r2, #16]
 80024e8:	4605      	mov	r5, r0
 80024ea:	6883      	ldr	r3, [r0, #8]
 80024ec:	6900      	ldr	r0, [r0, #16]
 80024ee:	68d1      	ldr	r1, [r2, #12]
 80024f0:	4303      	orrs	r3, r0
 80024f2:	6968      	ldr	r0, [r5, #20]
 80024f4:	4303      	orrs	r3, r0
 80024f6:	69e8      	ldr	r0, [r5, #28]
 80024f8:	f421 4116 	bic.w	r1, r1, #38400	@ 0x9600
 80024fc:	f021 010c 	bic.w	r1, r1, #12
 8002500:	4303      	orrs	r3, r0
 8002502:	430b      	orrs	r3, r1
 8002504:	60d3      	str	r3, [r2, #12]
 8002506:	6953      	ldr	r3, [r2, #20]
 8002508:	69a9      	ldr	r1, [r5, #24]
 800250a:	f423 7340 	bic.w	r3, r3, #768	@ 0x300
 800250e:	430b      	orrs	r3, r1
 8002510:	6153      	str	r3, [r2, #20]
 8002512:	4b1f      	ldr	r3, [pc, #124]	@ (8002590 <UART_SetConfig+0xb8>)
 8002514:	429a      	cmp	r2, r3
 8002516:	d003      	beq.n	8002520 <UART_SetConfig+0x48>
 8002518:	f503 6380 	add.w	r3, r3, #1024	@ 0x400
 800251c:	429a      	cmp	r2, r3
 800251e:	d124      	bne.n	800256a <UART_SetConfig+0x92>
 8002520:	f7ff fb0e 	bl	8001b40 <HAL_RCC_GetPCLK2Freq>
 8002524:	69ea      	ldr	r2, [r5, #28]
 8002526:	2119      	movs	r1, #25
 8002528:	f5b2 4f00 	cmp.w	r2, #32768	@ 0x8000
 800252c:	e9d5 4300 	ldrd	r4, r3, [r5]
 8002530:	fba0 0101 	umull	r0, r1, r0, r1
 8002534:	d11c      	bne.n	8002570 <UART_SetConfig+0x98>
 8002536:	18da      	adds	r2, r3, r3
 8002538:	f04f 0500 	mov.w	r5, #0
 800253c:	eb45 0305 	adc.w	r3, r5, r5
 8002540:	f7fe fa4e 	bl	80009e0 <__aeabi_uldivmod>
 8002544:	2264      	movs	r2, #100	@ 0x64
 8002546:	fbb0 f1f2 	udiv	r1, r0, r2
 800254a:	fb02 0311 	mls	r3, r2, r1, r0
 800254e:	00db      	lsls	r3, r3, #3
 8002550:	3332      	adds	r3, #50	@ 0x32
 8002552:	fbb3 f3f2 	udiv	r3, r3, r2
 8002556:	f003 0207 	and.w	r2, r3, #7
 800255a:	005b      	lsls	r3, r3, #1
 800255c:	eb02 1201 	add.w	r2, r2, r1, lsl #4
 8002560:	f403 73f8 	and.w	r3, r3, #496	@ 0x1f0
 8002564:	4413      	add	r3, r2
 8002566:	60a3      	str	r3, [r4, #8]
 8002568:	bd38      	pop	{r3, r4, r5, pc}
 800256a:	f7ff fad9 	bl	8001b20 <HAL_RCC_GetPCLK1Freq>
 800256e:	e7d9      	b.n	8002524 <UART_SetConfig+0x4c>
 8002570:	009a      	lsls	r2, r3, #2
 8002572:	0f9b      	lsrs	r3, r3, #30
 8002574:	f7fe fa34 	bl	80009e0 <__aeabi_uldivmod>
 8002578:	2264      	movs	r2, #100	@ 0x64
 800257a:	fbb0 f1f2 	udiv	r1, r0, r2
 800257e:	fb02 0311 	mls	r3, r2, r1, r0
 8002582:	011b      	lsls	r3, r3, #4
 8002584:	3332      	adds	r3, #50	@ 0x32
 8002586:	fbb3 f3f2 	udiv	r3, r3, r2
 800258a:	eb03 1301 	add.w	r3, r3, r1, lsl #4
 800258e:	e7ea      	b.n	8002566 <UART_SetConfig+0x8e>
 8002590:	40011000 	.word	0x40011000

08002594 <HAL_UART_Init>:
 8002594:	b510      	push	{r4, lr}
 8002596:	4604      	mov	r4, r0
 8002598:	b348      	cbz	r0, 80025ee <HAL_UART_Init+0x5a>
 800259a:	f890 3041 	ldrb.w	r3, [r0, #65]	@ 0x41
 800259e:	f003 02ff 	and.w	r2, r3, #255	@ 0xff
 80025a2:	b91b      	cbnz	r3, 80025ac <HAL_UART_Init+0x18>
 80025a4:	f880 2040 	strb.w	r2, [r0, #64]	@ 0x40
 80025a8:	f7fe ff30 	bl	800140c <HAL_UART_MspInit>
 80025ac:	6822      	ldr	r2, [r4, #0]
 80025ae:	2324      	movs	r3, #36	@ 0x24
 80025b0:	f884 3041 	strb.w	r3, [r4, #65]	@ 0x41
 80025b4:	68d3      	ldr	r3, [r2, #12]
 80025b6:	f423 5300 	bic.w	r3, r3, #8192	@ 0x2000
 80025ba:	60d3      	str	r3, [r2, #12]
 80025bc:	4620      	mov	r0, r4
 80025be:	f7ff ff8b 	bl	80024d8 <UART_SetConfig>
 80025c2:	6823      	ldr	r3, [r4, #0]
 80025c4:	691a      	ldr	r2, [r3, #16]
 80025c6:	f422 4290 	bic.w	r2, r2, #18432	@ 0x4800
 80025ca:	611a      	str	r2, [r3, #16]
 80025cc:	695a      	ldr	r2, [r3, #20]
 80025ce:	f022 022a 	bic.w	r2, r2, #42	@ 0x2a
 80025d2:	615a      	str	r2, [r3, #20]
 80025d4:	68da      	ldr	r2, [r3, #12]
 80025d6:	f442 5200 	orr.w	r2, r2, #8192	@ 0x2000
 80025da:	60da      	str	r2, [r3, #12]
 80025dc:	2000      	movs	r0, #0
 80025de:	2320      	movs	r3, #32
 80025e0:	6460      	str	r0, [r4, #68]	@ 0x44
 80025e2:	f884 3041 	strb.w	r3, [r4, #65]	@ 0x41
 80025e6:	f884 3042 	strb.w	r3, [r4, #66]	@ 0x42
 80025ea:	6360      	str	r0, [r4, #52]	@ 0x34
 80025ec:	bd10      	pop	{r4, pc}
 80025ee:	2001      	movs	r0, #1
 80025f0:	e7fc      	b.n	80025ec <HAL_UART_Init+0x58>

080025f2 <memset>:
 80025f2:	4402      	add	r2, r0
 80025f4:	4603      	mov	r3, r0
 80025f6:	4293      	cmp	r3, r2
 80025f8:	d100      	bne.n	80025fc <memset+0xa>
 80025fa:	4770      	bx	lr
 80025fc:	f803 1b01 	strb.w	r1, [r3], #1
 8002600:	e7f9      	b.n	80025f6 <memset+0x4>
	...

08002604 <__libc_init_array>:
 8002604:	b570      	push	{r4, r5, r6, lr}
 8002606:	4d0d      	ldr	r5, [pc, #52]	@ (800263c <__libc_init_array+0x38>)
 8002608:	4c0d      	ldr	r4, [pc, #52]	@ (8002640 <__libc_init_array+0x3c>)
 800260a:	1b64      	subs	r4, r4, r5
 800260c:	10a4      	asrs	r4, r4, #2
 800260e:	2600      	movs	r6, #0
 8002610:	42a6      	cmp	r6, r4
 8002612:	d109      	bne.n	8002628 <__libc_init_array+0x24>
 8002614:	4d0b      	ldr	r5, [pc, #44]	@ (8002644 <__libc_init_array+0x40>)
 8002616:	4c0c      	ldr	r4, [pc, #48]	@ (8002648 <__libc_init_array+0x44>)
 8002618:	f000 f818 	bl	800264c <_init>
 800261c:	1b64      	subs	r4, r4, r5
 800261e:	10a4      	asrs	r4, r4, #2
 8002620:	2600      	movs	r6, #0
 8002622:	42a6      	cmp	r6, r4
 8002624:	d105      	bne.n	8002632 <__libc_init_array+0x2e>
 8002626:	bd70      	pop	{r4, r5, r6, pc}
 8002628:	f855 3b04 	ldr.w	r3, [r5], #4
 800262c:	4798      	blx	r3
 800262e:	3601      	adds	r6, #1
 8002630:	e7ee      	b.n	8002610 <__libc_init_array+0xc>
 8002632:	f855 3b04 	ldr.w	r3, [r5], #4
 8002636:	4798      	blx	r3
 8002638:	3601      	adds	r6, #1
 800263a:	e7f2      	b.n	8002622 <__libc_init_array+0x1e>
 800263c:	08002684 	.word	0x08002684
 8002640:	08002684 	.word	0x08002684
 8002644:	08002684 	.word	0x08002684
 8002648:	08002688 	.word	0x08002688

0800264c <_init>:
 800264c:	b5f8      	push	{r3, r4, r5, r6, r7, lr}
 800264e:	bf00      	nop
 8002650:	bcf8      	pop	{r3, r4, r5, r6, r7}
 8002652:	bc08      	pop	{r3}
 8002654:	469e      	mov	lr, r3
 8002656:	4770      	bx	lr

08002658 <_fini>:
 8002658:	b5f8      	push	{r3, r4, r5, r6, r7, lr}
 800265a:	bf00      	nop
 800265c:	bcf8      	pop	{r3, r4, r5, r6, r7}
 800265e:	bc08      	pop	{r3}
 8002660:	469e      	mov	lr, r3
 8002662:	4770      	bx	lr
