
barquinho.elf:     file format elf32-littlearm

Sections:
Idx Name          Size      VMA       LMA       File off  Algn
  0 .isr_vector   000001c4  08000000  08000000  00001000  2**0
                  CONTENTS, ALLOC, LOAD, READONLY, DATA
  1 .text         00006bcc  080001d0  080001d0  000011d0  2**4
                  CONTENTS, ALLOC, LOAD, READONLY, CODE
  2 .rodata       00000520  08006da0  08006da0  00007da0  2**3
                  CONTENTS, ALLOC, LOAD, READONLY, DATA
  3 .ARM.extab    00000000  080072c0  080072c0  00009210  2**0
                  CONTENTS
  4 .ARM          00000008  080072c0  080072c0  000082c0  2**2
                  CONTENTS, ALLOC, LOAD, READONLY, DATA
  5 .preinit_array 00000000  080072c8  080072c8  00009210  2**0
                  CONTENTS, ALLOC, LOAD, DATA
  6 .init_array   00000004  080072c8  080072c8  000082c8  2**2
                  CONTENTS, ALLOC, LOAD, READONLY, DATA
  7 .fini_array   00000004  080072cc  080072cc  000082cc  2**2
                  CONTENTS, ALLOC, LOAD, READONLY, DATA
  8 .data         00000210  20000000  080072d0  00009000  2**3
                  CONTENTS, ALLOC, LOAD, DATA
  9 .bss          000004ec  20000210  080074e0  00009210  2**2
                  ALLOC
 10 ._user_heap_stack 00000604  200006fc  080074e0  000096fc  2**0
                  ALLOC
 11 .ARM.attributes 00000030  00000000  00000000  00009210  2**0
                  CONTENTS, READONLY
 12 .comment      00000043  00000000  00000000  00009240  2**0
                  CONTENTS, READONLY
 13 .debug_frame  00001714  00000000  00000000  00009284  2**2
                  CONTENTS, READONLY, DEBUGGING, OCTETS

Disassembly of section .text:

080001d0 <__do_global_dtors_aux>:
 80001d0:	b510      	push	{r4, lr}
 80001d2:	4c05      	ldr	r4, [pc, #20]	@ (80001e8 <__do_global_dtors_aux+0x18>)
 80001d4:	7823      	ldrb	r3, [r4, #0]
 80001d6:	b933      	cbnz	r3, 80001e6 <__do_global_dtors_aux+0x16>
 80001d8:	4b04      	ldr	r3, [pc, #16]	@ (80001ec <__do_global_dtors_aux+0x1c>)
 80001da:	b113      	cbz	r3, 80001e2 <__do_global_dtors_aux+0x12>
 80001dc:	4804      	ldr	r0, [pc, #16]	@ (80001f0 <__do_global_dtors_aux+0x20>)
 80001de:	f3af 8000 	nop.w
 80001e2:	2301      	movs	r3, #1
 80001e4:	7023      	strb	r3, [r4, #0]
 80001e6:	bd10      	pop	{r4, pc}
 80001e8:	20000210 	.word	0x20000210
 80001ec:	00000000 	.word	0x00000000
 80001f0:	08006d84 	.word	0x08006d84

080001f4 <frame_dummy>:
 80001f4:	b508      	push	{r3, lr}
 80001f6:	4b03      	ldr	r3, [pc, #12]	@ (8000204 <frame_dummy+0x10>)
 80001f8:	b11b      	cbz	r3, 8000202 <frame_dummy+0xe>
 80001fa:	4903      	ldr	r1, [pc, #12]	@ (8000208 <frame_dummy+0x14>)
 80001fc:	4803      	ldr	r0, [pc, #12]	@ (800020c <frame_dummy+0x18>)
 80001fe:	f3af 8000 	nop.w
 8000202:	bd08      	pop	{r3, pc}
 8000204:	00000000 	.word	0x00000000
 8000208:	20000214 	.word	0x20000214
 800020c:	08006d84 	.word	0x08006d84

08000210 <strcmp>:
 8000210:	f810 2b01 	ldrb.w	r2, [r0], #1
 8000214:	f811 3b01 	ldrb.w	r3, [r1], #1
 8000218:	2a01      	cmp	r2, #1
 800021a:	bf28      	it	cs
 800021c:	429a      	cmpcs	r2, r3
 800021e:	d0f7      	beq.n	8000210 <strcmp>
 8000220:	1ad0      	subs	r0, r2, r3
 8000222:	4770      	bx	lr
	...

08000230 <memchr>:
 8000230:	f001 01ff 	and.w	r1, r1, #255	@ 0xff
 8000234:	2a10      	cmp	r2, #16
 8000236:	db2b      	blt.n	8000290 <memchr+0x60>
 8000238:	f010 0f07 	tst.w	r0, #7
 800023c:	d008      	beq.n	8000250 <memchr+0x20>
 800023e:	f810 3b01 	ldrb.w	r3, [r0], #1
 8000242:	3a01      	subs	r2, #1
 8000244:	428b      	cmp	r3, r1
 8000246:	d02d      	beq.n	80002a4 <memchr+0x74>
 8000248:	f010 0f07 	tst.w	r0, #7
 800024c:	b342      	cbz	r2, 80002a0 <memchr+0x70>
 800024e:	d1f6      	bne.n	800023e <memchr+0xe>
 8000250:	b4f0      	push	{r4, r5, r6, r7}
 8000252:	ea41 2101 	orr.w	r1, r1, r1, lsl #8
 8000256:	ea41 4101 	orr.w	r1, r1, r1, lsl #16
 800025a:	f022 0407 	bic.w	r4, r2, #7
 800025e:	f07f 0700 	mvns.w	r7, #0
 8000262:	2300      	movs	r3, #0
 8000264:	e8f0 5602 	ldrd	r5, r6, [r0], #8
 8000268:	3c08      	subs	r4, #8
 800026a:	ea85 0501 	eor.w	r5, r5, r1
 800026e:	ea86 0601 	eor.w	r6, r6, r1
 8000272:	fa85 f547 	uadd8	r5, r5, r7
 8000276:	faa3 f587 	sel	r5, r3, r7
 800027a:	fa86 f647 	uadd8	r6, r6, r7
 800027e:	faa5 f687 	sel	r6, r5, r7
 8000282:	b98e      	cbnz	r6, 80002a8 <memchr+0x78>
 8000284:	d1ee      	bne.n	8000264 <memchr+0x34>
 8000286:	bcf0      	pop	{r4, r5, r6, r7}
 8000288:	f001 01ff 	and.w	r1, r1, #255	@ 0xff
 800028c:	f002 0207 	and.w	r2, r2, #7
 8000290:	b132      	cbz	r2, 80002a0 <memchr+0x70>
 8000292:	f810 3b01 	ldrb.w	r3, [r0], #1
 8000296:	3a01      	subs	r2, #1
 8000298:	ea83 0301 	eor.w	r3, r3, r1
 800029c:	b113      	cbz	r3, 80002a4 <memchr+0x74>
 800029e:	d1f8      	bne.n	8000292 <memchr+0x62>
 80002a0:	2000      	movs	r0, #0
 80002a2:	4770      	bx	lr
 80002a4:	3801      	subs	r0, #1
 80002a6:	4770      	bx	lr
 80002a8:	2d00      	cmp	r5, #0
 80002aa:	bf06      	itte	eq
 80002ac:	4635      	moveq	r5, r6
 80002ae:	3803      	subeq	r0, #3
 80002b0:	3807      	subne	r0, #7
 80002b2:	f015 0f01 	tst.w	r5, #1
 80002b6:	d107      	bne.n	80002c8 <memchr+0x98>
 80002b8:	3001      	adds	r0, #1
 80002ba:	f415 7f80 	tst.w	r5, #256	@ 0x100
 80002be:	bf02      	ittt	eq
 80002c0:	3001      	addeq	r0, #1
 80002c2:	f415 3fc0 	tsteq.w	r5, #98304	@ 0x18000
 80002c6:	3001      	addeq	r0, #1
 80002c8:	bcf0      	pop	{r4, r5, r6, r7}
 80002ca:	3801      	subs	r0, #1
 80002cc:	4770      	bx	lr
 80002ce:	bf00      	nop

080002d0 <strlen>:
 80002d0:	4603      	mov	r3, r0
 80002d2:	f813 2b01 	ldrb.w	r2, [r3], #1
 80002d6:	2a00      	cmp	r2, #0
 80002d8:	d1fb      	bne.n	80002d2 <strlen+0x2>
 80002da:	1a18      	subs	r0, r3, r0
 80002dc:	3801      	subs	r0, #1
 80002de:	4770      	bx	lr

080002e0 <__aeabi_drsub>:
 80002e0:	f081 4100 	eor.w	r1, r1, #2147483648	@ 0x80000000
 80002e4:	e002      	b.n	80002ec <__adddf3>
 80002e6:	bf00      	nop

080002e8 <__aeabi_dsub>:
 80002e8:	f083 4300 	eor.w	r3, r3, #2147483648	@ 0x80000000

080002ec <__adddf3>:
 80002ec:	b530      	push	{r4, r5, lr}
 80002ee:	ea4f 0441 	mov.w	r4, r1, lsl #1
 80002f2:	ea4f 0543 	mov.w	r5, r3, lsl #1
 80002f6:	ea94 0f05 	teq	r4, r5
 80002fa:	bf08      	it	eq
 80002fc:	ea90 0f02 	teqeq	r0, r2
 8000300:	bf1f      	itttt	ne
 8000302:	ea54 0c00 	orrsne.w	ip, r4, r0
 8000306:	ea55 0c02 	orrsne.w	ip, r5, r2
 800030a:	ea7f 5c64 	mvnsne.w	ip, r4, asr #21
 800030e:	ea7f 5c65 	mvnsne.w	ip, r5, asr #21
 8000312:	f000 80e2 	beq.w	80004da <__adddf3+0x1ee>
 8000316:	ea4f 5454 	mov.w	r4, r4, lsr #21
 800031a:	ebd4 5555 	rsbs	r5, r4, r5, lsr #21
 800031e:	bfb8      	it	lt
 8000320:	426d      	neglt	r5, r5
 8000322:	dd0c      	ble.n	800033e <__adddf3+0x52>
 8000324:	442c      	add	r4, r5
 8000326:	ea80 0202 	eor.w	r2, r0, r2
 800032a:	ea81 0303 	eor.w	r3, r1, r3
 800032e:	ea82 0000 	eor.w	r0, r2, r0
 8000332:	ea83 0101 	eor.w	r1, r3, r1
 8000336:	ea80 0202 	eor.w	r2, r0, r2
 800033a:	ea81 0303 	eor.w	r3, r1, r3
 800033e:	2d36      	cmp	r5, #54	@ 0x36
 8000340:	bf88      	it	hi
 8000342:	bd30      	pophi	{r4, r5, pc}
 8000344:	f011 4f00 	tst.w	r1, #2147483648	@ 0x80000000
 8000348:	ea4f 3101 	mov.w	r1, r1, lsl #12
 800034c:	f44f 1c80 	mov.w	ip, #1048576	@ 0x100000
 8000350:	ea4c 3111 	orr.w	r1, ip, r1, lsr #12
 8000354:	d002      	beq.n	800035c <__adddf3+0x70>
 8000356:	4240      	negs	r0, r0
 8000358:	eb61 0141 	sbc.w	r1, r1, r1, lsl #1
 800035c:	f013 4f00 	tst.w	r3, #2147483648	@ 0x80000000
 8000360:	ea4f 3303 	mov.w	r3, r3, lsl #12
 8000364:	ea4c 3313 	orr.w	r3, ip, r3, lsr #12
 8000368:	d002      	beq.n	8000370 <__adddf3+0x84>
 800036a:	4252      	negs	r2, r2
 800036c:	eb63 0343 	sbc.w	r3, r3, r3, lsl #1
 8000370:	ea94 0f05 	teq	r4, r5
 8000374:	f000 80a7 	beq.w	80004c6 <__adddf3+0x1da>
 8000378:	f1a4 0401 	sub.w	r4, r4, #1
 800037c:	f1d5 0e20 	rsbs	lr, r5, #32
 8000380:	db0d      	blt.n	800039e <__adddf3+0xb2>
 8000382:	fa02 fc0e 	lsl.w	ip, r2, lr
 8000386:	fa22 f205 	lsr.w	r2, r2, r5
 800038a:	1880      	adds	r0, r0, r2
 800038c:	f141 0100 	adc.w	r1, r1, #0
 8000390:	fa03 f20e 	lsl.w	r2, r3, lr
 8000394:	1880      	adds	r0, r0, r2
 8000396:	fa43 f305 	asr.w	r3, r3, r5
 800039a:	4159      	adcs	r1, r3
 800039c:	e00e      	b.n	80003bc <__adddf3+0xd0>
 800039e:	f1a5 0520 	sub.w	r5, r5, #32
 80003a2:	f10e 0e20 	add.w	lr, lr, #32
 80003a6:	2a01      	cmp	r2, #1
 80003a8:	fa03 fc0e 	lsl.w	ip, r3, lr
 80003ac:	bf28      	it	cs
 80003ae:	f04c 0c02 	orrcs.w	ip, ip, #2
 80003b2:	fa43 f305 	asr.w	r3, r3, r5
 80003b6:	18c0      	adds	r0, r0, r3
 80003b8:	eb51 71e3 	adcs.w	r1, r1, r3, asr #31
 80003bc:	f001 4500 	and.w	r5, r1, #2147483648	@ 0x80000000
 80003c0:	d507      	bpl.n	80003d2 <__adddf3+0xe6>
 80003c2:	f04f 0e00 	mov.w	lr, #0
 80003c6:	f1dc 0c00 	rsbs	ip, ip, #0
 80003ca:	eb7e 0000 	sbcs.w	r0, lr, r0
 80003ce:	eb6e 0101 	sbc.w	r1, lr, r1
 80003d2:	f5b1 1f80 	cmp.w	r1, #1048576	@ 0x100000
 80003d6:	d31b      	bcc.n	8000410 <__adddf3+0x124>
 80003d8:	f5b1 1f00 	cmp.w	r1, #2097152	@ 0x200000
 80003dc:	d30c      	bcc.n	80003f8 <__adddf3+0x10c>
 80003de:	0849      	lsrs	r1, r1, #1
 80003e0:	ea5f 0030 	movs.w	r0, r0, rrx
 80003e4:	ea4f 0c3c 	mov.w	ip, ip, rrx
 80003e8:	f104 0401 	add.w	r4, r4, #1
 80003ec:	ea4f 5244 	mov.w	r2, r4, lsl #21
 80003f0:	f512 0f80 	cmn.w	r2, #4194304	@ 0x400000
 80003f4:	f080 809a 	bcs.w	800052c <__adddf3+0x240>
 80003f8:	f1bc 4f00 	cmp.w	ip, #2147483648	@ 0x80000000
 80003fc:	bf08      	it	eq
 80003fe:	ea5f 0c50 	movseq.w	ip, r0, lsr #1
 8000402:	f150 0000 	adcs.w	r0, r0, #0
 8000406:	eb41 5104 	adc.w	r1, r1, r4, lsl #20
 800040a:	ea41 0105 	orr.w	r1, r1, r5
 800040e:	bd30      	pop	{r4, r5, pc}
 8000410:	ea5f 0c4c 	movs.w	ip, ip, lsl #1
 8000414:	4140      	adcs	r0, r0
 8000416:	eb41 0101 	adc.w	r1, r1, r1
 800041a:	3c01      	subs	r4, #1
 800041c:	bf28      	it	cs
 800041e:	f5b1 1f80 	cmpcs.w	r1, #1048576	@ 0x100000
 8000422:	d2e9      	bcs.n	80003f8 <__adddf3+0x10c>
 8000424:	f091 0f00 	teq	r1, #0
 8000428:	bf04      	itt	eq
 800042a:	4601      	moveq	r1, r0
 800042c:	2000      	moveq	r0, #0
 800042e:	fab1 f381 	clz	r3, r1
 8000432:	bf08      	it	eq
 8000434:	3320      	addeq	r3, #32
 8000436:	f1a3 030b 	sub.w	r3, r3, #11
 800043a:	f1b3 0220 	subs.w	r2, r3, #32
 800043e:	da0c      	bge.n	800045a <__adddf3+0x16e>
 8000440:	320c      	adds	r2, #12
 8000442:	dd08      	ble.n	8000456 <__adddf3+0x16a>
 8000444:	f102 0c14 	add.w	ip, r2, #20
 8000448:	f1c2 020c 	rsb	r2, r2, #12
 800044c:	fa01 f00c 	lsl.w	r0, r1, ip
 8000450:	fa21 f102 	lsr.w	r1, r1, r2
 8000454:	e00c      	b.n	8000470 <__adddf3+0x184>
 8000456:	f102 0214 	add.w	r2, r2, #20
 800045a:	bfd8      	it	le
 800045c:	f1c2 0c20 	rsble	ip, r2, #32
 8000460:	fa01 f102 	lsl.w	r1, r1, r2
 8000464:	fa20 fc0c 	lsr.w	ip, r0, ip
 8000468:	bfdc      	itt	le
 800046a:	ea41 010c 	orrle.w	r1, r1, ip
 800046e:	4090      	lslle	r0, r2
 8000470:	1ae4      	subs	r4, r4, r3
 8000472:	bfa2      	ittt	ge
 8000474:	eb01 5104 	addge.w	r1, r1, r4, lsl #20
 8000478:	4329      	orrge	r1, r5
 800047a:	bd30      	popge	{r4, r5, pc}
 800047c:	ea6f 0404 	mvn.w	r4, r4
 8000480:	3c1f      	subs	r4, #31
 8000482:	da1c      	bge.n	80004be <__adddf3+0x1d2>
 8000484:	340c      	adds	r4, #12
 8000486:	dc0e      	bgt.n	80004a6 <__adddf3+0x1ba>
 8000488:	f104 0414 	add.w	r4, r4, #20
 800048c:	f1c4 0220 	rsb	r2, r4, #32
 8000490:	fa20 f004 	lsr.w	r0, r0, r4
 8000494:	fa01 f302 	lsl.w	r3, r1, r2
 8000498:	ea40 0003 	orr.w	r0, r0, r3
 800049c:	fa21 f304 	lsr.w	r3, r1, r4
 80004a0:	ea45 0103 	orr.w	r1, r5, r3
 80004a4:	bd30      	pop	{r4, r5, pc}
 80004a6:	f1c4 040c 	rsb	r4, r4, #12
 80004aa:	f1c4 0220 	rsb	r2, r4, #32
 80004ae:	fa20 f002 	lsr.w	r0, r0, r2
 80004b2:	fa01 f304 	lsl.w	r3, r1, r4
 80004b6:	ea40 0003 	orr.w	r0, r0, r3
 80004ba:	4629      	mov	r1, r5
 80004bc:	bd30      	pop	{r4, r5, pc}
 80004be:	fa21 f004 	lsr.w	r0, r1, r4
 80004c2:	4629      	mov	r1, r5
 80004c4:	bd30      	pop	{r4, r5, pc}
 80004c6:	f094 0f00 	teq	r4, #0
 80004ca:	f483 1380 	eor.w	r3, r3, #1048576	@ 0x100000
 80004ce:	bf06      	itte	eq
 80004d0:	f481 1180 	eoreq.w	r1, r1, #1048576	@ 0x100000
 80004d4:	3401      	addeq	r4, #1
 80004d6:	3d01      	subne	r5, #1
 80004d8:	e74e      	b.n	8000378 <__adddf3+0x8c>
 80004da:	ea7f 5c64 	mvns.w	ip, r4, asr #21
 80004de:	bf18      	it	ne
 80004e0:	ea7f 5c65 	mvnsne.w	ip, r5, asr #21
 80004e4:	d029      	beq.n	800053a <__adddf3+0x24e>
 80004e6:	ea94 0f05 	teq	r4, r5
 80004ea:	bf08      	it	eq
 80004ec:	ea90 0f02 	teqeq	r0, r2
 80004f0:	d005      	beq.n	80004fe <__adddf3+0x212>
 80004f2:	ea54 0c00 	orrs.w	ip, r4, r0
 80004f6:	bf04      	itt	eq
 80004f8:	4619      	moveq	r1, r3
 80004fa:	4610      	moveq	r0, r2
 80004fc:	bd30      	pop	{r4, r5, pc}
 80004fe:	ea91 0f03 	teq	r1, r3
 8000502:	bf1e      	ittt	ne
 8000504:	2100      	movne	r1, #0
 8000506:	2000      	movne	r0, #0
 8000508:	bd30      	popne	{r4, r5, pc}
 800050a:	ea5f 5c54 	movs.w	ip, r4, lsr #21
 800050e:	d105      	bne.n	800051c <__adddf3+0x230>
 8000510:	0040      	lsls	r0, r0, #1
 8000512:	4149      	adcs	r1, r1
 8000514:	bf28      	it	cs
 8000516:	f041 4100 	orrcs.w	r1, r1, #2147483648	@ 0x80000000
 800051a:	bd30      	pop	{r4, r5, pc}
 800051c:	f514 0480 	adds.w	r4, r4, #4194304	@ 0x400000
 8000520:	bf3c      	itt	cc
 8000522:	f501 1180 	addcc.w	r1, r1, #1048576	@ 0x100000
 8000526:	bd30      	popcc	{r4, r5, pc}
 8000528:	f001 4500 	and.w	r5, r1, #2147483648	@ 0x80000000
 800052c:	f045 41fe 	orr.w	r1, r5, #2130706432	@ 0x7f000000
 8000530:	f441 0170 	orr.w	r1, r1, #15728640	@ 0xf00000
 8000534:	f04f 0000 	mov.w	r0, #0
 8000538:	bd30      	pop	{r4, r5, pc}
 800053a:	ea7f 5c64 	mvns.w	ip, r4, asr #21
 800053e:	bf1a      	itte	ne
 8000540:	4619      	movne	r1, r3
 8000542:	4610      	movne	r0, r2
 8000544:	ea7f 5c65 	mvnseq.w	ip, r5, asr #21
 8000548:	bf1c      	itt	ne
 800054a:	460b      	movne	r3, r1
 800054c:	4602      	movne	r2, r0
 800054e:	ea50 3401 	orrs.w	r4, r0, r1, lsl #12
 8000552:	bf06      	itte	eq
 8000554:	ea52 3503 	orrseq.w	r5, r2, r3, lsl #12
 8000558:	ea91 0f03 	teqeq	r1, r3
 800055c:	f441 2100 	orrne.w	r1, r1, #524288	@ 0x80000
 8000560:	bd30      	pop	{r4, r5, pc}
 8000562:	bf00      	nop

08000564 <__aeabi_ui2d>:
 8000564:	f090 0f00 	teq	r0, #0
 8000568:	bf04      	itt	eq
 800056a:	2100      	moveq	r1, #0
 800056c:	4770      	bxeq	lr
 800056e:	b530      	push	{r4, r5, lr}
 8000570:	f44f 6480 	mov.w	r4, #1024	@ 0x400
 8000574:	f104 0432 	add.w	r4, r4, #50	@ 0x32
 8000578:	f04f 0500 	mov.w	r5, #0
 800057c:	f04f 0100 	mov.w	r1, #0
 8000580:	e750      	b.n	8000424 <__adddf3+0x138>
 8000582:	bf00      	nop

08000584 <__aeabi_i2d>:
 8000584:	f090 0f00 	teq	r0, #0
 8000588:	bf04      	itt	eq
 800058a:	2100      	moveq	r1, #0
 800058c:	4770      	bxeq	lr
 800058e:	b530      	push	{r4, r5, lr}
 8000590:	f44f 6480 	mov.w	r4, #1024	@ 0x400
 8000594:	f104 0432 	add.w	r4, r4, #50	@ 0x32
 8000598:	f010 4500 	ands.w	r5, r0, #2147483648	@ 0x80000000
 800059c:	bf48      	it	mi
 800059e:	4240      	negmi	r0, r0
 80005a0:	f04f 0100 	mov.w	r1, #0
 80005a4:	e73e      	b.n	8000424 <__adddf3+0x138>
 80005a6:	bf00      	nop

080005a8 <__aeabi_f2d>:
 80005a8:	0042      	lsls	r2, r0, #1
 80005aa:	ea4f 01e2 	mov.w	r1, r2, asr #3
 80005ae:	ea4f 0131 	mov.w	r1, r1, rrx
 80005b2:	ea4f 7002 	mov.w	r0, r2, lsl #28
 80005b6:	bf1f      	itttt	ne
 80005b8:	f012 437f 	andsne.w	r3, r2, #4278190080	@ 0xff000000
 80005bc:	f093 4f7f 	teqne	r3, #4278190080	@ 0xff000000
 80005c0:	f081 5160 	eorne.w	r1, r1, #939524096	@ 0x38000000
 80005c4:	4770      	bxne	lr
 80005c6:	f032 427f 	bics.w	r2, r2, #4278190080	@ 0xff000000
 80005ca:	bf08      	it	eq
 80005cc:	4770      	bxeq	lr
 80005ce:	f093 4f7f 	teq	r3, #4278190080	@ 0xff000000
 80005d2:	bf04      	itt	eq
 80005d4:	f441 2100 	orreq.w	r1, r1, #524288	@ 0x80000
 80005d8:	4770      	bxeq	lr
 80005da:	b530      	push	{r4, r5, lr}
 80005dc:	f44f 7460 	mov.w	r4, #896	@ 0x380
 80005e0:	f001 4500 	and.w	r5, r1, #2147483648	@ 0x80000000
 80005e4:	f021 4100 	bic.w	r1, r1, #2147483648	@ 0x80000000
 80005e8:	e71c      	b.n	8000424 <__adddf3+0x138>
 80005ea:	bf00      	nop

080005ec <__aeabi_ul2d>:
 80005ec:	ea50 0201 	orrs.w	r2, r0, r1
 80005f0:	bf08      	it	eq
 80005f2:	4770      	bxeq	lr
 80005f4:	b530      	push	{r4, r5, lr}
 80005f6:	f04f 0500 	mov.w	r5, #0
 80005fa:	e00a      	b.n	8000612 <__aeabi_l2d+0x16>

080005fc <__aeabi_l2d>:
 80005fc:	ea50 0201 	orrs.w	r2, r0, r1
 8000600:	bf08      	it	eq
 8000602:	4770      	bxeq	lr
 8000604:	b530      	push	{r4, r5, lr}
 8000606:	f011 4500 	ands.w	r5, r1, #2147483648	@ 0x80000000
 800060a:	d502      	bpl.n	8000612 <__aeabi_l2d+0x16>
 800060c:	4240      	negs	r0, r0
 800060e:	eb61 0141 	sbc.w	r1, r1, r1, lsl #1
 8000612:	f44f 6480 	mov.w	r4, #1024	@ 0x400
 8000616:	f104 0432 	add.w	r4, r4, #50	@ 0x32
 800061a:	ea5f 5c91 	movs.w	ip, r1, lsr #22
 800061e:	f43f aed8 	beq.w	80003d2 <__adddf3+0xe6>
 8000622:	f04f 0203 	mov.w	r2, #3
 8000626:	ea5f 0cdc 	movs.w	ip, ip, lsr #3
 800062a:	bf18      	it	ne
 800062c:	3203      	addne	r2, #3
 800062e:	ea5f 0cdc 	movs.w	ip, ip, lsr #3
 8000632:	bf18      	it	ne
 8000634:	3203      	addne	r2, #3
 8000636:	eb02 02dc 	add.w	r2, r2, ip, lsr #3
 800063a:	f1c2 0320 	rsb	r3, r2, #32
 800063e:	fa00 fc03 	lsl.w	ip, r0, r3
 8000642:	fa20 f002 	lsr.w	r0, r0, r2
 8000646:	fa01 fe03 	lsl.w	lr, r1, r3
 800064a:	ea40 000e 	orr.w	r0, r0, lr
 800064e:	fa21 f102 	lsr.w	r1, r1, r2
 8000652:	4414      	add	r4, r2
 8000654:	e6bd      	b.n	80003d2 <__adddf3+0xe6>
 8000656:	bf00      	nop

08000658 <__aeabi_dmul>:
 8000658:	b570      	push	{r4, r5, r6, lr}
 800065a:	f04f 0cff 	mov.w	ip, #255	@ 0xff
 800065e:	f44c 6ce0 	orr.w	ip, ip, #1792	@ 0x700
 8000662:	ea1c 5411 	ands.w	r4, ip, r1, lsr #20
 8000666:	bf1d      	ittte	ne
 8000668:	ea1c 5513 	andsne.w	r5, ip, r3, lsr #20
 800066c:	ea94 0f0c 	teqne	r4, ip
 8000670:	ea95 0f0c 	teqne	r5, ip
 8000674:	f000 f8de 	bleq	8000834 <__aeabi_dmul+0x1dc>
 8000678:	442c      	add	r4, r5
 800067a:	ea81 0603 	eor.w	r6, r1, r3
 800067e:	ea21 514c 	bic.w	r1, r1, ip, lsl #21
 8000682:	ea23 534c 	bic.w	r3, r3, ip, lsl #21
 8000686:	ea50 3501 	orrs.w	r5, r0, r1, lsl #12
 800068a:	bf18      	it	ne
 800068c:	ea52 3503 	orrsne.w	r5, r2, r3, lsl #12
 8000690:	f441 1180 	orr.w	r1, r1, #1048576	@ 0x100000
 8000694:	f443 1380 	orr.w	r3, r3, #1048576	@ 0x100000
 8000698:	d038      	beq.n	800070c <__aeabi_dmul+0xb4>
 800069a:	fba0 ce02 	umull	ip, lr, r0, r2
 800069e:	f04f 0500 	mov.w	r5, #0
 80006a2:	fbe1 e502 	umlal	lr, r5, r1, r2
 80006a6:	f006 4200 	and.w	r2, r6, #2147483648	@ 0x80000000
 80006aa:	fbe0 e503 	umlal	lr, r5, r0, r3
 80006ae:	f04f 0600 	mov.w	r6, #0
 80006b2:	fbe1 5603 	umlal	r5, r6, r1, r3
 80006b6:	f09c 0f00 	teq	ip, #0
 80006ba:	bf18      	it	ne
 80006bc:	f04e 0e01 	orrne.w	lr, lr, #1
 80006c0:	f1a4 04ff 	sub.w	r4, r4, #255	@ 0xff
 80006c4:	f5b6 7f00 	cmp.w	r6, #512	@ 0x200
 80006c8:	f564 7440 	sbc.w	r4, r4, #768	@ 0x300
 80006cc:	d204      	bcs.n	80006d8 <__aeabi_dmul+0x80>
 80006ce:	ea5f 0e4e 	movs.w	lr, lr, lsl #1
 80006d2:	416d      	adcs	r5, r5
 80006d4:	eb46 0606 	adc.w	r6, r6, r6
 80006d8:	ea42 21c6 	orr.w	r1, r2, r6, lsl #11
 80006dc:	ea41 5155 	orr.w	r1, r1, r5, lsr #21
 80006e0:	ea4f 20c5 	mov.w	r0, r5, lsl #11
 80006e4:	ea40 505e 	orr.w	r0, r0, lr, lsr #21
 80006e8:	ea4f 2ece 	mov.w	lr, lr, lsl #11
 80006ec:	f1b4 0cfd 	subs.w	ip, r4, #253	@ 0xfd
 80006f0:	bf88      	it	hi
 80006f2:	f5bc 6fe0 	cmphi.w	ip, #1792	@ 0x700
 80006f6:	d81e      	bhi.n	8000736 <__aeabi_dmul+0xde>
 80006f8:	f1be 4f00 	cmp.w	lr, #2147483648	@ 0x80000000
 80006fc:	bf08      	it	eq
 80006fe:	ea5f 0e50 	movseq.w	lr, r0, lsr #1
 8000702:	f150 0000 	adcs.w	r0, r0, #0
 8000706:	eb41 5104 	adc.w	r1, r1, r4, lsl #20
 800070a:	bd70      	pop	{r4, r5, r6, pc}
 800070c:	f006 4600 	and.w	r6, r6, #2147483648	@ 0x80000000
 8000710:	ea46 0101 	orr.w	r1, r6, r1
 8000714:	ea40 0002 	orr.w	r0, r0, r2
 8000718:	ea81 0103 	eor.w	r1, r1, r3
 800071c:	ebb4 045c 	subs.w	r4, r4, ip, lsr #1
 8000720:	bfc2      	ittt	gt
 8000722:	ebd4 050c 	rsbsgt	r5, r4, ip
 8000726:	ea41 5104 	orrgt.w	r1, r1, r4, lsl #20
 800072a:	bd70      	popgt	{r4, r5, r6, pc}
 800072c:	f441 1180 	orr.w	r1, r1, #1048576	@ 0x100000
 8000730:	f04f 0e00 	mov.w	lr, #0
 8000734:	3c01      	subs	r4, #1
 8000736:	f300 80ab 	bgt.w	8000890 <__aeabi_dmul+0x238>
 800073a:	f114 0f36 	cmn.w	r4, #54	@ 0x36
 800073e:	bfde      	ittt	le
 8000740:	2000      	movle	r0, #0
 8000742:	f001 4100 	andle.w	r1, r1, #2147483648	@ 0x80000000
 8000746:	bd70      	pople	{r4, r5, r6, pc}
 8000748:	f1c4 0400 	rsb	r4, r4, #0
 800074c:	3c20      	subs	r4, #32
 800074e:	da35      	bge.n	80007bc <__aeabi_dmul+0x164>
 8000750:	340c      	adds	r4, #12
 8000752:	dc1b      	bgt.n	800078c <__aeabi_dmul+0x134>
 8000754:	f104 0414 	add.w	r4, r4, #20
 8000758:	f1c4 0520 	rsb	r5, r4, #32
 800075c:	fa00 f305 	lsl.w	r3, r0, r5
 8000760:	fa20 f004 	lsr.w	r0, r0, r4
 8000764:	fa01 f205 	lsl.w	r2, r1, r5
 8000768:	ea40 0002 	orr.w	r0, r0, r2
 800076c:	f001 4200 	and.w	r2, r1, #2147483648	@ 0x80000000
 8000770:	f021 4100 	bic.w	r1, r1, #2147483648	@ 0x80000000
 8000774:	eb10 70d3 	adds.w	r0, r0, r3, lsr #31
 8000778:	fa21 f604 	lsr.w	r6, r1, r4
 800077c:	eb42 0106 	adc.w	r1, r2, r6
 8000780:	ea5e 0e43 	orrs.w	lr, lr, r3, lsl #1
 8000784:	bf08      	it	eq
 8000786:	ea20 70d3 	biceq.w	r0, r0, r3, lsr #31
 800078a:	bd70      	pop	{r4, r5, r6, pc}
 800078c:	f1c4 040c 	rsb	r4, r4, #12
 8000790:	f1c4 0520 	rsb	r5, r4, #32
 8000794:	fa00 f304 	lsl.w	r3, r0, r4
 8000798:	fa20 f005 	lsr.w	r0, r0, r5
 800079c:	fa01 f204 	lsl.w	r2, r1, r4
 80007a0:	ea40 0002 	orr.w	r0, r0, r2
 80007a4:	f001 4100 	and.w	r1, r1, #2147483648	@ 0x80000000
 80007a8:	eb10 70d3 	adds.w	r0, r0, r3, lsr #31
 80007ac:	f141 0100 	adc.w	r1, r1, #0
 80007b0:	ea5e 0e43 	orrs.w	lr, lr, r3, lsl #1
 80007b4:	bf08      	it	eq
 80007b6:	ea20 70d3 	biceq.w	r0, r0, r3, lsr #31
 80007ba:	bd70      	pop	{r4, r5, r6, pc}
 80007bc:	f1c4 0520 	rsb	r5, r4, #32
 80007c0:	fa00 f205 	lsl.w	r2, r0, r5
 80007c4:	ea4e 0e02 	orr.w	lr, lr, r2
 80007c8:	fa20 f304 	lsr.w	r3, r0, r4
 80007cc:	fa01 f205 	lsl.w	r2, r1, r5
 80007d0:	ea43 0302 	orr.w	r3, r3, r2
 80007d4:	fa21 f004 	lsr.w	r0, r1, r4
 80007d8:	f001 4100 	and.w	r1, r1, #2147483648	@ 0x80000000
 80007dc:	fa21 f204 	lsr.w	r2, r1, r4
 80007e0:	ea20 0002 	bic.w	r0, r0, r2
 80007e4:	eb00 70d3 	add.w	r0, r0, r3, lsr #31
 80007e8:	ea5e 0e43 	orrs.w	lr, lr, r3, lsl #1
 80007ec:	bf08      	it	eq
 80007ee:	ea20 70d3 	biceq.w	r0, r0, r3, lsr #31
 80007f2:	bd70      	pop	{r4, r5, r6, pc}
 80007f4:	f094 0f00 	teq	r4, #0
 80007f8:	d10f      	bne.n	800081a <__aeabi_dmul+0x1c2>
 80007fa:	f001 4600 	and.w	r6, r1, #2147483648	@ 0x80000000
 80007fe:	0040      	lsls	r0, r0, #1
 8000800:	eb41 0101 	adc.w	r1, r1, r1
 8000804:	f411 1f80 	tst.w	r1, #1048576	@ 0x100000
 8000808:	bf08      	it	eq
 800080a:	3c01      	subeq	r4, #1
 800080c:	d0f7      	beq.n	80007fe <__aeabi_dmul+0x1a6>
 800080e:	ea41 0106 	orr.w	r1, r1, r6
 8000812:	f095 0f00 	teq	r5, #0
 8000816:	bf18      	it	ne
 8000818:	4770      	bxne	lr
 800081a:	f003 4600 	and.w	r6, r3, #2147483648	@ 0x80000000
 800081e:	0052      	lsls	r2, r2, #1
 8000820:	eb43 0303 	adc.w	r3, r3, r3
 8000824:	f413 1f80 	tst.w	r3, #1048576	@ 0x100000
 8000828:	bf08      	it	eq
 800082a:	3d01      	subeq	r5, #1
 800082c:	d0f7      	beq.n	800081e <__aeabi_dmul+0x1c6>
 800082e:	ea43 0306 	orr.w	r3, r3, r6
 8000832:	4770      	bx	lr
 8000834:	ea94 0f0c 	teq	r4, ip
 8000838:	ea0c 5513 	and.w	r5, ip, r3, lsr #20
 800083c:	bf18      	it	ne
 800083e:	ea95 0f0c 	teqne	r5, ip
 8000842:	d00c      	beq.n	800085e <__aeabi_dmul+0x206>
 8000844:	ea50 0641 	orrs.w	r6, r0, r1, lsl #1
 8000848:	bf18      	it	ne
 800084a:	ea52 0643 	orrsne.w	r6, r2, r3, lsl #1
 800084e:	d1d1      	bne.n	80007f4 <__aeabi_dmul+0x19c>
 8000850:	ea81 0103 	eor.w	r1, r1, r3
 8000854:	f001 4100 	and.w	r1, r1, #2147483648	@ 0x80000000
 8000858:	f04f 0000 	mov.w	r0, #0
 800085c:	bd70      	pop	{r4, r5, r6, pc}
 800085e:	ea50 0641 	orrs.w	r6, r0, r1, lsl #1
 8000862:	bf06      	itte	eq
 8000864:	4610      	moveq	r0, r2
 8000866:	4619      	moveq	r1, r3
 8000868:	ea52 0643 	orrsne.w	r6, r2, r3, lsl #1
 800086c:	d019      	beq.n	80008a2 <__aeabi_dmul+0x24a>
 800086e:	ea94 0f0c 	teq	r4, ip
 8000872:	d102      	bne.n	800087a <__aeabi_dmul+0x222>
 8000874:	ea50 3601 	orrs.w	r6, r0, r1, lsl #12
 8000878:	d113      	bne.n	80008a2 <__aeabi_dmul+0x24a>
 800087a:	ea95 0f0c 	teq	r5, ip
 800087e:	d105      	bne.n	800088c <__aeabi_dmul+0x234>
 8000880:	ea52 3603 	orrs.w	r6, r2, r3, lsl #12
 8000884:	bf1c      	itt	ne
 8000886:	4610      	movne	r0, r2
 8000888:	4619      	movne	r1, r3
 800088a:	d10a      	bne.n	80008a2 <__aeabi_dmul+0x24a>
 800088c:	ea81 0103 	eor.w	r1, r1, r3
 8000890:	f001 4100 	and.w	r1, r1, #2147483648	@ 0x80000000
 8000894:	f041 41fe 	orr.w	r1, r1, #2130706432	@ 0x7f000000
 8000898:	f441 0170 	orr.w	r1, r1, #15728640	@ 0xf00000
 800089c:	f04f 0000 	mov.w	r0, #0
 80008a0:	bd70      	pop	{r4, r5, r6, pc}
 80008a2:	f041 41fe 	orr.w	r1, r1, #2130706432	@ 0x7f000000
 80008a6:	f441 0178 	orr.w	r1, r1, #16252928	@ 0xf80000
 80008aa:	bd70      	pop	{r4, r5, r6, pc}

080008ac <__aeabi_ddiv>:
 80008ac:	b570      	push	{r4, r5, r6, lr}
 80008ae:	f04f 0cff 	mov.w	ip, #255	@ 0xff
 80008b2:	f44c 6ce0 	orr.w	ip, ip, #1792	@ 0x700
 80008b6:	ea1c 5411 	ands.w	r4, ip, r1, lsr #20
 80008ba:	bf1d      	ittte	ne
 80008bc:	ea1c 5513 	andsne.w	r5, ip, r3, lsr #20
 80008c0:	ea94 0f0c 	teqne	r4, ip
 80008c4:	ea95 0f0c 	teqne	r5, ip
 80008c8:	f000 f8a7 	bleq	8000a1a <__aeabi_ddiv+0x16e>
 80008cc:	eba4 0405 	sub.w	r4, r4, r5
 80008d0:	ea81 0e03 	eor.w	lr, r1, r3
 80008d4:	ea52 3503 	orrs.w	r5, r2, r3, lsl #12
 80008d8:	ea4f 3101 	mov.w	r1, r1, lsl #12
 80008dc:	f000 8088 	beq.w	80009f0 <__aeabi_ddiv+0x144>
 80008e0:	ea4f 3303 	mov.w	r3, r3, lsl #12
 80008e4:	f04f 5580 	mov.w	r5, #268435456	@ 0x10000000
 80008e8:	ea45 1313 	orr.w	r3, r5, r3, lsr #4
 80008ec:	ea43 6312 	orr.w	r3, r3, r2, lsr #24
 80008f0:	ea4f 2202 	mov.w	r2, r2, lsl #8
 80008f4:	ea45 1511 	orr.w	r5, r5, r1, lsr #4
 80008f8:	ea45 6510 	orr.w	r5, r5, r0, lsr #24
 80008fc:	ea4f 2600 	mov.w	r6, r0, lsl #8
 8000900:	f00e 4100 	and.w	r1, lr, #2147483648	@ 0x80000000
 8000904:	429d      	cmp	r5, r3
 8000906:	bf08      	it	eq
 8000908:	4296      	cmpeq	r6, r2
 800090a:	f144 04fd 	adc.w	r4, r4, #253	@ 0xfd
 800090e:	f504 7440 	add.w	r4, r4, #768	@ 0x300
 8000912:	d202      	bcs.n	800091a <__aeabi_ddiv+0x6e>
 8000914:	085b      	lsrs	r3, r3, #1
 8000916:	ea4f 0232 	mov.w	r2, r2, rrx
 800091a:	1ab6      	subs	r6, r6, r2
 800091c:	eb65 0503 	sbc.w	r5, r5, r3
 8000920:	085b      	lsrs	r3, r3, #1
 8000922:	ea4f 0232 	mov.w	r2, r2, rrx
 8000926:	f44f 1080 	mov.w	r0, #1048576	@ 0x100000
 800092a:	f44f 2c00 	mov.w	ip, #524288	@ 0x80000
 800092e:	ebb6 0e02 	subs.w	lr, r6, r2
 8000932:	eb75 0e03 	sbcs.w	lr, r5, r3
 8000936:	bf22      	ittt	cs
 8000938:	1ab6      	subcs	r6, r6, r2
 800093a:	4675      	movcs	r5, lr
 800093c:	ea40 000c 	orrcs.w	r0, r0, ip
 8000940:	085b      	lsrs	r3, r3, #1
 8000942:	ea4f 0232 	mov.w	r2, r2, rrx
 8000946:	ebb6 0e02 	subs.w	lr, r6, r2
 800094a:	eb75 0e03 	sbcs.w	lr, r5, r3
 800094e:	bf22      	ittt	cs
 8000950:	1ab6      	subcs	r6, r6, r2
 8000952:	4675      	movcs	r5, lr
 8000954:	ea40 005c 	orrcs.w	r0, r0, ip, lsr #1
 8000958:	085b      	lsrs	r3, r3, #1
 800095a:	ea4f 0232 	mov.w	r2, r2, rrx
 800095e:	ebb6 0e02 	subs.w	lr, r6, r2
 8000962:	eb75 0e03 	sbcs.w	lr, r5, r3
 8000966:	bf22      	ittt	cs
 8000968:	1ab6      	subcs	r6, r6, r2
 800096a:	4675      	movcs	r5, lr
 800096c:	ea40 009c 	orrcs.w	r0, r0, ip, lsr #2
 8000970:	085b      	lsrs	r3, r3, #1
 8000972:	ea4f 0232 	mov.w	r2, r2, rrx
 8000976:	ebb6 0e02 	subs.w	lr, r6, r2
 800097a:	eb75 0e03 	sbcs.w	lr, r5, r3
 800097e:	bf22      	ittt	cs
 8000980:	1ab6      	subcs	r6, r6, r2
 8000982:	4675      	movcs	r5, lr
 8000984:	ea40 00dc 	orrcs.w	r0, r0, ip, lsr #3
 8000988:	ea55 0e06 	orrs.w	lr, r5, r6
 800098c:	d018      	beq.n	80009c0 <__aeabi_ddiv+0x114>
 800098e:	ea4f 1505 	mov.w	r5, r5, lsl #4
 8000992:	ea45 7516 	orr.w	r5, r5, r6, lsr #28
 8000996:	ea4f 1606 	mov.w	r6, r6, lsl #4
 800099a:	ea4f 03c3 	mov.w	r3, r3, lsl #3
 800099e:	ea43 7352 	orr.w	r3, r3, r2, lsr #29
 80009a2:	ea4f 02c2 	mov.w	r2, r2, lsl #3
 80009a6:	ea5f 1c1c 	movs.w	ip, ip, lsr #4
 80009aa:	d1c0      	bne.n	800092e <__aeabi_ddiv+0x82>
 80009ac:	f411 1f80 	tst.w	r1, #1048576	@ 0x100000
 80009b0:	d10b      	bne.n	80009ca <__aeabi_ddiv+0x11e>
 80009b2:	ea41 0100 	orr.w	r1, r1, r0
 80009b6:	f04f 0000 	mov.w	r0, #0
 80009ba:	f04f 4c00 	mov.w	ip, #2147483648	@ 0x80000000
 80009be:	e7b6      	b.n	800092e <__aeabi_ddiv+0x82>
 80009c0:	f411 1f80 	tst.w	r1, #1048576	@ 0x100000
 80009c4:	bf04      	itt	eq
 80009c6:	4301      	orreq	r1, r0
 80009c8:	2000      	moveq	r0, #0
 80009ca:	f1b4 0cfd 	subs.w	ip, r4, #253	@ 0xfd
 80009ce:	bf88      	it	hi
 80009d0:	f5bc 6fe0 	cmphi.w	ip, #1792	@ 0x700
 80009d4:	f63f aeaf 	bhi.w	8000736 <__aeabi_dmul+0xde>
 80009d8:	ebb5 0c03 	subs.w	ip, r5, r3
 80009dc:	bf04      	itt	eq
 80009de:	ebb6 0c02 	subseq.w	ip, r6, r2
 80009e2:	ea5f 0c50 	movseq.w	ip, r0, lsr #1
 80009e6:	f150 0000 	adcs.w	r0, r0, #0
 80009ea:	eb41 5104 	adc.w	r1, r1, r4, lsl #20
 80009ee:	bd70      	pop	{r4, r5, r6, pc}
 80009f0:	f00e 4e00 	and.w	lr, lr, #2147483648	@ 0x80000000
 80009f4:	ea4e 3111 	orr.w	r1, lr, r1, lsr #12
 80009f8:	eb14 045c 	adds.w	r4, r4, ip, lsr #1
 80009fc:	bfc2      	ittt	gt
 80009fe:	ebd4 050c 	rsbsgt	r5, r4, ip
 8000a02:	ea41 5104 	orrgt.w	r1, r1, r4, lsl #20
 8000a06:	bd70      	popgt	{r4, r5, r6, pc}
 8000a08:	f441 1180 	orr.w	r1, r1, #1048576	@ 0x100000
 8000a0c:	f04f 0e00 	mov.w	lr, #0
 8000a10:	3c01      	subs	r4, #1
 8000a12:	e690      	b.n	8000736 <__aeabi_dmul+0xde>
 8000a14:	ea45 0e06 	orr.w	lr, r5, r6
 8000a18:	e68d      	b.n	8000736 <__aeabi_dmul+0xde>
 8000a1a:	ea0c 5513 	and.w	r5, ip, r3, lsr #20
 8000a1e:	ea94 0f0c 	teq	r4, ip
 8000a22:	bf08      	it	eq
 8000a24:	ea95 0f0c 	teqeq	r5, ip
 8000a28:	f43f af3b 	beq.w	80008a2 <__aeabi_dmul+0x24a>
 8000a2c:	ea94 0f0c 	teq	r4, ip
 8000a30:	d10a      	bne.n	8000a48 <__aeabi_ddiv+0x19c>
 8000a32:	ea50 3401 	orrs.w	r4, r0, r1, lsl #12
 8000a36:	f47f af34 	bne.w	80008a2 <__aeabi_dmul+0x24a>
 8000a3a:	ea95 0f0c 	teq	r5, ip
 8000a3e:	f47f af25 	bne.w	800088c <__aeabi_dmul+0x234>
 8000a42:	4610      	mov	r0, r2
 8000a44:	4619      	mov	r1, r3
 8000a46:	e72c      	b.n	80008a2 <__aeabi_dmul+0x24a>
 8000a48:	ea95 0f0c 	teq	r5, ip
 8000a4c:	d106      	bne.n	8000a5c <__aeabi_ddiv+0x1b0>
 8000a4e:	ea52 3503 	orrs.w	r5, r2, r3, lsl #12
 8000a52:	f43f aefd 	beq.w	8000850 <__aeabi_dmul+0x1f8>
 8000a56:	4610      	mov	r0, r2
 8000a58:	4619      	mov	r1, r3
 8000a5a:	e722      	b.n	80008a2 <__aeabi_dmul+0x24a>
 8000a5c:	ea50 0641 	orrs.w	r6, r0, r1, lsl #1
 8000a60:	bf18      	it	ne
 8000a62:	ea52 0643 	orrsne.w	r6, r2, r3, lsl #1
 8000a66:	f47f aec5 	bne.w	80007f4 <__aeabi_dmul+0x19c>
 8000a6a:	ea50 0441 	orrs.w	r4, r0, r1, lsl #1
 8000a6e:	f47f af0d 	bne.w	800088c <__aeabi_dmul+0x234>
 8000a72:	ea52 0543 	orrs.w	r5, r2, r3, lsl #1
 8000a76:	f47f aeeb 	bne.w	8000850 <__aeabi_dmul+0x1f8>
 8000a7a:	e712      	b.n	80008a2 <__aeabi_dmul+0x24a>

08000a7c <__gedf2>:
 8000a7c:	f04f 3cff 	mov.w	ip, #4294967295
 8000a80:	e006      	b.n	8000a90 <__cmpdf2+0x4>
 8000a82:	bf00      	nop

08000a84 <__ledf2>:
 8000a84:	f04f 0c01 	mov.w	ip, #1
 8000a88:	e002      	b.n	8000a90 <__cmpdf2+0x4>
 8000a8a:	bf00      	nop

08000a8c <__cmpdf2>:
 8000a8c:	f04f 0c01 	mov.w	ip, #1
 8000a90:	f84d cd04 	str.w	ip, [sp, #-4]!
 8000a94:	ea4f 0c41 	mov.w	ip, r1, lsl #1
 8000a98:	ea7f 5c6c 	mvns.w	ip, ip, asr #21
 8000a9c:	ea4f 0c43 	mov.w	ip, r3, lsl #1
 8000aa0:	bf18      	it	ne
 8000aa2:	ea7f 5c6c 	mvnsne.w	ip, ip, asr #21
 8000aa6:	d01b      	beq.n	8000ae0 <__cmpdf2+0x54>
 8000aa8:	b001      	add	sp, #4
 8000aaa:	ea50 0c41 	orrs.w	ip, r0, r1, lsl #1
 8000aae:	bf0c      	ite	eq
 8000ab0:	ea52 0c43 	orrseq.w	ip, r2, r3, lsl #1
 8000ab4:	ea91 0f03 	teqne	r1, r3
 8000ab8:	bf02      	ittt	eq
 8000aba:	ea90 0f02 	teqeq	r0, r2
 8000abe:	2000      	moveq	r0, #0
 8000ac0:	4770      	bxeq	lr
 8000ac2:	f110 0f00 	cmn.w	r0, #0
 8000ac6:	ea91 0f03 	teq	r1, r3
 8000aca:	bf58      	it	pl
 8000acc:	4299      	cmppl	r1, r3
 8000ace:	bf08      	it	eq
 8000ad0:	4290      	cmpeq	r0, r2
 8000ad2:	bf2c      	ite	cs
 8000ad4:	17d8      	asrcs	r0, r3, #31
 8000ad6:	ea6f 70e3 	mvncc.w	r0, r3, asr #31
 8000ada:	f040 0001 	orr.w	r0, r0, #1
 8000ade:	4770      	bx	lr
 8000ae0:	ea4f 0c41 	mov.w	ip, r1, lsl #1
 8000ae4:	ea7f 5c6c 	mvns.w	ip, ip, asr #21
 8000ae8:	d102      	bne.n	8000af0 <__cmpdf2+0x64>
 8000aea:	ea50 3c01 	orrs.w	ip, r0, r1, lsl #12
 8000aee:	d107      	bne.n	8000b00 <__cmpdf2+0x74>
 8000af0:	ea4f 0c43 	mov.w	ip, r3, lsl #1
 8000af4:	ea7f 5c6c 	mvns.w	ip, ip, asr #21
 8000af8:	d1d6      	bne.n	8000aa8 <__cmpdf2+0x1c>
 8000afa:	ea52 3c03 	orrs.w	ip, r2, r3, lsl #12
 8000afe:	d0d3      	beq.n	8000aa8 <__cmpdf2+0x1c>
 8000b00:	f85d 0b04 	ldr.w	r0, [sp], #4
 8000b04:	4770      	bx	lr
 8000b06:	bf00      	nop

08000b08 <__aeabi_cdrcmple>:
 8000b08:	4684      	mov	ip, r0
 8000b0a:	4610      	mov	r0, r2
 8000b0c:	4662      	mov	r2, ip
 8000b0e:	468c      	mov	ip, r1
 8000b10:	4619      	mov	r1, r3
 8000b12:	4663      	mov	r3, ip
 8000b14:	e000      	b.n	8000b18 <__aeabi_cdcmpeq>
 8000b16:	bf00      	nop

08000b18 <__aeabi_cdcmpeq>:
 8000b18:	b501      	push	{r0, lr}
 8000b1a:	f7ff ffb7 	bl	8000a8c <__cmpdf2>
 8000b1e:	2800      	cmp	r0, #0
 8000b20:	bf48      	it	mi
 8000b22:	f110 0f00 	cmnmi.w	r0, #0
 8000b26:	bd01      	pop	{r0, pc}

08000b28 <__aeabi_dcmpeq>:
 8000b28:	f84d ed08 	str.w	lr, [sp, #-8]!
 8000b2c:	f7ff fff4 	bl	8000b18 <__aeabi_cdcmpeq>
 8000b30:	bf0c      	ite	eq
 8000b32:	2001      	moveq	r0, #1
 8000b34:	2000      	movne	r0, #0
 8000b36:	f85d fb08 	ldr.w	pc, [sp], #8
 8000b3a:	bf00      	nop

08000b3c <__aeabi_dcmplt>:
 8000b3c:	f84d ed08 	str.w	lr, [sp, #-8]!
 8000b40:	f7ff ffea 	bl	8000b18 <__aeabi_cdcmpeq>
 8000b44:	bf34      	ite	cc
 8000b46:	2001      	movcc	r0, #1
 8000b48:	2000      	movcs	r0, #0
 8000b4a:	f85d fb08 	ldr.w	pc, [sp], #8
 8000b4e:	bf00      	nop

08000b50 <__aeabi_dcmple>:
 8000b50:	f84d ed08 	str.w	lr, [sp, #-8]!
 8000b54:	f7ff ffe0 	bl	8000b18 <__aeabi_cdcmpeq>
 8000b58:	bf94      	ite	ls
 8000b5a:	2001      	movls	r0, #1
 8000b5c:	2000      	movhi	r0, #0
 8000b5e:	f85d fb08 	ldr.w	pc, [sp], #8
 8000b62:	bf00      	nop

08000b64 <__aeabi_dcmpge>:
 8000b64:	f84d ed08 	str.w	lr, [sp, #-8]!
 8000b68:	f7ff ffce 	bl	8000b08 <__aeabi_cdrcmple>
 8000b6c:	bf94      	ite	ls
 8000b6e:	2001      	movls	r0, #1
 8000b70:	2000      	movhi	r0, #0
 8000b72:	f85d fb08 	ldr.w	pc, [sp], #8
 8000b76:	bf00      	nop

08000b78 <__aeabi_dcmpgt>:
 8000b78:	f84d ed08 	str.w	lr, [sp, #-8]!
 8000b7c:	f7ff ffc4 	bl	8000b08 <__aeabi_cdrcmple>
 8000b80:	bf34      	ite	cc
 8000b82:	2001      	movcc	r0, #1
 8000b84:	2000      	movcs	r0, #0
 8000b86:	f85d fb08 	ldr.w	pc, [sp], #8
 8000b8a:	bf00      	nop

08000b8c <__aeabi_dcmpun>:
 8000b8c:	ea4f 0c41 	mov.w	ip, r1, lsl #1
 8000b90:	ea7f 5c6c 	mvns.w	ip, ip, asr #21
 8000b94:	d102      	bne.n	8000b9c <__aeabi_dcmpun+0x10>
 8000b96:	ea50 3c01 	orrs.w	ip, r0, r1, lsl #12
 8000b9a:	d10a      	bne.n	8000bb2 <__aeabi_dcmpun+0x26>
 8000b9c:	ea4f 0c43 	mov.w	ip, r3, lsl #1
 8000ba0:	ea7f 5c6c 	mvns.w	ip, ip, asr #21
 8000ba4:	d102      	bne.n	8000bac <__aeabi_dcmpun+0x20>
 8000ba6:	ea52 3c03 	orrs.w	ip, r2, r3, lsl #12
 8000baa:	d102      	bne.n	8000bb2 <__aeabi_dcmpun+0x26>
 8000bac:	f04f 0000 	mov.w	r0, #0
 8000bb0:	4770      	bx	lr
 8000bb2:	f04f 0001 	mov.w	r0, #1
 8000bb6:	4770      	bx	lr

08000bb8 <__aeabi_d2iz>:
 8000bb8:	ea4f 0241 	mov.w	r2, r1, lsl #1
 8000bbc:	f512 1200 	adds.w	r2, r2, #2097152	@ 0x200000
 8000bc0:	d215      	bcs.n	8000bee <__aeabi_d2iz+0x36>
 8000bc2:	d511      	bpl.n	8000be8 <__aeabi_d2iz+0x30>
 8000bc4:	f46f 7378 	mvn.w	r3, #992	@ 0x3e0
 8000bc8:	ebb3 5262 	subs.w	r2, r3, r2, asr #21
 8000bcc:	d912      	bls.n	8000bf4 <__aeabi_d2iz+0x3c>
 8000bce:	ea4f 23c1 	mov.w	r3, r1, lsl #11
 8000bd2:	f043 4300 	orr.w	r3, r3, #2147483648	@ 0x80000000
 8000bd6:	ea43 5350 	orr.w	r3, r3, r0, lsr #21
 8000bda:	f011 4f00 	tst.w	r1, #2147483648	@ 0x80000000
 8000bde:	fa23 f002 	lsr.w	r0, r3, r2
 8000be2:	bf18      	it	ne
 8000be4:	4240      	negne	r0, r0
 8000be6:	4770      	bx	lr
 8000be8:	f04f 0000 	mov.w	r0, #0
 8000bec:	4770      	bx	lr
 8000bee:	ea50 3001 	orrs.w	r0, r0, r1, lsl #12
 8000bf2:	d105      	bne.n	8000c00 <__aeabi_d2iz+0x48>
 8000bf4:	f011 4000 	ands.w	r0, r1, #2147483648	@ 0x80000000
 8000bf8:	bf08      	it	eq
 8000bfa:	f06f 4000 	mvneq.w	r0, #2147483648	@ 0x80000000
 8000bfe:	4770      	bx	lr
 8000c00:	f04f 0000 	mov.w	r0, #0
 8000c04:	4770      	bx	lr
 8000c06:	bf00      	nop

08000c08 <__aeabi_uldivmod>:
 8000c08:	b953      	cbnz	r3, 8000c20 <__aeabi_uldivmod+0x18>
 8000c0a:	b94a      	cbnz	r2, 8000c20 <__aeabi_uldivmod+0x18>
 8000c0c:	2900      	cmp	r1, #0
 8000c0e:	bf08      	it	eq
 8000c10:	2800      	cmpeq	r0, #0
 8000c12:	bf1c      	itt	ne
 8000c14:	f04f 31ff 	movne.w	r1, #4294967295
 8000c18:	f04f 30ff 	movne.w	r0, #4294967295
 8000c1c:	f000 b96a 	b.w	8000ef4 <__aeabi_idiv0>
 8000c20:	f1ad 0c08 	sub.w	ip, sp, #8
 8000c24:	e96d ce04 	strd	ip, lr, [sp, #-16]!
 8000c28:	f000 f806 	bl	8000c38 <__udivmoddi4>
 8000c2c:	f8dd e004 	ldr.w	lr, [sp, #4]
 8000c30:	e9dd 2302 	ldrd	r2, r3, [sp, #8]
 8000c34:	b004      	add	sp, #16
 8000c36:	4770      	bx	lr

08000c38 <__udivmoddi4>:
 8000c38:	e92d 47f0 	stmdb	sp!, {r4, r5, r6, r7, r8, r9, sl, lr}
 8000c3c:	9d08      	ldr	r5, [sp, #32]
 8000c3e:	460c      	mov	r4, r1
 8000c40:	2b00      	cmp	r3, #0
 8000c42:	d14e      	bne.n	8000ce2 <__udivmoddi4+0xaa>
 8000c44:	4694      	mov	ip, r2
 8000c46:	458c      	cmp	ip, r1
 8000c48:	4686      	mov	lr, r0
 8000c4a:	fab2 f282 	clz	r2, r2
 8000c4e:	d962      	bls.n	8000d16 <__udivmoddi4+0xde>
 8000c50:	b14a      	cbz	r2, 8000c66 <__udivmoddi4+0x2e>
 8000c52:	f1c2 0320 	rsb	r3, r2, #32
 8000c56:	4091      	lsls	r1, r2
 8000c58:	fa20 f303 	lsr.w	r3, r0, r3
 8000c5c:	fa0c fc02 	lsl.w	ip, ip, r2
 8000c60:	4319      	orrs	r1, r3
 8000c62:	fa00 fe02 	lsl.w	lr, r0, r2
 8000c66:	ea4f 471c 	mov.w	r7, ip, lsr #16
 8000c6a:	fa1f f68c 	uxth.w	r6, ip
 8000c6e:	fbb1 f4f7 	udiv	r4, r1, r7
 8000c72:	ea4f 431e 	mov.w	r3, lr, lsr #16
 8000c76:	fb07 1114 	mls	r1, r7, r4, r1
 8000c7a:	ea43 4301 	orr.w	r3, r3, r1, lsl #16
 8000c7e:	fb04 f106 	mul.w	r1, r4, r6
 8000c82:	4299      	cmp	r1, r3
 8000c84:	d90a      	bls.n	8000c9c <__udivmoddi4+0x64>
 8000c86:	eb1c 0303 	adds.w	r3, ip, r3
 8000c8a:	f104 30ff 	add.w	r0, r4, #4294967295
 8000c8e:	f080 8112 	bcs.w	8000eb6 <__udivmoddi4+0x27e>
 8000c92:	4299      	cmp	r1, r3
 8000c94:	f240 810f 	bls.w	8000eb6 <__udivmoddi4+0x27e>
 8000c98:	3c02      	subs	r4, #2
 8000c9a:	4463      	add	r3, ip
 8000c9c:	1a59      	subs	r1, r3, r1
 8000c9e:	fa1f f38e 	uxth.w	r3, lr
 8000ca2:	fbb1 f0f7 	udiv	r0, r1, r7
 8000ca6:	fb07 1110 	mls	r1, r7, r0, r1
 8000caa:	ea43 4301 	orr.w	r3, r3, r1, lsl #16
 8000cae:	fb00 f606 	mul.w	r6, r0, r6
 8000cb2:	429e      	cmp	r6, r3
 8000cb4:	d90a      	bls.n	8000ccc <__udivmoddi4+0x94>
 8000cb6:	eb1c 0303 	adds.w	r3, ip, r3
 8000cba:	f100 31ff 	add.w	r1, r0, #4294967295
 8000cbe:	f080 80fc 	bcs.w	8000eba <__udivmoddi4+0x282>
 8000cc2:	429e      	cmp	r6, r3
 8000cc4:	f240 80f9 	bls.w	8000eba <__udivmoddi4+0x282>
 8000cc8:	4463      	add	r3, ip
 8000cca:	3802      	subs	r0, #2
 8000ccc:	1b9b      	subs	r3, r3, r6
 8000cce:	ea40 4004 	orr.w	r0, r0, r4, lsl #16
 8000cd2:	2100      	movs	r1, #0
 8000cd4:	b11d      	cbz	r5, 8000cde <__udivmoddi4+0xa6>
 8000cd6:	40d3      	lsrs	r3, r2
 8000cd8:	2200      	movs	r2, #0
 8000cda:	e9c5 3200 	strd	r3, r2, [r5]
 8000cde:	e8bd 87f0 	ldmia.w	sp!, {r4, r5, r6, r7, r8, r9, sl, pc}
 8000ce2:	428b      	cmp	r3, r1
 8000ce4:	d905      	bls.n	8000cf2 <__udivmoddi4+0xba>
 8000ce6:	b10d      	cbz	r5, 8000cec <__udivmoddi4+0xb4>
 8000ce8:	e9c5 0100 	strd	r0, r1, [r5]
 8000cec:	2100      	movs	r1, #0
 8000cee:	4608      	mov	r0, r1
 8000cf0:	e7f5      	b.n	8000cde <__udivmoddi4+0xa6>
 8000cf2:	fab3 f183 	clz	r1, r3
 8000cf6:	2900      	cmp	r1, #0
 8000cf8:	d146      	bne.n	8000d88 <__udivmoddi4+0x150>
 8000cfa:	42a3      	cmp	r3, r4
 8000cfc:	d302      	bcc.n	8000d04 <__udivmoddi4+0xcc>
 8000cfe:	4290      	cmp	r0, r2
 8000d00:	f0c0 80f0 	bcc.w	8000ee4 <__udivmoddi4+0x2ac>
 8000d04:	1a86      	subs	r6, r0, r2
 8000d06:	eb64 0303 	sbc.w	r3, r4, r3
 8000d0a:	2001      	movs	r0, #1
 8000d0c:	2d00      	cmp	r5, #0
 8000d0e:	d0e6      	beq.n	8000cde <__udivmoddi4+0xa6>
 8000d10:	e9c5 6300 	strd	r6, r3, [r5]
 8000d14:	e7e3      	b.n	8000cde <__udivmoddi4+0xa6>
 8000d16:	2a00      	cmp	r2, #0
 8000d18:	f040 8090 	bne.w	8000e3c <__udivmoddi4+0x204>
 8000d1c:	eba1 040c 	sub.w	r4, r1, ip
 8000d20:	ea4f 481c 	mov.w	r8, ip, lsr #16
 8000d24:	fa1f f78c 	uxth.w	r7, ip
 8000d28:	2101      	movs	r1, #1
 8000d2a:	fbb4 f6f8 	udiv	r6, r4, r8
 8000d2e:	ea4f 431e 	mov.w	r3, lr, lsr #16
 8000d32:	fb08 4416 	mls	r4, r8, r6, r4
 8000d36:	ea43 4304 	orr.w	r3, r3, r4, lsl #16
 8000d3a:	fb07 f006 	mul.w	r0, r7, r6
 8000d3e:	4298      	cmp	r0, r3
 8000d40:	d908      	bls.n	8000d54 <__udivmoddi4+0x11c>
 8000d42:	eb1c 0303 	adds.w	r3, ip, r3
 8000d46:	f106 34ff 	add.w	r4, r6, #4294967295
 8000d4a:	d202      	bcs.n	8000d52 <__udivmoddi4+0x11a>
 8000d4c:	4298      	cmp	r0, r3
 8000d4e:	f200 80cd 	bhi.w	8000eec <__udivmoddi4+0x2b4>
 8000d52:	4626      	mov	r6, r4
 8000d54:	1a1c      	subs	r4, r3, r0
 8000d56:	fa1f f38e 	uxth.w	r3, lr
 8000d5a:	fbb4 f0f8 	udiv	r0, r4, r8
 8000d5e:	fb08 4410 	mls	r4, r8, r0, r4
 8000d62:	ea43 4304 	orr.w	r3, r3, r4, lsl #16
 8000d66:	fb00 f707 	mul.w	r7, r0, r7
 8000d6a:	429f      	cmp	r7, r3
 8000d6c:	d908      	bls.n	8000d80 <__udivmoddi4+0x148>
 8000d6e:	eb1c 0303 	adds.w	r3, ip, r3
 8000d72:	f100 34ff 	add.w	r4, r0, #4294967295
 8000d76:	d202      	bcs.n	8000d7e <__udivmoddi4+0x146>
 8000d78:	429f      	cmp	r7, r3
 8000d7a:	f200 80b0 	bhi.w	8000ede <__udivmoddi4+0x2a6>
 8000d7e:	4620      	mov	r0, r4
 8000d80:	1bdb      	subs	r3, r3, r7
 8000d82:	ea40 4006 	orr.w	r0, r0, r6, lsl #16
 8000d86:	e7a5      	b.n	8000cd4 <__udivmoddi4+0x9c>
 8000d88:	f1c1 0620 	rsb	r6, r1, #32
 8000d8c:	408b      	lsls	r3, r1
 8000d8e:	fa22 f706 	lsr.w	r7, r2, r6
 8000d92:	431f      	orrs	r7, r3
 8000d94:	fa20 fc06 	lsr.w	ip, r0, r6
 8000d98:	fa04 f301 	lsl.w	r3, r4, r1
 8000d9c:	ea43 030c 	orr.w	r3, r3, ip
 8000da0:	40f4      	lsrs	r4, r6
 8000da2:	fa00 f801 	lsl.w	r8, r0, r1
 8000da6:	0c38      	lsrs	r0, r7, #16
 8000da8:	ea4f 4913 	mov.w	r9, r3, lsr #16
 8000dac:	fbb4 fef0 	udiv	lr, r4, r0
 8000db0:	fa1f fc87 	uxth.w	ip, r7
 8000db4:	fb00 441e 	mls	r4, r0, lr, r4
 8000db8:	ea49 4404 	orr.w	r4, r9, r4, lsl #16
 8000dbc:	fb0e f90c 	mul.w	r9, lr, ip
 8000dc0:	45a1      	cmp	r9, r4
 8000dc2:	fa02 f201 	lsl.w	r2, r2, r1
 8000dc6:	d90a      	bls.n	8000dde <__udivmoddi4+0x1a6>
 8000dc8:	193c      	adds	r4, r7, r4
 8000dca:	f10e 3aff 	add.w	sl, lr, #4294967295
 8000dce:	f080 8084 	bcs.w	8000eda <__udivmoddi4+0x2a2>
 8000dd2:	45a1      	cmp	r9, r4
 8000dd4:	f240 8081 	bls.w	8000eda <__udivmoddi4+0x2a2>
 8000dd8:	f1ae 0e02 	sub.w	lr, lr, #2
 8000ddc:	443c      	add	r4, r7
 8000dde:	eba4 0409 	sub.w	r4, r4, r9
 8000de2:	fa1f f983 	uxth.w	r9, r3
 8000de6:	fbb4 f3f0 	udiv	r3, r4, r0
 8000dea:	fb00 4413 	mls	r4, r0, r3, r4
 8000dee:	ea49 4404 	orr.w	r4, r9, r4, lsl #16
 8000df2:	fb03 fc0c 	mul.w	ip, r3, ip
 8000df6:	45a4      	cmp	ip, r4
 8000df8:	d907      	bls.n	8000e0a <__udivmoddi4+0x1d2>
 8000dfa:	193c      	adds	r4, r7, r4
 8000dfc:	f103 30ff 	add.w	r0, r3, #4294967295
 8000e00:	d267      	bcs.n	8000ed2 <__udivmoddi4+0x29a>
 8000e02:	45a4      	cmp	ip, r4
 8000e04:	d965      	bls.n	8000ed2 <__udivmoddi4+0x29a>
 8000e06:	3b02      	subs	r3, #2
 8000e08:	443c      	add	r4, r7
 8000e0a:	ea43 400e 	orr.w	r0, r3, lr, lsl #16
 8000e0e:	fba0 9302 	umull	r9, r3, r0, r2
 8000e12:	eba4 040c 	sub.w	r4, r4, ip
 8000e16:	429c      	cmp	r4, r3
 8000e18:	46ce      	mov	lr, r9
 8000e1a:	469c      	mov	ip, r3
 8000e1c:	d351      	bcc.n	8000ec2 <__udivmoddi4+0x28a>
 8000e1e:	d04e      	beq.n	8000ebe <__udivmoddi4+0x286>
 8000e20:	b155      	cbz	r5, 8000e38 <__udivmoddi4+0x200>
 8000e22:	ebb8 030e 	subs.w	r3, r8, lr
 8000e26:	eb64 040c 	sbc.w	r4, r4, ip
 8000e2a:	fa04 f606 	lsl.w	r6, r4, r6
 8000e2e:	40cb      	lsrs	r3, r1
 8000e30:	431e      	orrs	r6, r3
 8000e32:	40cc      	lsrs	r4, r1
 8000e34:	e9c5 6400 	strd	r6, r4, [r5]
 8000e38:	2100      	movs	r1, #0
 8000e3a:	e750      	b.n	8000cde <__udivmoddi4+0xa6>
 8000e3c:	f1c2 0320 	rsb	r3, r2, #32
 8000e40:	fa20 f103 	lsr.w	r1, r0, r3
 8000e44:	fa0c fc02 	lsl.w	ip, ip, r2
 8000e48:	fa24 f303 	lsr.w	r3, r4, r3
 8000e4c:	4094      	lsls	r4, r2
 8000e4e:	430c      	orrs	r4, r1
 8000e50:	ea4f 481c 	mov.w	r8, ip, lsr #16
 8000e54:	fa00 fe02 	lsl.w	lr, r0, r2
 8000e58:	fa1f f78c 	uxth.w	r7, ip
 8000e5c:	fbb3 f0f8 	udiv	r0, r3, r8
 8000e60:	fb08 3110 	mls	r1, r8, r0, r3
 8000e64:	0c23      	lsrs	r3, r4, #16
 8000e66:	ea43 4301 	orr.w	r3, r3, r1, lsl #16
 8000e6a:	fb00 f107 	mul.w	r1, r0, r7
 8000e6e:	4299      	cmp	r1, r3
 8000e70:	d908      	bls.n	8000e84 <__udivmoddi4+0x24c>
 8000e72:	eb1c 0303 	adds.w	r3, ip, r3
 8000e76:	f100 36ff 	add.w	r6, r0, #4294967295
 8000e7a:	d22c      	bcs.n	8000ed6 <__udivmoddi4+0x29e>
 8000e7c:	4299      	cmp	r1, r3
 8000e7e:	d92a      	bls.n	8000ed6 <__udivmoddi4+0x29e>
 8000e80:	3802      	subs	r0, #2
 8000e82:	4463      	add	r3, ip
 8000e84:	1a5b      	subs	r3, r3, r1
 8000e86:	b2a4      	uxth	r4, r4
 8000e88:	fbb3 f1f8 	udiv	r1, r3, r8
 8000e8c:	fb08 3311 	mls	r3, r8, r1, r3
 8000e90:	ea44 4403 	orr.w	r4, r4, r3, lsl #16
 8000e94:	fb01 f307 	mul.w	r3, r1, r7
 8000e98:	42a3      	cmp	r3, r4
 8000e9a:	d908      	bls.n	8000eae <__udivmoddi4+0x276>
 8000e9c:	eb1c 0404 	adds.w	r4, ip, r4
 8000ea0:	f101 36ff 	add.w	r6, r1, #4294967295
 8000ea4:	d213      	bcs.n	8000ece <__udivmoddi4+0x296>
 8000ea6:	42a3      	cmp	r3, r4
 8000ea8:	d911      	bls.n	8000ece <__udivmoddi4+0x296>
 8000eaa:	3902      	subs	r1, #2
 8000eac:	4464      	add	r4, ip
 8000eae:	1ae4      	subs	r4, r4, r3
 8000eb0:	ea41 4100 	orr.w	r1, r1, r0, lsl #16
 8000eb4:	e739      	b.n	8000d2a <__udivmoddi4+0xf2>
 8000eb6:	4604      	mov	r4, r0
 8000eb8:	e6f0      	b.n	8000c9c <__udivmoddi4+0x64>
 8000eba:	4608      	mov	r0, r1
 8000ebc:	e706      	b.n	8000ccc <__udivmoddi4+0x94>
 8000ebe:	45c8      	cmp	r8, r9
 8000ec0:	d2ae      	bcs.n	8000e20 <__udivmoddi4+0x1e8>
 8000ec2:	ebb9 0e02 	subs.w	lr, r9, r2
 8000ec6:	eb63 0c07 	sbc.w	ip, r3, r7
 8000eca:	3801      	subs	r0, #1
 8000ecc:	e7a8      	b.n	8000e20 <__udivmoddi4+0x1e8>
 8000ece:	4631      	mov	r1, r6
 8000ed0:	e7ed      	b.n	8000eae <__udivmoddi4+0x276>
 8000ed2:	4603      	mov	r3, r0
 8000ed4:	e799      	b.n	8000e0a <__udivmoddi4+0x1d2>
 8000ed6:	4630      	mov	r0, r6
 8000ed8:	e7d4      	b.n	8000e84 <__udivmoddi4+0x24c>
 8000eda:	46d6      	mov	lr, sl
 8000edc:	e77f      	b.n	8000dde <__udivmoddi4+0x1a6>
 8000ede:	4463      	add	r3, ip
 8000ee0:	3802      	subs	r0, #2
 8000ee2:	e74d      	b.n	8000d80 <__udivmoddi4+0x148>
 8000ee4:	4606      	mov	r6, r0
 8000ee6:	4623      	mov	r3, r4
 8000ee8:	4608      	mov	r0, r1
 8000eea:	e70f      	b.n	8000d0c <__udivmoddi4+0xd4>
 8000eec:	3e02      	subs	r6, #2
 8000eee:	4463      	add	r3, ip
 8000ef0:	e730      	b.n	8000d54 <__udivmoddi4+0x11c>
 8000ef2:	bf00      	nop

08000ef4 <__aeabi_idiv0>:
 8000ef4:	4770      	bx	lr
 8000ef6:	bf00      	nop

08000ef8 <BLE_send_command>:
 8000ef8:	b5f0      	push	{r4, r5, r6, r7, lr}
 8000efa:	4b15      	ldr	r3, [pc, #84]	@ (8000f50 <BLE_send_command+0x58>)
 8000efc:	b083      	sub	sp, #12
 8000efe:	f853 6020 	ldr.w	r6, [r3, r0, lsl #2]
 8000f02:	af02      	add	r7, sp, #8
 8000f04:	4630      	mov	r0, r6
 8000f06:	460d      	mov	r5, r1
 8000f08:	f7ff f9e2 	bl	80002d0 <strlen>
 8000f0c:	4604      	mov	r4, r0
 8000f0e:	4628      	mov	r0, r5
 8000f10:	f7ff f9de 	bl	80002d0 <strlen>
 8000f14:	4420      	add	r0, r4
 8000f16:	f100 020b 	add.w	r2, r0, #11
 8000f1a:	f022 0207 	bic.w	r2, r2, #7
 8000f1e:	ebad 0d02 	sub.w	sp, sp, r2
 8000f22:	466c      	mov	r4, sp
 8000f24:	4633      	mov	r3, r6
 8000f26:	f844 5b08 	str.w	r5, [r4], #8
 8000f2a:	1d01      	adds	r1, r0, #4
 8000f2c:	4a09      	ldr	r2, [pc, #36]	@ (8000f54 <BLE_send_command+0x5c>)
 8000f2e:	4620      	mov	r0, r4
 8000f30:	f002 fe2c 	bl	8003b8c <sniprintf>
 8000f34:	4620      	mov	r0, r4
 8000f36:	f7ff f9cb 	bl	80002d0 <strlen>
 8000f3a:	b282      	uxth	r2, r0
 8000f3c:	4806      	ldr	r0, [pc, #24]	@ (8000f58 <BLE_send_command+0x60>)
 8000f3e:	f04f 33ff 	mov.w	r3, #4294967295
 8000f42:	4621      	mov	r1, r4
 8000f44:	6800      	ldr	r0, [r0, #0]
 8000f46:	f001 fdfa 	bl	8002b3e <HAL_UART_Transmit>
 8000f4a:	3704      	adds	r7, #4
 8000f4c:	46bd      	mov	sp, r7
 8000f4e:	bdf0      	pop	{r4, r5, r6, r7, pc}
 8000f50:	20000000 	.word	0x20000000
 8000f54:	08006da0 	.word	0x08006da0
 8000f58:	2000022c 	.word	0x2000022c

08000f5c <BLE_setup>:
 8000f5c:	b573      	push	{r0, r1, r4, r5, r6, lr}
 8000f5e:	461c      	mov	r4, r3
 8000f60:	4b15      	ldr	r3, [pc, #84]	@ (8000fb8 <BLE_setup+0x5c>)
 8000f62:	460e      	mov	r6, r1
 8000f64:	6018      	str	r0, [r3, #0]
 8000f66:	4915      	ldr	r1, [pc, #84]	@ (8000fbc <BLE_setup+0x60>)
 8000f68:	2000      	movs	r0, #0
 8000f6a:	4615      	mov	r5, r2
 8000f6c:	f7ff ffc4 	bl	8000ef8 <BLE_send_command>
 8000f70:	4631      	mov	r1, r6
 8000f72:	2002      	movs	r0, #2
 8000f74:	f7ff ffc0 	bl	8000ef8 <BLE_send_command>
 8000f78:	220a      	movs	r2, #10
 8000f7a:	4669      	mov	r1, sp
 8000f7c:	4628      	mov	r0, r5
 8000f7e:	f002 f823 	bl	8002fc8 <itoa>
 8000f82:	4669      	mov	r1, sp
 8000f84:	2003      	movs	r0, #3
 8000f86:	f7ff ffb7 	bl	8000ef8 <BLE_send_command>
 8000f8a:	220a      	movs	r2, #10
 8000f8c:	a901      	add	r1, sp, #4
 8000f8e:	4620      	mov	r0, r4
 8000f90:	4c0b      	ldr	r4, [pc, #44]	@ (8000fc0 <BLE_setup+0x64>)
 8000f92:	f002 f819 	bl	8002fc8 <itoa>
 8000f96:	a901      	add	r1, sp, #4
 8000f98:	2004      	movs	r0, #4
 8000f9a:	f7ff ffad 	bl	8000ef8 <BLE_send_command>
 8000f9e:	4621      	mov	r1, r4
 8000fa0:	2009      	movs	r0, #9
 8000fa2:	f7ff ffa9 	bl	8000ef8 <BLE_send_command>
 8000fa6:	4621      	mov	r1, r4
 8000fa8:	2001      	movs	r0, #1
 8000faa:	f7ff ffa5 	bl	8000ef8 <BLE_send_command>
 8000fae:	4805      	ldr	r0, [pc, #20]	@ (8000fc4 <BLE_setup+0x68>)
 8000fb0:	f000 f98a 	bl	80012c8 <serial_print>
 8000fb4:	b002      	add	sp, #8
 8000fb6:	bd70      	pop	{r4, r5, r6, pc}
 8000fb8:	2000022c 	.word	0x2000022c
 8000fbc:	08006da7 	.word	0x08006da7
 8000fc0:	08006e1c 	.word	0x08006e1c
 8000fc4:	08006dad 	.word	0x08006dad

08000fc8 <find_device_index>:
 8000fc8:	e92d 41f0 	stmdb	sp!, {r4, r5, r6, r7, r8, lr}
 8000fcc:	4606      	mov	r6, r0
 8000fce:	460d      	mov	r5, r1
 8000fd0:	4617      	mov	r7, r2
 8000fd2:	2400      	movs	r4, #0
 8000fd4:	f04f 084c 	mov.w	r8, #76	@ 0x4c
 8000fd8:	42ac      	cmp	r4, r5
 8000fda:	db04      	blt.n	8000fe6 <find_device_index+0x1e>
 8000fdc:	f04f 34ff 	mov.w	r4, #4294967295
 8000fe0:	4620      	mov	r0, r4
 8000fe2:	e8bd 81f0 	ldmia.w	sp!, {r4, r5, r6, r7, r8, pc}
 8000fe6:	4639      	mov	r1, r7
 8000fe8:	fb08 6004 	mla	r0, r8, r4, r6
 8000fec:	f7ff f910 	bl	8000210 <strcmp>
 8000ff0:	2800      	cmp	r0, #0
 8000ff2:	d0f5      	beq.n	8000fe0 <find_device_index+0x18>
 8000ff4:	3401      	adds	r4, #1
 8000ff6:	e7ef      	b.n	8000fd8 <find_device_index+0x10>

08000ff8 <is_valid_mac>:
 8000ff8:	b510      	push	{r4, lr}
 8000ffa:	4604      	mov	r4, r0
 8000ffc:	f7ff f968 	bl	80002d0 <strlen>
 8001000:	280c      	cmp	r0, #12
 8001002:	d10c      	bne.n	800101e <is_valid_mac+0x26>
 8001004:	4a07      	ldr	r2, [pc, #28]	@ (8001024 <is_valid_mac+0x2c>)
 8001006:	1e63      	subs	r3, r4, #1
 8001008:	340b      	adds	r4, #11
 800100a:	f813 1f01 	ldrb.w	r1, [r3, #1]!
 800100e:	5c50      	ldrb	r0, [r2, r1]
 8001010:	f010 0044 	ands.w	r0, r0, #68	@ 0x44
 8001014:	d002      	beq.n	800101c <is_valid_mac+0x24>
 8001016:	429c      	cmp	r4, r3
 8001018:	d1f7      	bne.n	800100a <is_valid_mac+0x12>
 800101a:	2001      	movs	r0, #1
 800101c:	bd10      	pop	{r4, pc}
 800101e:	2000      	movs	r0, #0
 8001020:	e7fc      	b.n	800101c <is_valid_mac+0x24>
 8001022:	bf00      	nop
 8001024:	08006f21 	.word	0x08006f21

08001028 <parse_devices>:
 8001028:	e92d 4ff0 	stmdb	sp!, {r4, r5, r6, r7, r8, r9, sl, fp, lr}
 800102c:	f8df a120 	ldr.w	sl, [pc, #288]	@ 8001150 <parse_devices+0x128>
 8001030:	b093      	sub	sp, #76	@ 0x4c
 8001032:	4604      	mov	r4, r0
 8001034:	460f      	mov	r7, r1
 8001036:	4616      	mov	r6, r2
 8001038:	4698      	mov	r8, r3
 800103a:	4651      	mov	r1, sl
 800103c:	4620      	mov	r0, r4
 800103e:	f002 fe64 	bl	8003d0a <strstr>
 8001042:	b910      	cbnz	r0, 800104a <parse_devices+0x22>
 8001044:	b013      	add	sp, #76	@ 0x4c
 8001046:	e8bd 8ff0 	ldmia.w	sp!, {r4, r5, r6, r7, r8, r9, sl, fp, pc}
 800104a:	6833      	ldr	r3, [r6, #0]
 800104c:	2b09      	cmp	r3, #9
 800104e:	dcf9      	bgt.n	8001044 <parse_devices+0x1c>
 8001050:	213d      	movs	r1, #61	@ 0x3d
 8001052:	f002 fe3a 	bl	8003cca <strchr>
 8001056:	4604      	mov	r4, r0
 8001058:	2800      	cmp	r0, #0
 800105a:	d0f3      	beq.n	8001044 <parse_devices+0x1c>
 800105c:	f100 0b01 	add.w	fp, r0, #1
 8001060:	212c      	movs	r1, #44	@ 0x2c
 8001062:	4658      	mov	r0, fp
 8001064:	f002 fe31 	bl	8003cca <strchr>
 8001068:	4605      	mov	r5, r0
 800106a:	b120      	cbz	r0, 8001076 <parse_devices+0x4e>
 800106c:	eba0 090b 	sub.w	r9, r0, fp
 8001070:	f1b9 0f0c 	cmp.w	r9, #12
 8001074:	dd01      	ble.n	800107a <parse_devices+0x52>
 8001076:	3402      	adds	r4, #2
 8001078:	e7df      	b.n	800103a <parse_devices+0x12>
 800107a:	464a      	mov	r2, r9
 800107c:	4659      	mov	r1, fp
 800107e:	a801      	add	r0, sp, #4
 8001080:	f002 fe30 	bl	8003ce4 <strncpy>
 8001084:	f109 0348 	add.w	r3, r9, #72	@ 0x48
 8001088:	eb0d 0903 	add.w	r9, sp, r3
 800108c:	a801      	add	r0, sp, #4
 800108e:	2300      	movs	r3, #0
 8001090:	f809 3c44 	strb.w	r3, [r9, #-68]
 8001094:	f7ff ffb0 	bl	8000ff8 <is_valid_mac>
 8001098:	1c6c      	adds	r4, r5, #1
 800109a:	2800      	cmp	r0, #0
 800109c:	d0cd      	beq.n	800103a <parse_devices+0x12>
 800109e:	212c      	movs	r1, #44	@ 0x2c
 80010a0:	4620      	mov	r0, r4
 80010a2:	f002 fe12 	bl	8003cca <strchr>
 80010a6:	4683      	mov	fp, r0
 80010a8:	b908      	cbnz	r0, 80010ae <parse_devices+0x86>
 80010aa:	1cac      	adds	r4, r5, #2
 80010ac:	e7c5      	b.n	800103a <parse_devices+0x12>
 80010ae:	4620      	mov	r0, r4
 80010b0:	f001 ff6e 	bl	8002f90 <atoi>
 80010b4:	f10b 0501 	add.w	r5, fp, #1
 80010b8:	4681      	mov	r9, r0
 80010ba:	212b      	movs	r1, #43	@ 0x2b
 80010bc:	4628      	mov	r0, r5
 80010be:	f002 fe04 	bl	8003cca <strchr>
 80010c2:	4604      	mov	r4, r0
 80010c4:	b918      	cbnz	r0, 80010ce <parse_devices+0xa6>
 80010c6:	4628      	mov	r0, r5
 80010c8:	f7ff f902 	bl	80002d0 <strlen>
 80010cc:	182c      	adds	r4, r5, r0
 80010ce:	eba4 0b05 	sub.w	fp, r4, r5
 80010d2:	465a      	mov	r2, fp
 80010d4:	4629      	mov	r1, r5
 80010d6:	a805      	add	r0, sp, #20
 80010d8:	f002 fe04 	bl	8003ce4 <strncpy>
 80010dc:	f10b 0348 	add.w	r3, fp, #72	@ 0x48
 80010e0:	6835      	ldr	r5, [r6, #0]
 80010e2:	eb0d 0b03 	add.w	fp, sp, r3
 80010e6:	aa01      	add	r2, sp, #4
 80010e8:	2300      	movs	r3, #0
 80010ea:	4629      	mov	r1, r5
 80010ec:	4638      	mov	r0, r7
 80010ee:	f80b 3c34 	strb.w	r3, [fp, #-52]
 80010f2:	f7ff ff69 	bl	8000fc8 <find_device_index>
 80010f6:	1c43      	adds	r3, r0, #1
 80010f8:	f04f 0b4c 	mov.w	fp, #76	@ 0x4c
 80010fc:	d00e      	beq.n	800111c <parse_devices+0xf4>
 80010fe:	fb0b 7500 	mla	r5, fp, r0, r7
 8001102:	696b      	ldr	r3, [r5, #20]
 8001104:	4543      	cmp	r3, r8
 8001106:	bf01      	itttt	eq
 8001108:	692b      	ldreq	r3, [r5, #16]
 800110a:	444b      	addeq	r3, r9
 800110c:	eb03 73d3 	addeq.w	r3, r3, r3, lsr #31
 8001110:	105b      	asreq	r3, r3, #1
 8001112:	bf14      	ite	ne
 8001114:	e9c5 9804 	strdne	r9, r8, [r5, #16]
 8001118:	612b      	streq	r3, [r5, #16]
 800111a:	e78e      	b.n	800103a <parse_devices+0x12>
 800111c:	fb0b 7505 	mla	r5, fp, r5, r7
 8001120:	a901      	add	r1, sp, #4
 8001122:	f8c5 8014 	str.w	r8, [r5, #20]
 8001126:	6830      	ldr	r0, [r6, #0]
 8001128:	fb0b 7000 	mla	r0, fp, r0, r7
 800112c:	f002 fe7b 	bl	8003e26 <strcpy>
 8001130:	6833      	ldr	r3, [r6, #0]
 8001132:	fb0b 7303 	mla	r3, fp, r3, r7
 8001136:	a905      	add	r1, sp, #20
 8001138:	f8c3 9010 	str.w	r9, [r3, #16]
 800113c:	6830      	ldr	r0, [r6, #0]
 800113e:	fb0b 7000 	mla	r0, fp, r0, r7
 8001142:	3018      	adds	r0, #24
 8001144:	f002 fe6f 	bl	8003e26 <strcpy>
 8001148:	6833      	ldr	r3, [r6, #0]
 800114a:	3301      	adds	r3, #1
 800114c:	6033      	str	r3, [r6, #0]
 800114e:	e774      	b.n	800103a <parse_devices+0x12>
 8001150:	08006db9 	.word	0x08006db9
 8001154:	00000000 	.word	0x00000000

08001158 <rssi_to_distance>:
 8001158:	b508      	push	{r3, lr}
 800115a:	1a08      	subs	r0, r1, r0
 800115c:	f7ff fa12 	bl	8000584 <__aeabi_i2d>
 8001160:	4b0d      	ldr	r3, [pc, #52]	@ (8001198 <rssi_to_distance+0x40>)
 8001162:	2200      	movs	r2, #0
 8001164:	f7ff fba2 	bl	80008ac <__aeabi_ddiv>
 8001168:	a307      	add	r3, pc, #28	@ (adr r3, 8001188 <rssi_to_distance+0x30>)
 800116a:	e9d3 2300 	ldrd	r2, r3, [r3]
 800116e:	f7ff f8bd 	bl	80002ec <__adddf3>
 8001172:	e8bd 4008 	ldmia.w	sp!, {r3, lr}
 8001176:	ed9f 0b06 	vldr	d0, [pc, #24]	@ 8001190 <rssi_to_distance+0x38>
 800117a:	ec41 0b11 	vmov	d1, r0, r1
 800117e:	f004 bea3 	b.w	8005ec8 <pow>
 8001182:	bf00      	nop
 8001184:	f3af 8000 	nop.w
 8001188:	33333333 	.word	0x33333333
 800118c:	3fd33333 	.word	0x3fd33333
 8001190:	00000000 	.word	0x00000000
 8001194:	40240000 	.word	0x40240000
 8001198:	40390000 	.word	0x40390000
 800119c:	00000000 	.word	0x00000000

080011a0 <get_device_distance>:
 80011a0:	e92d 41f0 	stmdb	sp!, {r4, r5, r6, r7, r8, lr}
 80011a4:	460d      	mov	r5, r1
 80011a6:	4617      	mov	r7, r2
 80011a8:	4698      	mov	r8, r3
 80011aa:	4604      	mov	r4, r0
 80011ac:	2600      	movs	r6, #0
 80011ae:	42ae      	cmp	r6, r5
 80011b0:	db03      	blt.n	80011ba <get_device_distance+0x1a>
 80011b2:	ed9f 0b0b 	vldr	d0, [pc, #44]	@ 80011e0 <get_device_distance+0x40>
 80011b6:	e8bd 81f0 	ldmia.w	sp!, {r4, r5, r6, r7, r8, pc}
 80011ba:	4639      	mov	r1, r7
 80011bc:	f104 0018 	add.w	r0, r4, #24
 80011c0:	f7ff f826 	bl	8000210 <strcmp>
 80011c4:	f104 034c 	add.w	r3, r4, #76	@ 0x4c
 80011c8:	b928      	cbnz	r0, 80011d6 <get_device_distance+0x36>
 80011ca:	6920      	ldr	r0, [r4, #16]
 80011cc:	4641      	mov	r1, r8
 80011ce:	e8bd 41f0 	ldmia.w	sp!, {r4, r5, r6, r7, r8, lr}
 80011d2:	f7ff bfc1 	b.w	8001158 <rssi_to_distance>
 80011d6:	3601      	adds	r6, #1
 80011d8:	461c      	mov	r4, r3
 80011da:	e7e8      	b.n	80011ae <get_device_distance+0xe>
 80011dc:	f3af 8000 	nop.w
 80011e0:	00000000 	.word	0x00000000
 80011e4:	bff00000 	.word	0xbff00000

080011e8 <get_device_rssi>:
 80011e8:	b5f8      	push	{r3, r4, r5, r6, r7, lr}
 80011ea:	460d      	mov	r5, r1
 80011ec:	4617      	mov	r7, r2
 80011ee:	4604      	mov	r4, r0
 80011f0:	2600      	movs	r6, #0
 80011f2:	42ae      	cmp	r6, r5
 80011f4:	db02      	blt.n	80011fc <get_device_rssi+0x14>
 80011f6:	f04f 30ff 	mov.w	r0, #4294967295
 80011fa:	e008      	b.n	800120e <get_device_rssi+0x26>
 80011fc:	4639      	mov	r1, r7
 80011fe:	f104 0018 	add.w	r0, r4, #24
 8001202:	f7ff f805 	bl	8000210 <strcmp>
 8001206:	f104 034c 	add.w	r3, r4, #76	@ 0x4c
 800120a:	b908      	cbnz	r0, 8001210 <get_device_rssi+0x28>
 800120c:	6920      	ldr	r0, [r4, #16]
 800120e:	bdf8      	pop	{r3, r4, r5, r6, r7, pc}
 8001210:	3601      	adds	r6, #1
 8001212:	461c      	mov	r4, r3
 8001214:	e7ed      	b.n	80011f2 <get_device_rssi+0xa>
	...

08001218 <SystemClock_Config>:
 8001218:	b500      	push	{lr}
 800121a:	b095      	sub	sp, #84	@ 0x54
 800121c:	2230      	movs	r2, #48	@ 0x30
 800121e:	2100      	movs	r1, #0
 8001220:	a808      	add	r0, sp, #32
 8001222:	f002 fd4a 	bl	8003cba <memset>
 8001226:	2214      	movs	r2, #20
 8001228:	2100      	movs	r1, #0
 800122a:	a802      	add	r0, sp, #8
 800122c:	f002 fd45 	bl	8003cba <memset>
 8001230:	2200      	movs	r2, #0
 8001232:	4b1b      	ldr	r3, [pc, #108]	@ (80012a0 <SystemClock_Config+0x88>)
 8001234:	9200      	str	r2, [sp, #0]
 8001236:	6c19      	ldr	r1, [r3, #64]	@ 0x40
 8001238:	f041 5180 	orr.w	r1, r1, #268435456	@ 0x10000000
 800123c:	6419      	str	r1, [r3, #64]	@ 0x40
 800123e:	6c1b      	ldr	r3, [r3, #64]	@ 0x40
 8001240:	4918      	ldr	r1, [pc, #96]	@ (80012a4 <SystemClock_Config+0x8c>)
 8001242:	f003 5380 	and.w	r3, r3, #268435456	@ 0x10000000
 8001246:	9300      	str	r3, [sp, #0]
 8001248:	9b00      	ldr	r3, [sp, #0]
 800124a:	9201      	str	r2, [sp, #4]
 800124c:	680b      	ldr	r3, [r1, #0]
 800124e:	f423 4340 	bic.w	r3, r3, #49152	@ 0xc000
 8001252:	f443 4380 	orr.w	r3, r3, #16384	@ 0x4000
 8001256:	600b      	str	r3, [r1, #0]
 8001258:	680b      	ldr	r3, [r1, #0]
 800125a:	920d      	str	r2, [sp, #52]	@ 0x34
 800125c:	f403 4340 	and.w	r3, r3, #49152	@ 0xc000
 8001260:	9301      	str	r3, [sp, #4]
 8001262:	9b01      	ldr	r3, [sp, #4]
 8001264:	2302      	movs	r3, #2
 8001266:	9307      	str	r3, [sp, #28]
 8001268:	2001      	movs	r0, #1
 800126a:	2310      	movs	r3, #16
 800126c:	e9cd 030a 	strd	r0, r3, [sp, #40]	@ 0x28
 8001270:	a807      	add	r0, sp, #28
 8001272:	f000 ffb7 	bl	80021e4 <HAL_RCC_OscConfig>
 8001276:	4601      	mov	r1, r0
 8001278:	b108      	cbz	r0, 800127e <SystemClock_Config+0x66>
 800127a:	b672      	cpsid	i
 800127c:	e7fe      	b.n	800127c <SystemClock_Config+0x64>
 800127e:	230f      	movs	r3, #15
 8001280:	e9cd 3002 	strd	r3, r0, [sp, #8]
 8001284:	f44f 53c0 	mov.w	r3, #6144	@ 0x1800
 8001288:	e9cd 3005 	strd	r3, r0, [sp, #20]
 800128c:	9004      	str	r0, [sp, #16]
 800128e:	a802      	add	r0, sp, #8
 8001290:	f000 fea6 	bl	8001fe0 <HAL_RCC_ClockConfig>
 8001294:	b108      	cbz	r0, 800129a <SystemClock_Config+0x82>
 8001296:	b672      	cpsid	i
 8001298:	e7fe      	b.n	8001298 <SystemClock_Config+0x80>
 800129a:	b015      	add	sp, #84	@ 0x54
 800129c:	f85d fb04 	ldr.w	pc, [sp], #4
 80012a0:	40023800 	.word	0x40023800
 80012a4:	40007000 	.word	0x40007000

080012a8 <__io_putchar>:
 80012a8:	b507      	push	{r0, r1, r2, lr}
 80012aa:	f04f 33ff 	mov.w	r3, #4294967295
 80012ae:	9001      	str	r0, [sp, #4]
 80012b0:	2201      	movs	r2, #1
 80012b2:	a901      	add	r1, sp, #4
 80012b4:	4803      	ldr	r0, [pc, #12]	@ (80012c4 <__io_putchar+0x1c>)
 80012b6:	f001 fc42 	bl	8002b3e <HAL_UART_Transmit>
 80012ba:	9801      	ldr	r0, [sp, #4]
 80012bc:	b003      	add	sp, #12
 80012be:	f85d fb04 	ldr.w	pc, [sp], #4
 80012c2:	bf00      	nop
 80012c4:	2000047c 	.word	0x2000047c

080012c8 <serial_print>:
 80012c8:	b510      	push	{r4, lr}
 80012ca:	1e44      	subs	r4, r0, #1
 80012cc:	f814 0f01 	ldrb.w	r0, [r4, #1]!
 80012d0:	b908      	cbnz	r0, 80012d6 <serial_print+0xe>
 80012d2:	2320      	movs	r3, #32
 80012d4:	e004      	b.n	80012e0 <serial_print+0x18>
 80012d6:	f7ff ffe7 	bl	80012a8 <__io_putchar>
 80012da:	7823      	ldrb	r3, [r4, #0]
 80012dc:	4298      	cmp	r0, r3
 80012de:	d0f5      	beq.n	80012cc <serial_print+0x4>
 80012e0:	4618      	mov	r0, r3
 80012e2:	bd10      	pop	{r4, pc}

080012e4 <HAL_UART_RxCpltCallback>:
 80012e4:	6802      	ldr	r2, [r0, #0]
 80012e6:	4b09      	ldr	r3, [pc, #36]	@ (800130c <HAL_UART_RxCpltCallback+0x28>)
 80012e8:	429a      	cmp	r2, r3
 80012ea:	d10d      	bne.n	8001308 <HAL_UART_RxCpltCallback+0x24>
 80012ec:	4b08      	ldr	r3, [pc, #32]	@ (8001310 <HAL_UART_RxCpltCallback+0x2c>)
 80012ee:	4909      	ldr	r1, [pc, #36]	@ (8001314 <HAL_UART_RxCpltCallback+0x30>)
 80012f0:	781a      	ldrb	r2, [r3, #0]
 80012f2:	7818      	ldrb	r0, [r3, #0]
 80012f4:	1c42      	adds	r2, r0, #1
 80012f6:	b2d2      	uxtb	r2, r2
 80012f8:	701a      	strb	r2, [r3, #0]
 80012fa:	4b07      	ldr	r3, [pc, #28]	@ (8001318 <HAL_UART_RxCpltCallback+0x34>)
 80012fc:	780a      	ldrb	r2, [r1, #0]
 80012fe:	541a      	strb	r2, [r3, r0]
 8001300:	4806      	ldr	r0, [pc, #24]	@ (800131c <HAL_UART_RxCpltCallback+0x38>)
 8001302:	2201      	movs	r2, #1
 8001304:	f001 be33 	b.w	8002f6e <HAL_UART_Receive_IT>
 8001308:	4770      	bx	lr
 800130a:	bf00      	nop
 800130c:	40004800 	.word	0x40004800
 8001310:	20000230 	.word	0x20000230
 8001314:	20000231 	.word	0x20000231
 8001318:	20000232 	.word	0x20000232
 800131c:	20000434 	.word	0x20000434

08001320 <scan>:
 8001320:	b51f      	push	{r0, r1, r2, r3, r4, lr}
 8001322:	4a0c      	ldr	r2, [pc, #48]	@ (8001354 <scan+0x34>)
 8001324:	6851      	ldr	r1, [r2, #4]
 8001326:	6810      	ldr	r0, [r2, #0]
 8001328:	7a12      	ldrb	r2, [r2, #8]
 800132a:	ab01      	add	r3, sp, #4
 800132c:	c303      	stmia	r3!, {r0, r1}
 800132e:	a801      	add	r0, sp, #4
 8001330:	701a      	strb	r2, [r3, #0]
 8001332:	f7fe ffcd 	bl	80002d0 <strlen>
 8001336:	f04f 33ff 	mov.w	r3, #4294967295
 800133a:	b282      	uxth	r2, r0
 800133c:	a901      	add	r1, sp, #4
 800133e:	4806      	ldr	r0, [pc, #24]	@ (8001358 <scan+0x38>)
 8001340:	f001 fbfd 	bl	8002b3e <HAL_UART_Transmit>
 8001344:	f44f 707a 	mov.w	r0, #1000	@ 0x3e8
 8001348:	f000 fc00 	bl	8001b4c <HAL_Delay>
 800134c:	b005      	add	sp, #20
 800134e:	f85d fb04 	ldr.w	pc, [sp], #4
 8001352:	bf00      	nop
 8001354:	08006e14 	.word	0x08006e14
 8001358:	20000434 	.word	0x20000434

0800135c <BLE_scan>:
 800135c:	e92d 41f0 	stmdb	sp!, {r4, r5, r6, r7, r8, lr}
 8001360:	f8df 8050 	ldr.w	r8, [pc, #80]	@ 80013b4 <BLE_scan+0x58>
 8001364:	461c      	mov	r4, r3
 8001366:	4605      	mov	r5, r0
 8001368:	460e      	mov	r6, r1
 800136a:	4617      	mov	r7, r2
 800136c:	f7ff ffd8 	bl	8001320 <scan>
 8001370:	f898 3000 	ldrb.w	r3, [r8]
 8001374:	b1c3      	cbz	r3, 80013a8 <BLE_scan+0x4c>
 8001376:	4b0d      	ldr	r3, [pc, #52]	@ (80013ac <BLE_scan+0x50>)
 8001378:	4a0d      	ldr	r2, [pc, #52]	@ (80013b0 <BLE_scan+0x54>)
 800137a:	f44f 7100 	mov.w	r1, #512	@ 0x200
 800137e:	4620      	mov	r0, r4
 8001380:	f002 fc04 	bl	8003b8c <sniprintf>
 8001384:	4620      	mov	r0, r4
 8001386:	f7ff ff9f 	bl	80012c8 <serial_print>
 800138a:	463b      	mov	r3, r7
 800138c:	4807      	ldr	r0, [pc, #28]	@ (80013ac <BLE_scan+0x50>)
 800138e:	4632      	mov	r2, r6
 8001390:	4629      	mov	r1, r5
 8001392:	f7ff fe49 	bl	8001028 <parse_devices>
 8001396:	4805      	ldr	r0, [pc, #20]	@ (80013ac <BLE_scan+0x50>)
 8001398:	f44f 7200 	mov.w	r2, #512	@ 0x200
 800139c:	2100      	movs	r1, #0
 800139e:	f002 fc8c 	bl	8003cba <memset>
 80013a2:	2300      	movs	r3, #0
 80013a4:	f888 3000 	strb.w	r3, [r8]
 80013a8:	e8bd 81f0 	ldmia.w	sp!, {r4, r5, r6, r7, r8, pc}
 80013ac:	20000232 	.word	0x20000232
 80013b0:	08006e1d 	.word	0x08006e1d
 80013b4:	20000230 	.word	0x20000230

080013b8 <main>:
 80013b8:	e92d 47f0 	stmdb	sp!, {r4, r5, r6, r7, r8, r9, sl, lr}
 80013bc:	ed2d 8b04 	vpush	{d8-d9}
 80013c0:	f5ad 6da9 	sub.w	sp, sp, #1352	@ 0x548
 80013c4:	f000 fb96 	bl	8001af4 <HAL_Init>
 80013c8:	f7ff ff26 	bl	8001218 <SystemClock_Config>
 80013cc:	2214      	movs	r2, #20
 80013ce:	2100      	movs	r1, #0
 80013d0:	a894      	add	r0, sp, #592	@ 0x250
 80013d2:	f002 fc72 	bl	8003cba <memset>
 80013d6:	2400      	movs	r4, #0
 80013d8:	4bb0      	ldr	r3, [pc, #704]	@ (800169c <main+0x2e4>)
 80013da:	940c      	str	r4, [sp, #48]	@ 0x30
 80013dc:	6b1a      	ldr	r2, [r3, #48]	@ 0x30
 80013de:	48b0      	ldr	r0, [pc, #704]	@ (80016a0 <main+0x2e8>)
 80013e0:	f042 0204 	orr.w	r2, r2, #4
 80013e4:	631a      	str	r2, [r3, #48]	@ 0x30
 80013e6:	6b1a      	ldr	r2, [r3, #48]	@ 0x30
 80013e8:	f002 0204 	and.w	r2, r2, #4
 80013ec:	920c      	str	r2, [sp, #48]	@ 0x30
 80013ee:	9a0c      	ldr	r2, [sp, #48]	@ 0x30
 80013f0:	940d      	str	r4, [sp, #52]	@ 0x34
 80013f2:	6b1a      	ldr	r2, [r3, #48]	@ 0x30
 80013f4:	f042 0280 	orr.w	r2, r2, #128	@ 0x80
 80013f8:	631a      	str	r2, [r3, #48]	@ 0x30
 80013fa:	6b1a      	ldr	r2, [r3, #48]	@ 0x30
 80013fc:	f002 0280 	and.w	r2, r2, #128	@ 0x80
 8001400:	920d      	str	r2, [sp, #52]	@ 0x34
 8001402:	9a0d      	ldr	r2, [sp, #52]	@ 0x34
 8001404:	940e      	str	r4, [sp, #56]	@ 0x38
 8001406:	6b1a      	ldr	r2, [r3, #48]	@ 0x30
 8001408:	f042 0201 	orr.w	r2, r2, #1
 800140c:	631a      	str	r2, [r3, #48]	@ 0x30
 800140e:	6b1a      	ldr	r2, [r3, #48]	@ 0x30
 8001410:	f002 0201 	and.w	r2, r2, #1
 8001414:	920e      	str	r2, [sp, #56]	@ 0x38
 8001416:	9a0e      	ldr	r2, [sp, #56]	@ 0x38
 8001418:	940f      	str	r4, [sp, #60]	@ 0x3c
 800141a:	6b1a      	ldr	r2, [r3, #48]	@ 0x30
 800141c:	f042 0202 	orr.w	r2, r2, #2
 8001420:	631a      	str	r2, [r3, #48]	@ 0x30
 8001422:	6b1b      	ldr	r3, [r3, #48]	@ 0x30
 8001424:	f003 0302 	and.w	r3, r3, #2
 8001428:	930f      	str	r3, [sp, #60]	@ 0x3c
 800142a:	4622      	mov	r2, r4
 800142c:	f44f 7110 	mov.w	r1, #576	@ 0x240
 8001430:	9b0f      	ldr	r3, [sp, #60]	@ 0x3c
 8001432:	f000 fd27 	bl	8001e84 <HAL_GPIO_WritePin>
 8001436:	489a      	ldr	r0, [pc, #616]	@ (80016a0 <main+0x2e8>)
 8001438:	2201      	movs	r2, #1
 800143a:	f44f 7180 	mov.w	r1, #256	@ 0x100
 800143e:	f000 fd21 	bl	8001e84 <HAL_GPIO_WritePin>
 8001442:	4622      	mov	r2, r4
 8001444:	4897      	ldr	r0, [pc, #604]	@ (80016a4 <main+0x2ec>)
 8001446:	2120      	movs	r1, #32
 8001448:	f000 fd1c 	bl	8001e84 <HAL_GPIO_WritePin>
 800144c:	2501      	movs	r5, #1
 800144e:	f44f 7350 	mov.w	r3, #832	@ 0x340
 8001452:	4893      	ldr	r0, [pc, #588]	@ (80016a0 <main+0x2e8>)
 8001454:	a994      	add	r1, sp, #592	@ 0x250
 8001456:	e9cd 3594 	strd	r3, r5, [sp, #592]	@ 0x250
 800145a:	e9cd 4496 	strd	r4, r4, [sp, #600]	@ 0x258
 800145e:	f000 fc3f 	bl	8001ce0 <HAL_GPIO_Init>
 8001462:	2320      	movs	r3, #32
 8001464:	488f      	ldr	r0, [pc, #572]	@ (80016a4 <main+0x2ec>)
 8001466:	a994      	add	r1, sp, #592	@ 0x250
 8001468:	e9cd 3594 	strd	r3, r5, [sp, #592]	@ 0x250
 800146c:	e9cd 4496 	strd	r4, r4, [sp, #600]	@ 0x258
 8001470:	f000 fc36 	bl	8001ce0 <HAL_GPIO_Init>
 8001474:	488c      	ldr	r0, [pc, #560]	@ (80016a8 <main+0x2f0>)
 8001476:	4a8d      	ldr	r2, [pc, #564]	@ (80016ac <main+0x2f4>)
 8001478:	4b8d      	ldr	r3, [pc, #564]	@ (80016b0 <main+0x2f8>)
 800147a:	6204      	str	r4, [r0, #32]
 800147c:	e9c0 2300 	strd	r2, r3, [r0]
 8001480:	f44f 4380 	mov.w	r3, #16384	@ 0x4000
 8001484:	e9c0 4402 	strd	r4, r4, [r0, #8]
 8001488:	e9c0 3404 	strd	r3, r4, [r0, #16]
 800148c:	e9c0 4406 	strd	r4, r4, [r0, #24]
 8001490:	f000 fcfe 	bl	8001e90 <HAL_I2C_Init>
 8001494:	4605      	mov	r5, r0
 8001496:	b108      	cbz	r0, 800149c <main+0xe4>
 8001498:	b672      	cpsid	i
 800149a:	e7fe      	b.n	800149a <main+0xe2>
 800149c:	4c85      	ldr	r4, [pc, #532]	@ (80016b4 <main+0x2fc>)
 800149e:	e9cd 0014 	strd	r0, r0, [sp, #80]	@ 0x50
 80014a2:	4601      	mov	r1, r0
 80014a4:	221c      	movs	r2, #28
 80014a6:	a894      	add	r0, sp, #592	@ 0x250
 80014a8:	f002 fc07 	bl	8003cba <memset>
 80014ac:	4b82      	ldr	r3, [pc, #520]	@ (80016b8 <main+0x300>)
 80014ae:	60a5      	str	r5, [r4, #8]
 80014b0:	f04f 083f 	mov.w	r8, #63	@ 0x3f
 80014b4:	f240 47e2 	movw	r7, #1250	@ 0x4e2
 80014b8:	4620      	mov	r0, r4
 80014ba:	e9c4 3800 	strd	r3, r8, [r4]
 80014be:	e9c4 7503 	strd	r7, r5, [r4, #12]
 80014c2:	61a5      	str	r5, [r4, #24]
 80014c4:	f001 f956 	bl	8002774 <HAL_TIM_PWM_Init>
 80014c8:	b108      	cbz	r0, 80014ce <main+0x116>
 80014ca:	b672      	cpsid	i
 80014cc:	e7fe      	b.n	80014cc <main+0x114>
 80014ce:	e9cd 0014 	strd	r0, r0, [sp, #80]	@ 0x50
 80014d2:	a914      	add	r1, sp, #80	@ 0x50
 80014d4:	4620      	mov	r0, r4
 80014d6:	f001 fa07 	bl	80028e8 <HAL_TIMEx_MasterConfigSynchronization>
 80014da:	4602      	mov	r2, r0
 80014dc:	b108      	cbz	r0, 80014e2 <main+0x12a>
 80014de:	b672      	cpsid	i
 80014e0:	e7fe      	b.n	80014e0 <main+0x128>
 80014e2:	2660      	movs	r6, #96	@ 0x60
 80014e4:	e9cd 6094 	strd	r6, r0, [sp, #592]	@ 0x250
 80014e8:	9096      	str	r0, [sp, #600]	@ 0x258
 80014ea:	9098      	str	r0, [sp, #608]	@ 0x260
 80014ec:	a994      	add	r1, sp, #592	@ 0x250
 80014ee:	4620      	mov	r0, r4
 80014f0:	f001 f9a2 	bl	8002838 <HAL_TIM_PWM_ConfigChannel>
 80014f4:	4605      	mov	r5, r0
 80014f6:	b108      	cbz	r0, 80014fc <main+0x144>
 80014f8:	b672      	cpsid	i
 80014fa:	e7fe      	b.n	80014fa <main+0x142>
 80014fc:	4620      	mov	r0, r4
 80014fe:	f000 f975 	bl	80017ec <HAL_TIM_MspPostInit>
 8001502:	486e      	ldr	r0, [pc, #440]	@ (80016bc <main+0x304>)
 8001504:	4b6e      	ldr	r3, [pc, #440]	@ (80016c0 <main+0x308>)
 8001506:	6105      	str	r5, [r0, #16]
 8001508:	f44f 5916 	mov.w	r9, #9600	@ 0x2580
 800150c:	240c      	movs	r4, #12
 800150e:	e9c0 3900 	strd	r3, r9, [r0]
 8001512:	e9c0 5502 	strd	r5, r5, [r0, #8]
 8001516:	e9c0 4505 	strd	r4, r5, [r0, #20]
 800151a:	61c5      	str	r5, [r0, #28]
 800151c:	f001 fae0 	bl	8002ae0 <HAL_UART_Init>
 8001520:	4603      	mov	r3, r0
 8001522:	b108      	cbz	r0, 8001528 <main+0x170>
 8001524:	b672      	cpsid	i
 8001526:	e7fe      	b.n	8001526 <main+0x16e>
 8001528:	4866      	ldr	r0, [pc, #408]	@ (80016c4 <main+0x30c>)
 800152a:	4a67      	ldr	r2, [pc, #412]	@ (80016c8 <main+0x310>)
 800152c:	e9c0 3302 	strd	r3, r3, [r0, #8]
 8001530:	e9c0 2900 	strd	r2, r9, [r0]
 8001534:	e9c0 3404 	strd	r3, r4, [r0, #16]
 8001538:	e9c0 3306 	strd	r3, r3, [r0, #24]
 800153c:	f001 fad0 	bl	8002ae0 <HAL_UART_Init>
 8001540:	4605      	mov	r5, r0
 8001542:	b108      	cbz	r0, 8001548 <main+0x190>
 8001544:	b672      	cpsid	i
 8001546:	e7fe      	b.n	8001546 <main+0x18e>
 8001548:	4c60      	ldr	r4, [pc, #384]	@ (80016cc <main+0x314>)
 800154a:	e9cd 0014 	strd	r0, r0, [sp, #80]	@ 0x50
 800154e:	4601      	mov	r1, r0
 8001550:	221c      	movs	r2, #28
 8001552:	a894      	add	r0, sp, #592	@ 0x250
 8001554:	f002 fbb1 	bl	8003cba <memset>
 8001558:	4b5d      	ldr	r3, [pc, #372]	@ (80016d0 <main+0x318>)
 800155a:	6125      	str	r5, [r4, #16]
 800155c:	4620      	mov	r0, r4
 800155e:	e9c4 3800 	strd	r3, r8, [r4]
 8001562:	e9c4 5702 	strd	r5, r7, [r4, #8]
 8001566:	61a5      	str	r5, [r4, #24]
 8001568:	f001 f904 	bl	8002774 <HAL_TIM_PWM_Init>
 800156c:	b108      	cbz	r0, 8001572 <main+0x1ba>
 800156e:	b672      	cpsid	i
 8001570:	e7fe      	b.n	8001570 <main+0x1b8>
 8001572:	e9cd 0014 	strd	r0, r0, [sp, #80]	@ 0x50
 8001576:	a914      	add	r1, sp, #80	@ 0x50
 8001578:	4620      	mov	r0, r4
 800157a:	f001 f9b5 	bl	80028e8 <HAL_TIMEx_MasterConfigSynchronization>
 800157e:	b108      	cbz	r0, 8001584 <main+0x1cc>
 8001580:	b672      	cpsid	i
 8001582:	e7fe      	b.n	8001582 <main+0x1ca>
 8001584:	e9cd 6094 	strd	r6, r0, [sp, #592]	@ 0x250
 8001588:	9096      	str	r0, [sp, #600]	@ 0x258
 800158a:	9098      	str	r0, [sp, #608]	@ 0x260
 800158c:	2204      	movs	r2, #4
 800158e:	a994      	add	r1, sp, #592	@ 0x250
 8001590:	4620      	mov	r0, r4
 8001592:	f001 f951 	bl	8002838 <HAL_TIM_PWM_ConfigChannel>
 8001596:	4605      	mov	r5, r0
 8001598:	b108      	cbz	r0, 800159e <main+0x1e6>
 800159a:	b672      	cpsid	i
 800159c:	e7fe      	b.n	800159c <main+0x1e4>
 800159e:	4620      	mov	r0, r4
 80015a0:	f000 f924 	bl	80017ec <HAL_TIM_MspPostInit>
 80015a4:	4b4b      	ldr	r3, [pc, #300]	@ (80016d4 <main+0x31c>)
 80015a6:	950b      	str	r5, [sp, #44]	@ 0x2c
 80015a8:	aa10      	add	r2, sp, #64	@ 0x40
 80015aa:	f103 0508 	add.w	r5, r3, #8
 80015ae:	6818      	ldr	r0, [r3, #0]
 80015b0:	6859      	ldr	r1, [r3, #4]
 80015b2:	4614      	mov	r4, r2
 80015b4:	c403      	stmia	r4!, {r0, r1}
 80015b6:	3308      	adds	r3, #8
 80015b8:	42ab      	cmp	r3, r5
 80015ba:	4622      	mov	r2, r4
 80015bc:	d1f7      	bne.n	80015ae <main+0x1f6>
 80015be:	6818      	ldr	r0, [r3, #0]
 80015c0:	8899      	ldrh	r1, [r3, #4]
 80015c2:	799b      	ldrb	r3, [r3, #6]
 80015c4:	71a3      	strb	r3, [r4, #6]
 80015c6:	2301      	movs	r3, #1
 80015c8:	461a      	mov	r2, r3
 80015ca:	6020      	str	r0, [r4, #0]
 80015cc:	80a1      	strh	r1, [r4, #4]
 80015ce:	483d      	ldr	r0, [pc, #244]	@ (80016c4 <main+0x30c>)
 80015d0:	f8df 9114 	ldr.w	r9, [pc, #276]	@ 80016e8 <main+0x330>
 80015d4:	f8df 8114 	ldr.w	r8, [pc, #276]	@ 80016ec <main+0x334>
 80015d8:	4f3f      	ldr	r7, [pc, #252]	@ (80016d8 <main+0x320>)
 80015da:	a910      	add	r1, sp, #64	@ 0x40
 80015dc:	f7ff fcbe 	bl	8000f5c <BLE_setup>
 80015e0:	493e      	ldr	r1, [pc, #248]	@ (80016dc <main+0x324>)
 80015e2:	4838      	ldr	r0, [pc, #224]	@ (80016c4 <main+0x30c>)
 80015e4:	2201      	movs	r2, #1
 80015e6:	f001 fcc2 	bl	8002f6e <HAL_UART_Receive_IT>
 80015ea:	ab14      	add	r3, sp, #80	@ 0x50
 80015ec:	2201      	movs	r2, #1
 80015ee:	a90b      	add	r1, sp, #44	@ 0x2c
 80015f0:	a894      	add	r0, sp, #592	@ 0x250
 80015f2:	f7ff feb3 	bl	800135c <BLE_scan>
 80015f6:	4e3a      	ldr	r6, [pc, #232]	@ (80016e0 <main+0x328>)
 80015f8:	ad9a      	add	r5, sp, #616	@ 0x268
 80015fa:	2400      	movs	r4, #0
 80015fc:	990b      	ldr	r1, [sp, #44]	@ 0x2c
 80015fe:	42a1      	cmp	r1, r4
 8001600:	dc40      	bgt.n	8001684 <main+0x2cc>
 8001602:	464a      	mov	r2, r9
 8001604:	a894      	add	r0, sp, #592	@ 0x250
 8001606:	f06f 033c 	mvn.w	r3, #60	@ 0x3c
 800160a:	f7ff fdc9 	bl	80011a0 <get_device_distance>
 800160e:	990b      	ldr	r1, [sp, #44]	@ 0x2c
 8001610:	4642      	mov	r2, r8
 8001612:	a894      	add	r0, sp, #592	@ 0x250
 8001614:	f06f 033c 	mvn.w	r3, #60	@ 0x3c
 8001618:	ec55 4b10 	vmov	r4, r5, d0
 800161c:	f7ff fdc0 	bl	80011a0 <get_device_distance>
 8001620:	f06f 033c 	mvn.w	r3, #60	@ 0x3c
 8001624:	990b      	ldr	r1, [sp, #44]	@ 0x2c
 8001626:	eeb0 8a40 	vmov.f32	s16, s0
 800162a:	eef0 8a60 	vmov.f32	s17, s1
 800162e:	463a      	mov	r2, r7
 8001630:	a894      	add	r0, sp, #592	@ 0x250
 8001632:	f7ff fdb5 	bl	80011a0 <get_device_distance>
 8001636:	990b      	ldr	r1, [sp, #44]	@ 0x2c
 8001638:	eeb0 9a40 	vmov.f32	s18, s0
 800163c:	eef0 9a60 	vmov.f32	s19, s1
 8001640:	464a      	mov	r2, r9
 8001642:	a894      	add	r0, sp, #592	@ 0x250
 8001644:	f7ff fdd0 	bl	80011e8 <get_device_rssi>
 8001648:	990b      	ldr	r1, [sp, #44]	@ 0x2c
 800164a:	4606      	mov	r6, r0
 800164c:	4642      	mov	r2, r8
 800164e:	a894      	add	r0, sp, #592	@ 0x250
 8001650:	f7ff fdca 	bl	80011e8 <get_device_rssi>
 8001654:	990b      	ldr	r1, [sp, #44]	@ 0x2c
 8001656:	4682      	mov	sl, r0
 8001658:	463a      	mov	r2, r7
 800165a:	a894      	add	r0, sp, #592	@ 0x250
 800165c:	f7ff fdc4 	bl	80011e8 <get_device_rssi>
 8001660:	ed8d 9b06 	vstr	d9, [sp, #24]
 8001664:	9008      	str	r0, [sp, #32]
 8001666:	ed8d 8b02 	vstr	d8, [sp, #8]
 800166a:	491e      	ldr	r1, [pc, #120]	@ (80016e4 <main+0x32c>)
 800166c:	f8cd a010 	str.w	sl, [sp, #16]
 8001670:	9600      	str	r6, [sp, #0]
 8001672:	4622      	mov	r2, r4
 8001674:	462b      	mov	r3, r5
 8001676:	a814      	add	r0, sp, #80	@ 0x50
 8001678:	f002 fabc 	bl	8003bf4 <siprintf>
 800167c:	a814      	add	r0, sp, #80	@ 0x50
 800167e:	f7ff fe23 	bl	80012c8 <serial_print>
 8001682:	e7b2      	b.n	80015ea <main+0x232>
 8001684:	462b      	mov	r3, r5
 8001686:	4622      	mov	r2, r4
 8001688:	4631      	mov	r1, r6
 800168a:	a814      	add	r0, sp, #80	@ 0x50
 800168c:	f002 fab2 	bl	8003bf4 <siprintf>
 8001690:	a814      	add	r0, sp, #80	@ 0x50
 8001692:	f7ff fe19 	bl	80012c8 <serial_print>
 8001696:	3401      	adds	r4, #1
 8001698:	354c      	adds	r5, #76	@ 0x4c
 800169a:	e7af      	b.n	80015fc <main+0x244>
 800169c:	40023800 	.word	0x40023800
 80016a0:	40020000 	.word	0x40020000
 80016a4:	40020400 	.word	0x40020400
 80016a8:	20000554 	.word	0x20000554
 80016ac:	40005400 	.word	0x40005400
 80016b0:	000186a0 	.word	0x000186a0
 80016b4:	200004c4 	.word	0x200004c4
 80016b8:	40000800 	.word	0x40000800
 80016bc:	2000047c 	.word	0x2000047c
 80016c0:	40004400 	.word	0x40004400
 80016c4:	20000434 	.word	0x20000434
 80016c8:	40004800 	.word	0x40004800
 80016cc:	2000050c 	.word	0x2000050c
 80016d0:	40000400 	.word	0x40000400
 80016d4:	08006ed4 	.word	0x08006ed4
 80016d8:	08006e64 	.word	0x08006e64
 80016dc:	20000231 	.word	0x20000231
 80016e0:	08006e3e 	.word	0x08006e3e
 80016e4:	08006e6f 	.word	0x08006e6f
 80016e8:	08006e4e 	.word	0x08006e4e
 80016ec:	08006e59 	.word	0x08006e59

080016f0 <HAL_MspInit>:
 80016f0:	b082      	sub	sp, #8
 80016f2:	4b0c      	ldr	r3, [pc, #48]	@ (8001724 <HAL_MspInit+0x34>)
 80016f4:	2100      	movs	r1, #0
 80016f6:	9100      	str	r1, [sp, #0]
 80016f8:	6c5a      	ldr	r2, [r3, #68]	@ 0x44
 80016fa:	f442 4280 	orr.w	r2, r2, #16384	@ 0x4000
 80016fe:	645a      	str	r2, [r3, #68]	@ 0x44
 8001700:	6c5a      	ldr	r2, [r3, #68]	@ 0x44
 8001702:	f402 4280 	and.w	r2, r2, #16384	@ 0x4000
 8001706:	9200      	str	r2, [sp, #0]
 8001708:	9a00      	ldr	r2, [sp, #0]
 800170a:	9101      	str	r1, [sp, #4]
 800170c:	6c1a      	ldr	r2, [r3, #64]	@ 0x40
 800170e:	f042 5280 	orr.w	r2, r2, #268435456	@ 0x10000000
 8001712:	641a      	str	r2, [r3, #64]	@ 0x40
 8001714:	6c1b      	ldr	r3, [r3, #64]	@ 0x40
 8001716:	f003 5380 	and.w	r3, r3, #268435456	@ 0x10000000
 800171a:	9301      	str	r3, [sp, #4]
 800171c:	9b01      	ldr	r3, [sp, #4]
 800171e:	b002      	add	sp, #8
 8001720:	4770      	bx	lr
 8001722:	bf00      	nop
 8001724:	40023800 	.word	0x40023800

08001728 <HAL_I2C_MspInit>:
 8001728:	b530      	push	{r4, r5, lr}
 800172a:	4604      	mov	r4, r0
 800172c:	b089      	sub	sp, #36	@ 0x24
 800172e:	2214      	movs	r2, #20
 8001730:	2100      	movs	r1, #0
 8001732:	a803      	add	r0, sp, #12
 8001734:	f002 fac1 	bl	8003cba <memset>
 8001738:	6822      	ldr	r2, [r4, #0]
 800173a:	4b14      	ldr	r3, [pc, #80]	@ (800178c <HAL_I2C_MspInit+0x64>)
 800173c:	429a      	cmp	r2, r3
 800173e:	d122      	bne.n	8001786 <HAL_I2C_MspInit+0x5e>
 8001740:	4c13      	ldr	r4, [pc, #76]	@ (8001790 <HAL_I2C_MspInit+0x68>)
 8001742:	4814      	ldr	r0, [pc, #80]	@ (8001794 <HAL_I2C_MspInit+0x6c>)
 8001744:	2500      	movs	r5, #0
 8001746:	9501      	str	r5, [sp, #4]
 8001748:	6b23      	ldr	r3, [r4, #48]	@ 0x30
 800174a:	f043 0302 	orr.w	r3, r3, #2
 800174e:	6323      	str	r3, [r4, #48]	@ 0x30
 8001750:	6b23      	ldr	r3, [r4, #48]	@ 0x30
 8001752:	f003 0302 	and.w	r3, r3, #2
 8001756:	9301      	str	r3, [sp, #4]
 8001758:	9b01      	ldr	r3, [sp, #4]
 800175a:	f44f 72c0 	mov.w	r2, #384	@ 0x180
 800175e:	2312      	movs	r3, #18
 8001760:	e9cd 2303 	strd	r2, r3, [sp, #12]
 8001764:	2103      	movs	r1, #3
 8001766:	2304      	movs	r3, #4
 8001768:	e9cd 1306 	strd	r1, r3, [sp, #24]
 800176c:	a903      	add	r1, sp, #12
 800176e:	f000 fab7 	bl	8001ce0 <HAL_GPIO_Init>
 8001772:	9502      	str	r5, [sp, #8]
 8001774:	6c23      	ldr	r3, [r4, #64]	@ 0x40
 8001776:	f443 1300 	orr.w	r3, r3, #2097152	@ 0x200000
 800177a:	6423      	str	r3, [r4, #64]	@ 0x40
 800177c:	6c23      	ldr	r3, [r4, #64]	@ 0x40
 800177e:	f403 1300 	and.w	r3, r3, #2097152	@ 0x200000
 8001782:	9302      	str	r3, [sp, #8]
 8001784:	9b02      	ldr	r3, [sp, #8]
 8001786:	b009      	add	sp, #36	@ 0x24
 8001788:	bd30      	pop	{r4, r5, pc}
 800178a:	bf00      	nop
 800178c:	40005400 	.word	0x40005400
 8001790:	40023800 	.word	0x40023800
 8001794:	40020400 	.word	0x40020400

08001798 <HAL_TIM_PWM_MspInit>:
 8001798:	6803      	ldr	r3, [r0, #0]
 800179a:	4a11      	ldr	r2, [pc, #68]	@ (80017e0 <HAL_TIM_PWM_MspInit+0x48>)
 800179c:	4293      	cmp	r3, r2
 800179e:	b082      	sub	sp, #8
 80017a0:	d10d      	bne.n	80017be <HAL_TIM_PWM_MspInit+0x26>
 80017a2:	2300      	movs	r3, #0
 80017a4:	9300      	str	r3, [sp, #0]
 80017a6:	4b0f      	ldr	r3, [pc, #60]	@ (80017e4 <HAL_TIM_PWM_MspInit+0x4c>)
 80017a8:	6c1a      	ldr	r2, [r3, #64]	@ 0x40
 80017aa:	f042 0202 	orr.w	r2, r2, #2
 80017ae:	641a      	str	r2, [r3, #64]	@ 0x40
 80017b0:	6c1b      	ldr	r3, [r3, #64]	@ 0x40
 80017b2:	f003 0302 	and.w	r3, r3, #2
 80017b6:	9300      	str	r3, [sp, #0]
 80017b8:	9b00      	ldr	r3, [sp, #0]
 80017ba:	b002      	add	sp, #8
 80017bc:	4770      	bx	lr
 80017be:	4a0a      	ldr	r2, [pc, #40]	@ (80017e8 <HAL_TIM_PWM_MspInit+0x50>)
 80017c0:	4293      	cmp	r3, r2
 80017c2:	d1fa      	bne.n	80017ba <HAL_TIM_PWM_MspInit+0x22>
 80017c4:	2300      	movs	r3, #0
 80017c6:	9301      	str	r3, [sp, #4]
 80017c8:	4b06      	ldr	r3, [pc, #24]	@ (80017e4 <HAL_TIM_PWM_MspInit+0x4c>)
 80017ca:	6c1a      	ldr	r2, [r3, #64]	@ 0x40
 80017cc:	f042 0204 	orr.w	r2, r2, #4
 80017d0:	641a      	str	r2, [r3, #64]	@ 0x40
 80017d2:	6c1b      	ldr	r3, [r3, #64]	@ 0x40
 80017d4:	f003 0304 	and.w	r3, r3, #4
 80017d8:	9301      	str	r3, [sp, #4]
 80017da:	9b01      	ldr	r3, [sp, #4]
 80017dc:	e7ed      	b.n	80017ba <HAL_TIM_PWM_MspInit+0x22>
 80017de:	bf00      	nop
 80017e0:	40000400 	.word	0x40000400
 80017e4:	40023800 	.word	0x40023800
 80017e8:	40000800 	.word	0x40000800

080017ec <HAL_TIM_MspPostInit>:
 80017ec:	b510      	push	{r4, lr}
 80017ee:	4604      	mov	r4, r0
 80017f0:	b088      	sub	sp, #32
 80017f2:	2214      	movs	r2, #20
 80017f4:	2100      	movs	r1, #0
 80017f6:	a803      	add	r0, sp, #12
 80017f8:	f002 fa5f 	bl	8003cba <memset>
 80017fc:	6823      	ldr	r3, [r4, #0]
 80017fe:	4a18      	ldr	r2, [pc, #96]	@ (8001860 <HAL_TIM_MspPostInit+0x74>)
 8001800:	4293      	cmp	r3, r2
 8001802:	d116      	bne.n	8001832 <HAL_TIM_MspPostInit+0x46>
 8001804:	2300      	movs	r3, #0
 8001806:	9301      	str	r3, [sp, #4]
 8001808:	4b16      	ldr	r3, [pc, #88]	@ (8001864 <HAL_TIM_MspPostInit+0x78>)
 800180a:	4817      	ldr	r0, [pc, #92]	@ (8001868 <HAL_TIM_MspPostInit+0x7c>)
 800180c:	6b1a      	ldr	r2, [r3, #48]	@ 0x30
 800180e:	f042 0201 	orr.w	r2, r2, #1
 8001812:	631a      	str	r2, [r3, #48]	@ 0x30
 8001814:	6b1b      	ldr	r3, [r3, #48]	@ 0x30
 8001816:	f003 0301 	and.w	r3, r3, #1
 800181a:	9301      	str	r3, [sp, #4]
 800181c:	2180      	movs	r1, #128	@ 0x80
 800181e:	9b01      	ldr	r3, [sp, #4]
 8001820:	2302      	movs	r3, #2
 8001822:	e9cd 1303 	strd	r1, r3, [sp, #12]
 8001826:	9307      	str	r3, [sp, #28]
 8001828:	a903      	add	r1, sp, #12
 800182a:	f000 fa59 	bl	8001ce0 <HAL_GPIO_Init>
 800182e:	b008      	add	sp, #32
 8001830:	bd10      	pop	{r4, pc}
 8001832:	4a0e      	ldr	r2, [pc, #56]	@ (800186c <HAL_TIM_MspPostInit+0x80>)
 8001834:	4293      	cmp	r3, r2
 8001836:	d1fa      	bne.n	800182e <HAL_TIM_MspPostInit+0x42>
 8001838:	2300      	movs	r3, #0
 800183a:	9302      	str	r3, [sp, #8]
 800183c:	4b09      	ldr	r3, [pc, #36]	@ (8001864 <HAL_TIM_MspPostInit+0x78>)
 800183e:	480c      	ldr	r0, [pc, #48]	@ (8001870 <HAL_TIM_MspPostInit+0x84>)
 8001840:	6b1a      	ldr	r2, [r3, #48]	@ 0x30
 8001842:	f042 0202 	orr.w	r2, r2, #2
 8001846:	631a      	str	r2, [r3, #48]	@ 0x30
 8001848:	6b1b      	ldr	r3, [r3, #48]	@ 0x30
 800184a:	f003 0302 	and.w	r3, r3, #2
 800184e:	9302      	str	r3, [sp, #8]
 8001850:	9b02      	ldr	r3, [sp, #8]
 8001852:	2240      	movs	r2, #64	@ 0x40
 8001854:	2302      	movs	r3, #2
 8001856:	e9cd 2303 	strd	r2, r3, [sp, #12]
 800185a:	9307      	str	r3, [sp, #28]
 800185c:	a903      	add	r1, sp, #12
 800185e:	e7e4      	b.n	800182a <HAL_TIM_MspPostInit+0x3e>
 8001860:	40000400 	.word	0x40000400
 8001864:	40023800 	.word	0x40023800
 8001868:	40020000 	.word	0x40020000
 800186c:	40000800 	.word	0x40000800
 8001870:	40020400 	.word	0x40020400

08001874 <HAL_UART_MspInit>:
 8001874:	b5f0      	push	{r4, r5, r6, r7, lr}
 8001876:	2214      	movs	r2, #20
 8001878:	b08b      	sub	sp, #44	@ 0x2c
 800187a:	4604      	mov	r4, r0
 800187c:	2100      	movs	r1, #0
 800187e:	eb0d 0002 	add.w	r0, sp, r2
 8001882:	f002 fa1a 	bl	8003cba <memset>
 8001886:	6823      	ldr	r3, [r4, #0]
 8001888:	4a34      	ldr	r2, [pc, #208]	@ (800195c <HAL_UART_MspInit+0xe8>)
 800188a:	4293      	cmp	r3, r2
 800188c:	d123      	bne.n	80018d6 <HAL_UART_MspInit+0x62>
 800188e:	4b34      	ldr	r3, [pc, #208]	@ (8001960 <HAL_UART_MspInit+0xec>)
 8001890:	4834      	ldr	r0, [pc, #208]	@ (8001964 <HAL_UART_MspInit+0xf0>)
 8001892:	2100      	movs	r1, #0
 8001894:	9100      	str	r1, [sp, #0]
 8001896:	6c1a      	ldr	r2, [r3, #64]	@ 0x40
 8001898:	f442 3200 	orr.w	r2, r2, #131072	@ 0x20000
 800189c:	641a      	str	r2, [r3, #64]	@ 0x40
 800189e:	6c1a      	ldr	r2, [r3, #64]	@ 0x40
 80018a0:	f402 3200 	and.w	r2, r2, #131072	@ 0x20000
 80018a4:	9200      	str	r2, [sp, #0]
 80018a6:	9a00      	ldr	r2, [sp, #0]
 80018a8:	9101      	str	r1, [sp, #4]
 80018aa:	6b1a      	ldr	r2, [r3, #48]	@ 0x30
 80018ac:	f042 0201 	orr.w	r2, r2, #1
 80018b0:	631a      	str	r2, [r3, #48]	@ 0x30
 80018b2:	6b1b      	ldr	r3, [r3, #48]	@ 0x30
 80018b4:	f003 0301 	and.w	r3, r3, #1
 80018b8:	9301      	str	r3, [sp, #4]
 80018ba:	9b01      	ldr	r3, [sp, #4]
 80018bc:	220c      	movs	r2, #12
 80018be:	2302      	movs	r3, #2
 80018c0:	2103      	movs	r1, #3
 80018c2:	e9cd 2305 	strd	r2, r3, [sp, #20]
 80018c6:	2307      	movs	r3, #7
 80018c8:	e9cd 1308 	strd	r1, r3, [sp, #32]
 80018cc:	a905      	add	r1, sp, #20
 80018ce:	f000 fa07 	bl	8001ce0 <HAL_GPIO_Init>
 80018d2:	b00b      	add	sp, #44	@ 0x2c
 80018d4:	bdf0      	pop	{r4, r5, r6, r7, pc}
 80018d6:	4a24      	ldr	r2, [pc, #144]	@ (8001968 <HAL_UART_MspInit+0xf4>)
 80018d8:	4293      	cmp	r3, r2
 80018da:	d1fa      	bne.n	80018d2 <HAL_UART_MspInit+0x5e>
 80018dc:	4b20      	ldr	r3, [pc, #128]	@ (8001960 <HAL_UART_MspInit+0xec>)
 80018de:	4823      	ldr	r0, [pc, #140]	@ (800196c <HAL_UART_MspInit+0xf8>)
 80018e0:	2400      	movs	r4, #0
 80018e2:	9402      	str	r4, [sp, #8]
 80018e4:	6c1a      	ldr	r2, [r3, #64]	@ 0x40
 80018e6:	f442 2280 	orr.w	r2, r2, #262144	@ 0x40000
 80018ea:	641a      	str	r2, [r3, #64]	@ 0x40
 80018ec:	6c1a      	ldr	r2, [r3, #64]	@ 0x40
 80018ee:	f402 2280 	and.w	r2, r2, #262144	@ 0x40000
 80018f2:	9202      	str	r2, [sp, #8]
 80018f4:	9a02      	ldr	r2, [sp, #8]
 80018f6:	9403      	str	r4, [sp, #12]
 80018f8:	6b1a      	ldr	r2, [r3, #48]	@ 0x30
 80018fa:	f042 0204 	orr.w	r2, r2, #4
 80018fe:	631a      	str	r2, [r3, #48]	@ 0x30
 8001900:	6b1a      	ldr	r2, [r3, #48]	@ 0x30
 8001902:	f002 0204 	and.w	r2, r2, #4
 8001906:	9203      	str	r2, [sp, #12]
 8001908:	9a03      	ldr	r2, [sp, #12]
 800190a:	9404      	str	r4, [sp, #16]
 800190c:	6b1a      	ldr	r2, [r3, #48]	@ 0x30
 800190e:	f042 0202 	orr.w	r2, r2, #2
 8001912:	631a      	str	r2, [r3, #48]	@ 0x30
 8001914:	6b1b      	ldr	r3, [r3, #48]	@ 0x30
 8001916:	f003 0302 	and.w	r3, r3, #2
 800191a:	9304      	str	r3, [sp, #16]
 800191c:	9b04      	ldr	r3, [sp, #16]
 800191e:	2702      	movs	r7, #2
 8001920:	2320      	movs	r3, #32
 8001922:	2603      	movs	r6, #3
 8001924:	2507      	movs	r5, #7
 8001926:	a905      	add	r1, sp, #20
 8001928:	e9cd 3705 	strd	r3, r7, [sp, #20]
 800192c:	e9cd 6508 	strd	r6, r5, [sp, #32]
 8001930:	f000 f9d6 	bl	8001ce0 <HAL_GPIO_Init>
 8001934:	f44f 6380 	mov.w	r3, #1024	@ 0x400
 8001938:	a905      	add	r1, sp, #20
 800193a:	480d      	ldr	r0, [pc, #52]	@ (8001970 <HAL_UART_MspInit+0xfc>)
 800193c:	9509      	str	r5, [sp, #36]	@ 0x24
 800193e:	e9cd 3705 	strd	r3, r7, [sp, #20]
 8001942:	e9cd 4607 	strd	r4, r6, [sp, #28]
 8001946:	f000 f9cb 	bl	8001ce0 <HAL_GPIO_Init>
 800194a:	4622      	mov	r2, r4
 800194c:	4621      	mov	r1, r4
 800194e:	2027      	movs	r0, #39	@ 0x27
 8001950:	f000 f922 	bl	8001b98 <HAL_NVIC_SetPriority>
 8001954:	2027      	movs	r0, #39	@ 0x27
 8001956:	f000 f951 	bl	8001bfc <HAL_NVIC_EnableIRQ>
 800195a:	e7ba      	b.n	80018d2 <HAL_UART_MspInit+0x5e>
 800195c:	40004400 	.word	0x40004400
 8001960:	40023800 	.word	0x40023800
 8001964:	40020000 	.word	0x40020000
 8001968:	40004800 	.word	0x40004800
 800196c:	40020800 	.word	0x40020800
 8001970:	40020400 	.word	0x40020400

08001974 <NMI_Handler>:
 8001974:	e7fe      	b.n	8001974 <NMI_Handler>

08001976 <HardFault_Handler>:
 8001976:	e7fe      	b.n	8001976 <HardFault_Handler>

08001978 <MemManage_Handler>:
 8001978:	e7fe      	b.n	8001978 <MemManage_Handler>

0800197a <BusFault_Handler>:
 800197a:	e7fe      	b.n	800197a <BusFault_Handler>

0800197c <UsageFault_Handler>:
 800197c:	e7fe      	b.n	800197c <UsageFault_Handler>

0800197e <SVC_Handler>:
 800197e:	4770      	bx	lr

08001980 <DebugMon_Handler>:
 8001980:	4770      	bx	lr

08001982 <PendSV_Handler>:
 8001982:	4770      	bx	lr

08001984 <SysTick_Handler>:
 8001984:	f000 b8d0 	b.w	8001b28 <HAL_IncTick>

08001988 <USART3_IRQHandler>:
 8001988:	4801      	ldr	r0, [pc, #4]	@ (8001990 <USART3_IRQHandler+0x8>)
 800198a:	f001 b98d 	b.w	8002ca8 <HAL_UART_IRQHandler>
 800198e:	bf00      	nop
 8001990:	20000434 	.word	0x20000434

08001994 <_getpid>:
 8001994:	2001      	movs	r0, #1
 8001996:	4770      	bx	lr

08001998 <_kill>:
 8001998:	b508      	push	{r3, lr}
 800199a:	f002 fa17 	bl	8003dcc <__errno>
 800199e:	2316      	movs	r3, #22
 80019a0:	6003      	str	r3, [r0, #0]
 80019a2:	f04f 30ff 	mov.w	r0, #4294967295
 80019a6:	bd08      	pop	{r3, pc}

080019a8 <_exit>:
 80019a8:	b508      	push	{r3, lr}
 80019aa:	f002 fa0f 	bl	8003dcc <__errno>
 80019ae:	2316      	movs	r3, #22
 80019b0:	6003      	str	r3, [r0, #0]
 80019b2:	e7fe      	b.n	80019b2 <_exit+0xa>

080019b4 <_read>:
 80019b4:	b570      	push	{r4, r5, r6, lr}
 80019b6:	460d      	mov	r5, r1
 80019b8:	4614      	mov	r4, r2
 80019ba:	460e      	mov	r6, r1
 80019bc:	1b73      	subs	r3, r6, r5
 80019be:	429c      	cmp	r4, r3
 80019c0:	dc01      	bgt.n	80019c6 <_read+0x12>
 80019c2:	4620      	mov	r0, r4
 80019c4:	bd70      	pop	{r4, r5, r6, pc}
 80019c6:	f3af 8000 	nop.w
 80019ca:	f806 0b01 	strb.w	r0, [r6], #1
 80019ce:	e7f5      	b.n	80019bc <_read+0x8>

080019d0 <_write>:
 80019d0:	b570      	push	{r4, r5, r6, lr}
 80019d2:	460d      	mov	r5, r1
 80019d4:	4614      	mov	r4, r2
 80019d6:	460e      	mov	r6, r1
 80019d8:	1b73      	subs	r3, r6, r5
 80019da:	429c      	cmp	r4, r3
 80019dc:	dc01      	bgt.n	80019e2 <_write+0x12>
 80019de:	4620      	mov	r0, r4
 80019e0:	bd70      	pop	{r4, r5, r6, pc}
 80019e2:	f816 0b01 	ldrb.w	r0, [r6], #1
 80019e6:	f7ff fc5f 	bl	80012a8 <__io_putchar>
 80019ea:	e7f5      	b.n	80019d8 <_write+0x8>

080019ec <_close>:
 80019ec:	f04f 30ff 	mov.w	r0, #4294967295
 80019f0:	4770      	bx	lr

080019f2 <_fstat>:
 80019f2:	f44f 5300 	mov.w	r3, #8192	@ 0x2000
 80019f6:	604b      	str	r3, [r1, #4]
 80019f8:	2000      	movs	r0, #0
 80019fa:	4770      	bx	lr

080019fc <_isatty>:
 80019fc:	2001      	movs	r0, #1
 80019fe:	4770      	bx	lr

08001a00 <_lseek>:
 8001a00:	2000      	movs	r0, #0
 8001a02:	4770      	bx	lr

08001a04 <_sbrk>:
 8001a04:	4a0b      	ldr	r2, [pc, #44]	@ (8001a34 <_sbrk+0x30>)
 8001a06:	6811      	ldr	r1, [r2, #0]
 8001a08:	b510      	push	{r4, lr}
 8001a0a:	4603      	mov	r3, r0
 8001a0c:	b909      	cbnz	r1, 8001a12 <_sbrk+0xe>
 8001a0e:	490a      	ldr	r1, [pc, #40]	@ (8001a38 <_sbrk+0x34>)
 8001a10:	6011      	str	r1, [r2, #0]
 8001a12:	6810      	ldr	r0, [r2, #0]
 8001a14:	4909      	ldr	r1, [pc, #36]	@ (8001a3c <_sbrk+0x38>)
 8001a16:	4c0a      	ldr	r4, [pc, #40]	@ (8001a40 <_sbrk+0x3c>)
 8001a18:	4403      	add	r3, r0
 8001a1a:	1b09      	subs	r1, r1, r4
 8001a1c:	428b      	cmp	r3, r1
 8001a1e:	d906      	bls.n	8001a2e <_sbrk+0x2a>
 8001a20:	f002 f9d4 	bl	8003dcc <__errno>
 8001a24:	230c      	movs	r3, #12
 8001a26:	6003      	str	r3, [r0, #0]
 8001a28:	f04f 30ff 	mov.w	r0, #4294967295
 8001a2c:	bd10      	pop	{r4, pc}
 8001a2e:	6013      	str	r3, [r2, #0]
 8001a30:	e7fc      	b.n	8001a2c <_sbrk+0x28>
 8001a32:	bf00      	nop
 8001a34:	200005a8 	.word	0x200005a8
 8001a38:	20000700 	.word	0x20000700
 8001a3c:	20020000 	.word	0x20020000
 8001a40:	00000400 	.word	0x00000400

08001a44 <SystemInit>:
 8001a44:	4a03      	ldr	r2, [pc, #12]	@ (8001a54 <SystemInit+0x10>)
 8001a46:	f8d2 3088 	ldr.w	r3, [r2, #136]	@ 0x88
 8001a4a:	f443 0370 	orr.w	r3, r3, #15728640	@ 0xf00000
 8001a4e:	f8c2 3088 	str.w	r3, [r2, #136]	@ 0x88
 8001a52:	4770      	bx	lr
 8001a54:	e000ed00 	.word	0xe000ed00

08001a58 <Reset_Handler>:
 8001a58:	f8df d034 	ldr.w	sp, [pc, #52]	@ 8001a90 <LoopFillZerobss+0xe>
 8001a5c:	f7ff fff2 	bl	8001a44 <SystemInit>
 8001a60:	480c      	ldr	r0, [pc, #48]	@ (8001a94 <LoopFillZerobss+0x12>)
 8001a62:	490d      	ldr	r1, [pc, #52]	@ (8001a98 <LoopFillZerobss+0x16>)
 8001a64:	4a0d      	ldr	r2, [pc, #52]	@ (8001a9c <LoopFillZerobss+0x1a>)
 8001a66:	2300      	movs	r3, #0
 8001a68:	e002      	b.n	8001a70 <LoopCopyDataInit>

08001a6a <CopyDataInit>:
 8001a6a:	58d4      	ldr	r4, [r2, r3]
 8001a6c:	50c4      	str	r4, [r0, r3]
 8001a6e:	3304      	adds	r3, #4

08001a70 <LoopCopyDataInit>:
 8001a70:	18c4      	adds	r4, r0, r3
 8001a72:	428c      	cmp	r4, r1
 8001a74:	d3f9      	bcc.n	8001a6a <CopyDataInit>
 8001a76:	4a0a      	ldr	r2, [pc, #40]	@ (8001aa0 <LoopFillZerobss+0x1e>)
 8001a78:	4c0a      	ldr	r4, [pc, #40]	@ (8001aa4 <LoopFillZerobss+0x22>)
 8001a7a:	2300      	movs	r3, #0
 8001a7c:	e001      	b.n	8001a82 <LoopFillZerobss>

08001a7e <FillZerobss>:
 8001a7e:	6013      	str	r3, [r2, #0]
 8001a80:	3204      	adds	r2, #4

08001a82 <LoopFillZerobss>:
 8001a82:	42a2      	cmp	r2, r4
 8001a84:	d3fb      	bcc.n	8001a7e <FillZerobss>
 8001a86:	f002 f9a7 	bl	8003dd8 <__libc_init_array>
 8001a8a:	f7ff fc95 	bl	80013b8 <main>
 8001a8e:	4770      	bx	lr
 8001a90:	20020000 	.word	0x20020000
 8001a94:	20000000 	.word	0x20000000
 8001a98:	20000210 	.word	0x20000210
 8001a9c:	080072d0 	.word	0x080072d0
 8001aa0:	20000210 	.word	0x20000210
 8001aa4:	200006fc 	.word	0x200006fc

08001aa8 <ADC_IRQHandler>:
 8001aa8:	e7fe      	b.n	8001aa8 <ADC_IRQHandler>
	...

08001aac <HAL_InitTick>:
 8001aac:	b538      	push	{r3, r4, r5, lr}
 8001aae:	4b0e      	ldr	r3, [pc, #56]	@ (8001ae8 <HAL_InitTick+0x3c>)
 8001ab0:	781a      	ldrb	r2, [r3, #0]
 8001ab2:	f44f 737a 	mov.w	r3, #1000	@ 0x3e8
 8001ab6:	fbb3 f3f2 	udiv	r3, r3, r2
 8001aba:	4a0c      	ldr	r2, [pc, #48]	@ (8001aec <HAL_InitTick+0x40>)
 8001abc:	4605      	mov	r5, r0
 8001abe:	6810      	ldr	r0, [r2, #0]
 8001ac0:	fbb0 f0f3 	udiv	r0, r0, r3
 8001ac4:	f000 f8a8 	bl	8001c18 <HAL_SYSTICK_Config>
 8001ac8:	4604      	mov	r4, r0
 8001aca:	b958      	cbnz	r0, 8001ae4 <HAL_InitTick+0x38>
 8001acc:	2d0f      	cmp	r5, #15
 8001ace:	d809      	bhi.n	8001ae4 <HAL_InitTick+0x38>
 8001ad0:	4602      	mov	r2, r0
 8001ad2:	4629      	mov	r1, r5
 8001ad4:	f04f 30ff 	mov.w	r0, #4294967295
 8001ad8:	f000 f85e 	bl	8001b98 <HAL_NVIC_SetPriority>
 8001adc:	4b04      	ldr	r3, [pc, #16]	@ (8001af0 <HAL_InitTick+0x44>)
 8001ade:	4620      	mov	r0, r4
 8001ae0:	601d      	str	r5, [r3, #0]
 8001ae2:	bd38      	pop	{r3, r4, r5, pc}
 8001ae4:	2001      	movs	r0, #1
 8001ae6:	e7fc      	b.n	8001ae2 <HAL_InitTick+0x36>
 8001ae8:	2000002c 	.word	0x2000002c
 8001aec:	20000028 	.word	0x20000028
 8001af0:	20000030 	.word	0x20000030

08001af4 <HAL_Init>:
 8001af4:	b508      	push	{r3, lr}
 8001af6:	4b0b      	ldr	r3, [pc, #44]	@ (8001b24 <HAL_Init+0x30>)
 8001af8:	681a      	ldr	r2, [r3, #0]
 8001afa:	f442 7200 	orr.w	r2, r2, #512	@ 0x200
 8001afe:	601a      	str	r2, [r3, #0]
 8001b00:	681a      	ldr	r2, [r3, #0]
 8001b02:	f442 6280 	orr.w	r2, r2, #1024	@ 0x400
 8001b06:	601a      	str	r2, [r3, #0]
 8001b08:	681a      	ldr	r2, [r3, #0]
 8001b0a:	f442 7280 	orr.w	r2, r2, #256	@ 0x100
 8001b0e:	601a      	str	r2, [r3, #0]
 8001b10:	2003      	movs	r0, #3
 8001b12:	f000 f82f 	bl	8001b74 <HAL_NVIC_SetPriorityGrouping>
 8001b16:	2000      	movs	r0, #0
 8001b18:	f7ff ffc8 	bl	8001aac <HAL_InitTick>
 8001b1c:	f7ff fde8 	bl	80016f0 <HAL_MspInit>
 8001b20:	2000      	movs	r0, #0
 8001b22:	bd08      	pop	{r3, pc}
 8001b24:	40023c00 	.word	0x40023c00

08001b28 <HAL_IncTick>:
 8001b28:	4a03      	ldr	r2, [pc, #12]	@ (8001b38 <HAL_IncTick+0x10>)
 8001b2a:	4b04      	ldr	r3, [pc, #16]	@ (8001b3c <HAL_IncTick+0x14>)
 8001b2c:	6811      	ldr	r1, [r2, #0]
 8001b2e:	781b      	ldrb	r3, [r3, #0]
 8001b30:	440b      	add	r3, r1
 8001b32:	6013      	str	r3, [r2, #0]
 8001b34:	4770      	bx	lr
 8001b36:	bf00      	nop
 8001b38:	200005ac 	.word	0x200005ac
 8001b3c:	2000002c 	.word	0x2000002c

08001b40 <HAL_GetTick>:
 8001b40:	4b01      	ldr	r3, [pc, #4]	@ (8001b48 <HAL_GetTick+0x8>)
 8001b42:	6818      	ldr	r0, [r3, #0]
 8001b44:	4770      	bx	lr
 8001b46:	bf00      	nop
 8001b48:	200005ac 	.word	0x200005ac

08001b4c <HAL_Delay>:
 8001b4c:	b538      	push	{r3, r4, r5, lr}
 8001b4e:	4604      	mov	r4, r0
 8001b50:	f7ff fff6 	bl	8001b40 <HAL_GetTick>
 8001b54:	1c63      	adds	r3, r4, #1
 8001b56:	bf1c      	itt	ne
 8001b58:	4b05      	ldrne	r3, [pc, #20]	@ (8001b70 <HAL_Delay+0x24>)
 8001b5a:	781b      	ldrbne	r3, [r3, #0]
 8001b5c:	4605      	mov	r5, r0
 8001b5e:	bf18      	it	ne
 8001b60:	18e4      	addne	r4, r4, r3
 8001b62:	f7ff ffed 	bl	8001b40 <HAL_GetTick>
 8001b66:	1b43      	subs	r3, r0, r5
 8001b68:	42a3      	cmp	r3, r4
 8001b6a:	d3fa      	bcc.n	8001b62 <HAL_Delay+0x16>
 8001b6c:	bd38      	pop	{r3, r4, r5, pc}
 8001b6e:	bf00      	nop
 8001b70:	2000002c 	.word	0x2000002c

08001b74 <HAL_NVIC_SetPriorityGrouping>:
 8001b74:	4907      	ldr	r1, [pc, #28]	@ (8001b94 <HAL_NVIC_SetPriorityGrouping+0x20>)
 8001b76:	68ca      	ldr	r2, [r1, #12]
 8001b78:	f422 62e0 	bic.w	r2, r2, #1792	@ 0x700
 8001b7c:	0203      	lsls	r3, r0, #8
 8001b7e:	0412      	lsls	r2, r2, #16
 8001b80:	f403 63e0 	and.w	r3, r3, #1792	@ 0x700
 8001b84:	0c12      	lsrs	r2, r2, #16
 8001b86:	4313      	orrs	r3, r2
 8001b88:	f043 63bf 	orr.w	r3, r3, #100139008	@ 0x5f80000
 8001b8c:	f443 3300 	orr.w	r3, r3, #131072	@ 0x20000
 8001b90:	60cb      	str	r3, [r1, #12]
 8001b92:	4770      	bx	lr
 8001b94:	e000ed00 	.word	0xe000ed00

08001b98 <HAL_NVIC_SetPriority>:
 8001b98:	4b16      	ldr	r3, [pc, #88]	@ (8001bf4 <HAL_NVIC_SetPriority+0x5c>)
 8001b9a:	b530      	push	{r4, r5, lr}
 8001b9c:	68dc      	ldr	r4, [r3, #12]
 8001b9e:	f3c4 2402 	ubfx	r4, r4, #8, #3
 8001ba2:	f1c4 0307 	rsb	r3, r4, #7
 8001ba6:	1d25      	adds	r5, r4, #4
 8001ba8:	2b04      	cmp	r3, #4
 8001baa:	bf28      	it	cs
 8001bac:	2304      	movcs	r3, #4
 8001bae:	2d06      	cmp	r5, #6
 8001bb0:	f04f 35ff 	mov.w	r5, #4294967295
 8001bb4:	bf8c      	ite	hi
 8001bb6:	3c03      	subhi	r4, #3
 8001bb8:	2400      	movls	r4, #0
 8001bba:	fa05 f303 	lsl.w	r3, r5, r3
 8001bbe:	ea21 0303 	bic.w	r3, r1, r3
 8001bc2:	40a5      	lsls	r5, r4
 8001bc4:	ea22 0205 	bic.w	r2, r2, r5
 8001bc8:	40a3      	lsls	r3, r4
 8001bca:	2800      	cmp	r0, #0
 8001bcc:	ea43 0302 	orr.w	r3, r3, r2
 8001bd0:	bfac      	ite	ge
 8001bd2:	f100 4060 	addge.w	r0, r0, #3758096384	@ 0xe0000000
 8001bd6:	4a08      	ldrlt	r2, [pc, #32]	@ (8001bf8 <HAL_NVIC_SetPriority+0x60>)
 8001bd8:	ea4f 1303 	mov.w	r3, r3, lsl #4
 8001bdc:	bfb8      	it	lt
 8001bde:	f000 000f 	andlt.w	r0, r0, #15
 8001be2:	b2db      	uxtb	r3, r3
 8001be4:	bfaa      	itet	ge
 8001be6:	f500 4061 	addge.w	r0, r0, #57600	@ 0xe100
 8001bea:	5413      	strblt	r3, [r2, r0]
 8001bec:	f880 3300 	strbge.w	r3, [r0, #768]	@ 0x300
 8001bf0:	bd30      	pop	{r4, r5, pc}
 8001bf2:	bf00      	nop
 8001bf4:	e000ed00 	.word	0xe000ed00
 8001bf8:	e000ed14 	.word	0xe000ed14

08001bfc <HAL_NVIC_EnableIRQ>:
 8001bfc:	2800      	cmp	r0, #0
 8001bfe:	db07      	blt.n	8001c10 <HAL_NVIC_EnableIRQ+0x14>
 8001c00:	4a04      	ldr	r2, [pc, #16]	@ (8001c14 <HAL_NVIC_EnableIRQ+0x18>)
 8001c02:	0941      	lsrs	r1, r0, #5
 8001c04:	2301      	movs	r3, #1
 8001c06:	f000 001f 	and.w	r0, r0, #31
 8001c0a:	4083      	lsls	r3, r0
 8001c0c:	f842 3021 	str.w	r3, [r2, r1, lsl #2]
 8001c10:	4770      	bx	lr
 8001c12:	bf00      	nop
 8001c14:	e000e100 	.word	0xe000e100

08001c18 <HAL_SYSTICK_Config>:
 8001c18:	3801      	subs	r0, #1
 8001c1a:	f1b0 7f80 	cmp.w	r0, #16777216	@ 0x1000000
 8001c1e:	d20b      	bcs.n	8001c38 <HAL_SYSTICK_Config+0x20>
 8001c20:	f04f 23e0 	mov.w	r3, #3758153728	@ 0xe000e000
 8001c24:	4a05      	ldr	r2, [pc, #20]	@ (8001c3c <HAL_SYSTICK_Config+0x24>)
 8001c26:	6158      	str	r0, [r3, #20]
 8001c28:	21f0      	movs	r1, #240	@ 0xf0
 8001c2a:	f882 1023 	strb.w	r1, [r2, #35]	@ 0x23
 8001c2e:	2000      	movs	r0, #0
 8001c30:	2207      	movs	r2, #7
 8001c32:	6198      	str	r0, [r3, #24]
 8001c34:	611a      	str	r2, [r3, #16]
 8001c36:	4770      	bx	lr
 8001c38:	2001      	movs	r0, #1
 8001c3a:	4770      	bx	lr
 8001c3c:	e000ed00 	.word	0xe000ed00

08001c40 <HAL_DMA_Abort>:
 8001c40:	b570      	push	{r4, r5, r6, lr}
 8001c42:	4604      	mov	r4, r0
 8001c44:	6d86      	ldr	r6, [r0, #88]	@ 0x58
 8001c46:	f7ff ff7b 	bl	8001b40 <HAL_GetTick>
 8001c4a:	f894 3035 	ldrb.w	r3, [r4, #53]	@ 0x35
 8001c4e:	2b02      	cmp	r3, #2
 8001c50:	4605      	mov	r5, r0
 8001c52:	d006      	beq.n	8001c62 <HAL_DMA_Abort+0x22>
 8001c54:	2380      	movs	r3, #128	@ 0x80
 8001c56:	6563      	str	r3, [r4, #84]	@ 0x54
 8001c58:	2001      	movs	r0, #1
 8001c5a:	2300      	movs	r3, #0
 8001c5c:	f884 3034 	strb.w	r3, [r4, #52]	@ 0x34
 8001c60:	bd70      	pop	{r4, r5, r6, pc}
 8001c62:	6823      	ldr	r3, [r4, #0]
 8001c64:	681a      	ldr	r2, [r3, #0]
 8001c66:	f022 0216 	bic.w	r2, r2, #22
 8001c6a:	601a      	str	r2, [r3, #0]
 8001c6c:	695a      	ldr	r2, [r3, #20]
 8001c6e:	f022 0280 	bic.w	r2, r2, #128	@ 0x80
 8001c72:	615a      	str	r2, [r3, #20]
 8001c74:	6c22      	ldr	r2, [r4, #64]	@ 0x40
 8001c76:	b90a      	cbnz	r2, 8001c7c <HAL_DMA_Abort+0x3c>
 8001c78:	6ca2      	ldr	r2, [r4, #72]	@ 0x48
 8001c7a:	b11a      	cbz	r2, 8001c84 <HAL_DMA_Abort+0x44>
 8001c7c:	681a      	ldr	r2, [r3, #0]
 8001c7e:	f022 0208 	bic.w	r2, r2, #8
 8001c82:	601a      	str	r2, [r3, #0]
 8001c84:	681a      	ldr	r2, [r3, #0]
 8001c86:	f022 0201 	bic.w	r2, r2, #1
 8001c8a:	601a      	str	r2, [r3, #0]
 8001c8c:	6823      	ldr	r3, [r4, #0]
 8001c8e:	6818      	ldr	r0, [r3, #0]
 8001c90:	f010 0001 	ands.w	r0, r0, #1
 8001c94:	d107      	bne.n	8001ca6 <HAL_DMA_Abort+0x66>
 8001c96:	6de2      	ldr	r2, [r4, #92]	@ 0x5c
 8001c98:	233f      	movs	r3, #63	@ 0x3f
 8001c9a:	4093      	lsls	r3, r2
 8001c9c:	60b3      	str	r3, [r6, #8]
 8001c9e:	2301      	movs	r3, #1
 8001ca0:	f884 3035 	strb.w	r3, [r4, #53]	@ 0x35
 8001ca4:	e7d9      	b.n	8001c5a <HAL_DMA_Abort+0x1a>
 8001ca6:	f7ff ff4b 	bl	8001b40 <HAL_GetTick>
 8001caa:	1b40      	subs	r0, r0, r5
 8001cac:	2805      	cmp	r0, #5
 8001cae:	d9ed      	bls.n	8001c8c <HAL_DMA_Abort+0x4c>
 8001cb0:	2320      	movs	r3, #32
 8001cb2:	2003      	movs	r0, #3
 8001cb4:	6563      	str	r3, [r4, #84]	@ 0x54
 8001cb6:	f884 0035 	strb.w	r0, [r4, #53]	@ 0x35
 8001cba:	e7ce      	b.n	8001c5a <HAL_DMA_Abort+0x1a>

08001cbc <HAL_DMA_Abort_IT>:
 8001cbc:	f890 3035 	ldrb.w	r3, [r0, #53]	@ 0x35
 8001cc0:	2b02      	cmp	r3, #2
 8001cc2:	d003      	beq.n	8001ccc <HAL_DMA_Abort_IT+0x10>
 8001cc4:	2380      	movs	r3, #128	@ 0x80
 8001cc6:	6543      	str	r3, [r0, #84]	@ 0x54
 8001cc8:	2001      	movs	r0, #1
 8001cca:	4770      	bx	lr
 8001ccc:	6802      	ldr	r2, [r0, #0]
 8001cce:	2305      	movs	r3, #5
 8001cd0:	f880 3035 	strb.w	r3, [r0, #53]	@ 0x35
 8001cd4:	6813      	ldr	r3, [r2, #0]
 8001cd6:	f023 0301 	bic.w	r3, r3, #1
 8001cda:	6013      	str	r3, [r2, #0]
 8001cdc:	2000      	movs	r0, #0
 8001cde:	4770      	bx	lr

08001ce0 <HAL_GPIO_Init>:
 8001ce0:	e92d 4ff7 	stmdb	sp!, {r0, r1, r2, r4, r5, r6, r7, r8, r9, sl, fp, lr}
 8001ce4:	f8df 9198 	ldr.w	r9, [pc, #408]	@ 8001e80 <HAL_GPIO_Init+0x1a0>
 8001ce8:	4a63      	ldr	r2, [pc, #396]	@ (8001e78 <HAL_GPIO_Init+0x198>)
 8001cea:	2300      	movs	r3, #0
 8001cec:	680d      	ldr	r5, [r1, #0]
 8001cee:	2401      	movs	r4, #1
 8001cf0:	409c      	lsls	r4, r3
 8001cf2:	ea04 0605 	and.w	r6, r4, r5
 8001cf6:	43ac      	bics	r4, r5
 8001cf8:	f040 80ab 	bne.w	8001e52 <HAL_GPIO_Init+0x172>
 8001cfc:	684d      	ldr	r5, [r1, #4]
 8001cfe:	2703      	movs	r7, #3
 8001d00:	f005 0403 	and.w	r4, r5, #3
 8001d04:	ea4f 0843 	mov.w	r8, r3, lsl #1
 8001d08:	fa07 fc08 	lsl.w	ip, r7, r8
 8001d0c:	1e67      	subs	r7, r4, #1
 8001d0e:	2f01      	cmp	r7, #1
 8001d10:	ea6f 0c0c 	mvn.w	ip, ip
 8001d14:	d834      	bhi.n	8001d80 <HAL_GPIO_Init+0xa0>
 8001d16:	6887      	ldr	r7, [r0, #8]
 8001d18:	ea07 0e0c 	and.w	lr, r7, ip
 8001d1c:	68cf      	ldr	r7, [r1, #12]
 8001d1e:	fa07 f708 	lsl.w	r7, r7, r8
 8001d22:	ea47 070e 	orr.w	r7, r7, lr
 8001d26:	6087      	str	r7, [r0, #8]
 8001d28:	6847      	ldr	r7, [r0, #4]
 8001d2a:	ea27 0e06 	bic.w	lr, r7, r6
 8001d2e:	f3c5 1700 	ubfx	r7, r5, #4, #1
 8001d32:	409f      	lsls	r7, r3
 8001d34:	ea47 070e 	orr.w	r7, r7, lr
 8001d38:	6047      	str	r7, [r0, #4]
 8001d3a:	68c7      	ldr	r7, [r0, #12]
 8001d3c:	ea07 0e0c 	and.w	lr, r7, ip
 8001d40:	688f      	ldr	r7, [r1, #8]
 8001d42:	fa07 f708 	lsl.w	r7, r7, r8
 8001d46:	ea47 070e 	orr.w	r7, r7, lr
 8001d4a:	2c02      	cmp	r4, #2
 8001d4c:	60c7      	str	r7, [r0, #12]
 8001d4e:	d119      	bne.n	8001d84 <HAL_GPIO_Init+0xa4>
 8001d50:	ea4f 0ad3 	mov.w	sl, r3, lsr #3
 8001d54:	eb00 0a8a 	add.w	sl, r0, sl, lsl #2
 8001d58:	f003 0b07 	and.w	fp, r3, #7
 8001d5c:	f8da 7020 	ldr.w	r7, [sl, #32]
 8001d60:	ea4f 0b8b 	mov.w	fp, fp, lsl #2
 8001d64:	f04f 0e0f 	mov.w	lr, #15
 8001d68:	fa0e fe0b 	lsl.w	lr, lr, fp
 8001d6c:	ea27 0e0e 	bic.w	lr, r7, lr
 8001d70:	690f      	ldr	r7, [r1, #16]
 8001d72:	fa07 f70b 	lsl.w	r7, r7, fp
 8001d76:	ea47 070e 	orr.w	r7, r7, lr
 8001d7a:	f8ca 7020 	str.w	r7, [sl, #32]
 8001d7e:	e001      	b.n	8001d84 <HAL_GPIO_Init+0xa4>
 8001d80:	2c03      	cmp	r4, #3
 8001d82:	d1da      	bne.n	8001d3a <HAL_GPIO_Init+0x5a>
 8001d84:	6807      	ldr	r7, [r0, #0]
 8001d86:	fa04 f408 	lsl.w	r4, r4, r8
 8001d8a:	ea07 070c 	and.w	r7, r7, ip
 8001d8e:	433c      	orrs	r4, r7
 8001d90:	f415 3f40 	tst.w	r5, #196608	@ 0x30000
 8001d94:	6004      	str	r4, [r0, #0]
 8001d96:	d05c      	beq.n	8001e52 <HAL_GPIO_Init+0x172>
 8001d98:	2400      	movs	r4, #0
 8001d9a:	9401      	str	r4, [sp, #4]
 8001d9c:	f8d9 4044 	ldr.w	r4, [r9, #68]	@ 0x44
 8001da0:	f444 4480 	orr.w	r4, r4, #16384	@ 0x4000
 8001da4:	f8c9 4044 	str.w	r4, [r9, #68]	@ 0x44
 8001da8:	f8d9 4044 	ldr.w	r4, [r9, #68]	@ 0x44
 8001dac:	f023 0703 	bic.w	r7, r3, #3
 8001db0:	f107 4780 	add.w	r7, r7, #1073741824	@ 0x40000000
 8001db4:	f404 4480 	and.w	r4, r4, #16384	@ 0x4000
 8001db8:	f507 379c 	add.w	r7, r7, #79872	@ 0x13800
 8001dbc:	9401      	str	r4, [sp, #4]
 8001dbe:	f003 0c03 	and.w	ip, r3, #3
 8001dc2:	9c01      	ldr	r4, [sp, #4]
 8001dc4:	f8d7 e008 	ldr.w	lr, [r7, #8]
 8001dc8:	ea4f 0c8c 	mov.w	ip, ip, lsl #2
 8001dcc:	240f      	movs	r4, #15
 8001dce:	fa04 f40c 	lsl.w	r4, r4, ip
 8001dd2:	ea2e 0e04 	bic.w	lr, lr, r4
 8001dd6:	4c29      	ldr	r4, [pc, #164]	@ (8001e7c <HAL_GPIO_Init+0x19c>)
 8001dd8:	42a0      	cmp	r0, r4
 8001dda:	d041      	beq.n	8001e60 <HAL_GPIO_Init+0x180>
 8001ddc:	f504 6480 	add.w	r4, r4, #1024	@ 0x400
 8001de0:	42a0      	cmp	r0, r4
 8001de2:	d03f      	beq.n	8001e64 <HAL_GPIO_Init+0x184>
 8001de4:	f504 6480 	add.w	r4, r4, #1024	@ 0x400
 8001de8:	42a0      	cmp	r0, r4
 8001dea:	d03d      	beq.n	8001e68 <HAL_GPIO_Init+0x188>
 8001dec:	f504 6480 	add.w	r4, r4, #1024	@ 0x400
 8001df0:	42a0      	cmp	r0, r4
 8001df2:	d03b      	beq.n	8001e6c <HAL_GPIO_Init+0x18c>
 8001df4:	f504 6480 	add.w	r4, r4, #1024	@ 0x400
 8001df8:	42a0      	cmp	r0, r4
 8001dfa:	d039      	beq.n	8001e70 <HAL_GPIO_Init+0x190>
 8001dfc:	f504 6480 	add.w	r4, r4, #1024	@ 0x400
 8001e00:	42a0      	cmp	r0, r4
 8001e02:	d037      	beq.n	8001e74 <HAL_GPIO_Init+0x194>
 8001e04:	f504 6480 	add.w	r4, r4, #1024	@ 0x400
 8001e08:	42a0      	cmp	r0, r4
 8001e0a:	bf14      	ite	ne
 8001e0c:	2407      	movne	r4, #7
 8001e0e:	2406      	moveq	r4, #6
 8001e10:	fa04 f40c 	lsl.w	r4, r4, ip
 8001e14:	ea44 040e 	orr.w	r4, r4, lr
 8001e18:	60bc      	str	r4, [r7, #8]
 8001e1a:	6894      	ldr	r4, [r2, #8]
 8001e1c:	43f7      	mvns	r7, r6
 8001e1e:	f415 1f80 	tst.w	r5, #1048576	@ 0x100000
 8001e22:	bf0c      	ite	eq
 8001e24:	403c      	andeq	r4, r7
 8001e26:	4334      	orrne	r4, r6
 8001e28:	6094      	str	r4, [r2, #8]
 8001e2a:	68d4      	ldr	r4, [r2, #12]
 8001e2c:	f415 1f00 	tst.w	r5, #2097152	@ 0x200000
 8001e30:	bf0c      	ite	eq
 8001e32:	403c      	andeq	r4, r7
 8001e34:	4334      	orrne	r4, r6
 8001e36:	60d4      	str	r4, [r2, #12]
 8001e38:	6854      	ldr	r4, [r2, #4]
 8001e3a:	f415 3f00 	tst.w	r5, #131072	@ 0x20000
 8001e3e:	bf0c      	ite	eq
 8001e40:	403c      	andeq	r4, r7
 8001e42:	4334      	orrne	r4, r6
 8001e44:	6054      	str	r4, [r2, #4]
 8001e46:	6814      	ldr	r4, [r2, #0]
 8001e48:	03ed      	lsls	r5, r5, #15
 8001e4a:	bf54      	ite	pl
 8001e4c:	403c      	andpl	r4, r7
 8001e4e:	4334      	orrmi	r4, r6
 8001e50:	6014      	str	r4, [r2, #0]
 8001e52:	3301      	adds	r3, #1
 8001e54:	2b10      	cmp	r3, #16
 8001e56:	f47f af49 	bne.w	8001cec <HAL_GPIO_Init+0xc>
 8001e5a:	b003      	add	sp, #12
 8001e5c:	e8bd 8ff0 	ldmia.w	sp!, {r4, r5, r6, r7, r8, r9, sl, fp, pc}
 8001e60:	2400      	movs	r4, #0
 8001e62:	e7d5      	b.n	8001e10 <HAL_GPIO_Init+0x130>
 8001e64:	2401      	movs	r4, #1
 8001e66:	e7d3      	b.n	8001e10 <HAL_GPIO_Init+0x130>
 8001e68:	2402      	movs	r4, #2
 8001e6a:	e7d1      	b.n	8001e10 <HAL_GPIO_Init+0x130>
 8001e6c:	2403      	movs	r4, #3
 8001e6e:	e7cf      	b.n	8001e10 <HAL_GPIO_Init+0x130>
 8001e70:	2404      	movs	r4, #4
 8001e72:	e7cd      	b.n	8001e10 <HAL_GPIO_Init+0x130>
 8001e74:	2405      	movs	r4, #5
 8001e76:	e7cb      	b.n	8001e10 <HAL_GPIO_Init+0x130>
 8001e78:	40013c00 	.word	0x40013c00
 8001e7c:	40020000 	.word	0x40020000
 8001e80:	40023800 	.word	0x40023800

08001e84 <HAL_GPIO_WritePin>:
 8001e84:	b10a      	cbz	r2, 8001e8a <HAL_GPIO_WritePin+0x6>
 8001e86:	6181      	str	r1, [r0, #24]
 8001e88:	4770      	bx	lr
 8001e8a:	0409      	lsls	r1, r1, #16
 8001e8c:	e7fb      	b.n	8001e86 <HAL_GPIO_WritePin+0x2>
	...

08001e90 <HAL_I2C_Init>:
 8001e90:	b570      	push	{r4, r5, r6, lr}
 8001e92:	4604      	mov	r4, r0
 8001e94:	b908      	cbnz	r0, 8001e9a <HAL_I2C_Init+0xa>
 8001e96:	2001      	movs	r0, #1
 8001e98:	bd70      	pop	{r4, r5, r6, pc}
 8001e9a:	f890 303d 	ldrb.w	r3, [r0, #61]	@ 0x3d
 8001e9e:	f003 02ff 	and.w	r2, r3, #255	@ 0xff
 8001ea2:	b91b      	cbnz	r3, 8001eac <HAL_I2C_Init+0x1c>
 8001ea4:	f880 203c 	strb.w	r2, [r0, #60]	@ 0x3c
 8001ea8:	f7ff fc3e 	bl	8001728 <HAL_I2C_MspInit>
 8001eac:	2324      	movs	r3, #36	@ 0x24
 8001eae:	f884 303d 	strb.w	r3, [r4, #61]	@ 0x3d
 8001eb2:	6823      	ldr	r3, [r4, #0]
 8001eb4:	681a      	ldr	r2, [r3, #0]
 8001eb6:	f022 0201 	bic.w	r2, r2, #1
 8001eba:	601a      	str	r2, [r3, #0]
 8001ebc:	681a      	ldr	r2, [r3, #0]
 8001ebe:	f442 4200 	orr.w	r2, r2, #32768	@ 0x8000
 8001ec2:	601a      	str	r2, [r3, #0]
 8001ec4:	681a      	ldr	r2, [r3, #0]
 8001ec6:	f422 4200 	bic.w	r2, r2, #32768	@ 0x8000
 8001eca:	601a      	str	r2, [r3, #0]
 8001ecc:	f000 f922 	bl	8002114 <HAL_RCC_GetPCLK1Freq>
 8001ed0:	4b3f      	ldr	r3, [pc, #252]	@ (8001fd0 <HAL_I2C_Init+0x140>)
 8001ed2:	6865      	ldr	r5, [r4, #4]
 8001ed4:	429d      	cmp	r5, r3
 8001ed6:	bf94      	ite	ls
 8001ed8:	4b3e      	ldrls	r3, [pc, #248]	@ (8001fd4 <HAL_I2C_Init+0x144>)
 8001eda:	4b3f      	ldrhi	r3, [pc, #252]	@ (8001fd8 <HAL_I2C_Init+0x148>)
 8001edc:	4298      	cmp	r0, r3
 8001ede:	bf8c      	ite	hi
 8001ee0:	2300      	movhi	r3, #0
 8001ee2:	2301      	movls	r3, #1
 8001ee4:	2b00      	cmp	r3, #0
 8001ee6:	d1d6      	bne.n	8001e96 <HAL_I2C_Init+0x6>
 8001ee8:	6822      	ldr	r2, [r4, #0]
 8001eea:	4e39      	ldr	r6, [pc, #228]	@ (8001fd0 <HAL_I2C_Init+0x140>)
 8001eec:	6851      	ldr	r1, [r2, #4]
 8001eee:	4b3b      	ldr	r3, [pc, #236]	@ (8001fdc <HAL_I2C_Init+0x14c>)
 8001ef0:	fbb0 f3f3 	udiv	r3, r0, r3
 8001ef4:	f021 013f 	bic.w	r1, r1, #63	@ 0x3f
 8001ef8:	4319      	orrs	r1, r3
 8001efa:	42b5      	cmp	r5, r6
 8001efc:	6051      	str	r1, [r2, #4]
 8001efe:	bf88      	it	hi
 8001f00:	f44f 7696 	movhi.w	r6, #300	@ 0x12c
 8001f04:	6a11      	ldr	r1, [r2, #32]
 8001f06:	bf88      	it	hi
 8001f08:	4373      	mulhi	r3, r6
 8001f0a:	f021 013f 	bic.w	r1, r1, #63	@ 0x3f
 8001f0e:	bf84      	itt	hi
 8001f10:	f44f 767a 	movhi.w	r6, #1000	@ 0x3e8
 8001f14:	fbb3 f3f6 	udivhi	r3, r3, r6
 8001f18:	3301      	adds	r3, #1
 8001f1a:	430b      	orrs	r3, r1
 8001f1c:	6213      	str	r3, [r2, #32]
 8001f1e:	69d1      	ldr	r1, [r2, #28]
 8001f20:	1e43      	subs	r3, r0, #1
 8001f22:	482b      	ldr	r0, [pc, #172]	@ (8001fd0 <HAL_I2C_Init+0x140>)
 8001f24:	f421 414f 	bic.w	r1, r1, #52992	@ 0xcf00
 8001f28:	4285      	cmp	r5, r0
 8001f2a:	f021 01ff 	bic.w	r1, r1, #255	@ 0xff
 8001f2e:	d832      	bhi.n	8001f96 <HAL_I2C_Init+0x106>
 8001f30:	006d      	lsls	r5, r5, #1
 8001f32:	f640 70fc 	movw	r0, #4092	@ 0xffc
 8001f36:	fbb3 f3f5 	udiv	r3, r3, r5
 8001f3a:	3301      	adds	r3, #1
 8001f3c:	4203      	tst	r3, r0
 8001f3e:	d042      	beq.n	8001fc6 <HAL_I2C_Init+0x136>
 8001f40:	f3c3 030b 	ubfx	r3, r3, #0, #12
 8001f44:	4319      	orrs	r1, r3
 8001f46:	61d1      	str	r1, [r2, #28]
 8001f48:	e9d4 3007 	ldrd	r3, r0, [r4, #28]
 8001f4c:	6811      	ldr	r1, [r2, #0]
 8001f4e:	4303      	orrs	r3, r0
 8001f50:	f021 01c0 	bic.w	r1, r1, #192	@ 0xc0
 8001f54:	430b      	orrs	r3, r1
 8001f56:	6013      	str	r3, [r2, #0]
 8001f58:	6891      	ldr	r1, [r2, #8]
 8001f5a:	e9d4 0303 	ldrd	r0, r3, [r4, #12]
 8001f5e:	f421 4103 	bic.w	r1, r1, #33536	@ 0x8300
 8001f62:	4303      	orrs	r3, r0
 8001f64:	f021 01ff 	bic.w	r1, r1, #255	@ 0xff
 8001f68:	430b      	orrs	r3, r1
 8001f6a:	6093      	str	r3, [r2, #8]
 8001f6c:	e9d4 3005 	ldrd	r3, r0, [r4, #20]
 8001f70:	68d1      	ldr	r1, [r2, #12]
 8001f72:	4303      	orrs	r3, r0
 8001f74:	f021 01ff 	bic.w	r1, r1, #255	@ 0xff
 8001f78:	430b      	orrs	r3, r1
 8001f7a:	60d3      	str	r3, [r2, #12]
 8001f7c:	6813      	ldr	r3, [r2, #0]
 8001f7e:	f043 0301 	orr.w	r3, r3, #1
 8001f82:	6013      	str	r3, [r2, #0]
 8001f84:	2000      	movs	r0, #0
 8001f86:	2320      	movs	r3, #32
 8001f88:	6420      	str	r0, [r4, #64]	@ 0x40
 8001f8a:	f884 303d 	strb.w	r3, [r4, #61]	@ 0x3d
 8001f8e:	6320      	str	r0, [r4, #48]	@ 0x30
 8001f90:	f884 003e 	strb.w	r0, [r4, #62]	@ 0x3e
 8001f94:	e780      	b.n	8001e98 <HAL_I2C_Init+0x8>
 8001f96:	68a0      	ldr	r0, [r4, #8]
 8001f98:	b950      	cbnz	r0, 8001fb0 <HAL_I2C_Init+0x120>
 8001f9a:	eb05 0545 	add.w	r5, r5, r5, lsl #1
 8001f9e:	fbb3 f3f5 	udiv	r3, r3, r5
 8001fa2:	3301      	adds	r3, #1
 8001fa4:	f3c3 030b 	ubfx	r3, r3, #0, #12
 8001fa8:	b17b      	cbz	r3, 8001fca <HAL_I2C_Init+0x13a>
 8001faa:	f443 4300 	orr.w	r3, r3, #32768	@ 0x8000
 8001fae:	e7c9      	b.n	8001f44 <HAL_I2C_Init+0xb4>
 8001fb0:	2019      	movs	r0, #25
 8001fb2:	4368      	muls	r0, r5
 8001fb4:	fbb3 f3f0 	udiv	r3, r3, r0
 8001fb8:	3301      	adds	r3, #1
 8001fba:	f3c3 030b 	ubfx	r3, r3, #0, #12
 8001fbe:	b123      	cbz	r3, 8001fca <HAL_I2C_Init+0x13a>
 8001fc0:	f443 4340 	orr.w	r3, r3, #49152	@ 0xc000
 8001fc4:	e7be      	b.n	8001f44 <HAL_I2C_Init+0xb4>
 8001fc6:	2304      	movs	r3, #4
 8001fc8:	e7bc      	b.n	8001f44 <HAL_I2C_Init+0xb4>
 8001fca:	2301      	movs	r3, #1
 8001fcc:	e7ba      	b.n	8001f44 <HAL_I2C_Init+0xb4>
 8001fce:	bf00      	nop
 8001fd0:	000186a0 	.word	0x000186a0
 8001fd4:	001e847f 	.word	0x001e847f
 8001fd8:	003d08ff 	.word	0x003d08ff
 8001fdc:	000f4240 	.word	0x000f4240

08001fe0 <HAL_RCC_ClockConfig>:
 8001fe0:	e92d 41f0 	stmdb	sp!, {r4, r5, r6, r7, r8, lr}
 8001fe4:	460d      	mov	r5, r1
 8001fe6:	4604      	mov	r4, r0
 8001fe8:	b910      	cbnz	r0, 8001ff0 <HAL_RCC_ClockConfig+0x10>
 8001fea:	2001      	movs	r0, #1
 8001fec:	e8bd 81f0 	ldmia.w	sp!, {r4, r5, r6, r7, r8, pc}
 8001ff0:	4b43      	ldr	r3, [pc, #268]	@ (8002100 <HAL_RCC_ClockConfig+0x120>)
 8001ff2:	681a      	ldr	r2, [r3, #0]
 8001ff4:	f002 020f 	and.w	r2, r2, #15
 8001ff8:	428a      	cmp	r2, r1
 8001ffa:	d328      	bcc.n	800204e <HAL_RCC_ClockConfig+0x6e>
 8001ffc:	6821      	ldr	r1, [r4, #0]
 8001ffe:	078f      	lsls	r7, r1, #30
 8002000:	d42d      	bmi.n	800205e <HAL_RCC_ClockConfig+0x7e>
 8002002:	07c8      	lsls	r0, r1, #31
 8002004:	d440      	bmi.n	8002088 <HAL_RCC_ClockConfig+0xa8>
 8002006:	4b3e      	ldr	r3, [pc, #248]	@ (8002100 <HAL_RCC_ClockConfig+0x120>)
 8002008:	681a      	ldr	r2, [r3, #0]
 800200a:	f002 020f 	and.w	r2, r2, #15
 800200e:	42aa      	cmp	r2, r5
 8002010:	d865      	bhi.n	80020de <HAL_RCC_ClockConfig+0xfe>
 8002012:	6822      	ldr	r2, [r4, #0]
 8002014:	0751      	lsls	r1, r2, #29
 8002016:	d46b      	bmi.n	80020f0 <HAL_RCC_ClockConfig+0x110>
 8002018:	0713      	lsls	r3, r2, #28
 800201a:	d507      	bpl.n	800202c <HAL_RCC_ClockConfig+0x4c>
 800201c:	4a39      	ldr	r2, [pc, #228]	@ (8002104 <HAL_RCC_ClockConfig+0x124>)
 800201e:	6921      	ldr	r1, [r4, #16]
 8002020:	6893      	ldr	r3, [r2, #8]
 8002022:	f423 4360 	bic.w	r3, r3, #57344	@ 0xe000
 8002026:	ea43 03c1 	orr.w	r3, r3, r1, lsl #3
 800202a:	6093      	str	r3, [r2, #8]
 800202c:	f000 f892 	bl	8002154 <HAL_RCC_GetSysClockFreq>
 8002030:	4b34      	ldr	r3, [pc, #208]	@ (8002104 <HAL_RCC_ClockConfig+0x124>)
 8002032:	4a35      	ldr	r2, [pc, #212]	@ (8002108 <HAL_RCC_ClockConfig+0x128>)
 8002034:	689b      	ldr	r3, [r3, #8]
 8002036:	f3c3 1303 	ubfx	r3, r3, #4, #4
 800203a:	5cd3      	ldrb	r3, [r2, r3]
 800203c:	40d8      	lsrs	r0, r3
 800203e:	4b33      	ldr	r3, [pc, #204]	@ (800210c <HAL_RCC_ClockConfig+0x12c>)
 8002040:	6018      	str	r0, [r3, #0]
 8002042:	4b33      	ldr	r3, [pc, #204]	@ (8002110 <HAL_RCC_ClockConfig+0x130>)
 8002044:	6818      	ldr	r0, [r3, #0]
 8002046:	f7ff fd31 	bl	8001aac <HAL_InitTick>
 800204a:	2000      	movs	r0, #0
 800204c:	e7ce      	b.n	8001fec <HAL_RCC_ClockConfig+0xc>
 800204e:	b2ca      	uxtb	r2, r1
 8002050:	701a      	strb	r2, [r3, #0]
 8002052:	681b      	ldr	r3, [r3, #0]
 8002054:	f003 030f 	and.w	r3, r3, #15
 8002058:	428b      	cmp	r3, r1
 800205a:	d1c6      	bne.n	8001fea <HAL_RCC_ClockConfig+0xa>
 800205c:	e7ce      	b.n	8001ffc <HAL_RCC_ClockConfig+0x1c>
 800205e:	4b29      	ldr	r3, [pc, #164]	@ (8002104 <HAL_RCC_ClockConfig+0x124>)
 8002060:	f011 0f04 	tst.w	r1, #4
 8002064:	bf1e      	ittt	ne
 8002066:	689a      	ldrne	r2, [r3, #8]
 8002068:	f442 52e0 	orrne.w	r2, r2, #7168	@ 0x1c00
 800206c:	609a      	strne	r2, [r3, #8]
 800206e:	070e      	lsls	r6, r1, #28
 8002070:	bf42      	ittt	mi
 8002072:	689a      	ldrmi	r2, [r3, #8]
 8002074:	f442 4260 	orrmi.w	r2, r2, #57344	@ 0xe000
 8002078:	609a      	strmi	r2, [r3, #8]
 800207a:	689a      	ldr	r2, [r3, #8]
 800207c:	68a0      	ldr	r0, [r4, #8]
 800207e:	f022 02f0 	bic.w	r2, r2, #240	@ 0xf0
 8002082:	4302      	orrs	r2, r0
 8002084:	609a      	str	r2, [r3, #8]
 8002086:	e7bc      	b.n	8002002 <HAL_RCC_ClockConfig+0x22>
 8002088:	6862      	ldr	r2, [r4, #4]
 800208a:	4b1e      	ldr	r3, [pc, #120]	@ (8002104 <HAL_RCC_ClockConfig+0x124>)
 800208c:	2a01      	cmp	r2, #1
 800208e:	d11c      	bne.n	80020ca <HAL_RCC_ClockConfig+0xea>
 8002090:	681b      	ldr	r3, [r3, #0]
 8002092:	f413 3f00 	tst.w	r3, #131072	@ 0x20000
 8002096:	d0a8      	beq.n	8001fea <HAL_RCC_ClockConfig+0xa>
 8002098:	4e1a      	ldr	r6, [pc, #104]	@ (8002104 <HAL_RCC_ClockConfig+0x124>)
 800209a:	68b3      	ldr	r3, [r6, #8]
 800209c:	f023 0303 	bic.w	r3, r3, #3
 80020a0:	4313      	orrs	r3, r2
 80020a2:	60b3      	str	r3, [r6, #8]
 80020a4:	f7ff fd4c 	bl	8001b40 <HAL_GetTick>
 80020a8:	f241 3888 	movw	r8, #5000	@ 0x1388
 80020ac:	4607      	mov	r7, r0
 80020ae:	68b3      	ldr	r3, [r6, #8]
 80020b0:	6862      	ldr	r2, [r4, #4]
 80020b2:	f003 030c 	and.w	r3, r3, #12
 80020b6:	ebb3 0f82 	cmp.w	r3, r2, lsl #2
 80020ba:	d0a4      	beq.n	8002006 <HAL_RCC_ClockConfig+0x26>
 80020bc:	f7ff fd40 	bl	8001b40 <HAL_GetTick>
 80020c0:	1bc0      	subs	r0, r0, r7
 80020c2:	4540      	cmp	r0, r8
 80020c4:	d9f3      	bls.n	80020ae <HAL_RCC_ClockConfig+0xce>
 80020c6:	2003      	movs	r0, #3
 80020c8:	e790      	b.n	8001fec <HAL_RCC_ClockConfig+0xc>
 80020ca:	1e91      	subs	r1, r2, #2
 80020cc:	2901      	cmp	r1, #1
 80020ce:	681b      	ldr	r3, [r3, #0]
 80020d0:	d802      	bhi.n	80020d8 <HAL_RCC_ClockConfig+0xf8>
 80020d2:	f013 7f00 	tst.w	r3, #33554432	@ 0x2000000
 80020d6:	e7de      	b.n	8002096 <HAL_RCC_ClockConfig+0xb6>
 80020d8:	f013 0f02 	tst.w	r3, #2
 80020dc:	e7db      	b.n	8002096 <HAL_RCC_ClockConfig+0xb6>
 80020de:	b2ea      	uxtb	r2, r5
 80020e0:	701a      	strb	r2, [r3, #0]
 80020e2:	681b      	ldr	r3, [r3, #0]
 80020e4:	f003 030f 	and.w	r3, r3, #15
 80020e8:	42ab      	cmp	r3, r5
 80020ea:	f47f af7e 	bne.w	8001fea <HAL_RCC_ClockConfig+0xa>
 80020ee:	e790      	b.n	8002012 <HAL_RCC_ClockConfig+0x32>
 80020f0:	4904      	ldr	r1, [pc, #16]	@ (8002104 <HAL_RCC_ClockConfig+0x124>)
 80020f2:	68e0      	ldr	r0, [r4, #12]
 80020f4:	688b      	ldr	r3, [r1, #8]
 80020f6:	f423 53e0 	bic.w	r3, r3, #7168	@ 0x1c00
 80020fa:	4303      	orrs	r3, r0
 80020fc:	608b      	str	r3, [r1, #8]
 80020fe:	e78b      	b.n	8002018 <HAL_RCC_ClockConfig+0x38>
 8002100:	40023c00 	.word	0x40023c00
 8002104:	40023800 	.word	0x40023800
 8002108:	08006eeb 	.word	0x08006eeb
 800210c:	20000028 	.word	0x20000028
 8002110:	20000030 	.word	0x20000030

08002114 <HAL_RCC_GetPCLK1Freq>:
 8002114:	4b04      	ldr	r3, [pc, #16]	@ (8002128 <HAL_RCC_GetPCLK1Freq+0x14>)
 8002116:	4a05      	ldr	r2, [pc, #20]	@ (800212c <HAL_RCC_GetPCLK1Freq+0x18>)
 8002118:	689b      	ldr	r3, [r3, #8]
 800211a:	f3c3 2382 	ubfx	r3, r3, #10, #3
 800211e:	5cd3      	ldrb	r3, [r2, r3]
 8002120:	4a03      	ldr	r2, [pc, #12]	@ (8002130 <HAL_RCC_GetPCLK1Freq+0x1c>)
 8002122:	6810      	ldr	r0, [r2, #0]
 8002124:	40d8      	lsrs	r0, r3
 8002126:	4770      	bx	lr
 8002128:	40023800 	.word	0x40023800
 800212c:	08006ee3 	.word	0x08006ee3
 8002130:	20000028 	.word	0x20000028

08002134 <HAL_RCC_GetPCLK2Freq>:
 8002134:	4b04      	ldr	r3, [pc, #16]	@ (8002148 <HAL_RCC_GetPCLK2Freq+0x14>)
 8002136:	4a05      	ldr	r2, [pc, #20]	@ (800214c <HAL_RCC_GetPCLK2Freq+0x18>)
 8002138:	689b      	ldr	r3, [r3, #8]
 800213a:	f3c3 3342 	ubfx	r3, r3, #13, #3
 800213e:	5cd3      	ldrb	r3, [r2, r3]
 8002140:	4a03      	ldr	r2, [pc, #12]	@ (8002150 <HAL_RCC_GetPCLK2Freq+0x1c>)
 8002142:	6810      	ldr	r0, [r2, #0]
 8002144:	40d8      	lsrs	r0, r3
 8002146:	4770      	bx	lr
 8002148:	40023800 	.word	0x40023800
 800214c:	08006ee3 	.word	0x08006ee3
 8002150:	20000028 	.word	0x20000028

08002154 <HAL_RCC_GetSysClockFreq>:
 8002154:	4920      	ldr	r1, [pc, #128]	@ (80021d8 <HAL_RCC_GetSysClockFreq+0x84>)
 8002156:	b508      	push	{r3, lr}
 8002158:	688b      	ldr	r3, [r1, #8]
 800215a:	f003 030c 	and.w	r3, r3, #12
 800215e:	2b08      	cmp	r3, #8
 8002160:	d007      	beq.n	8002172 <HAL_RCC_GetSysClockFreq+0x1e>
 8002162:	2b0c      	cmp	r3, #12
 8002164:	d020      	beq.n	80021a8 <HAL_RCC_GetSysClockFreq+0x54>
 8002166:	481d      	ldr	r0, [pc, #116]	@ (80021dc <HAL_RCC_GetSysClockFreq+0x88>)
 8002168:	4a1d      	ldr	r2, [pc, #116]	@ (80021e0 <HAL_RCC_GetSysClockFreq+0x8c>)
 800216a:	2b04      	cmp	r3, #4
 800216c:	bf18      	it	ne
 800216e:	4610      	movne	r0, r2
 8002170:	bd08      	pop	{r3, pc}
 8002172:	684a      	ldr	r2, [r1, #4]
 8002174:	684b      	ldr	r3, [r1, #4]
 8002176:	6849      	ldr	r1, [r1, #4]
 8002178:	f413 0380 	ands.w	r3, r3, #4194304	@ 0x400000
 800217c:	bf14      	ite	ne
 800217e:	4817      	ldrne	r0, [pc, #92]	@ (80021dc <HAL_RCC_GetSysClockFreq+0x88>)
 8002180:	4817      	ldreq	r0, [pc, #92]	@ (80021e0 <HAL_RCC_GetSysClockFreq+0x8c>)
 8002182:	f3c1 1188 	ubfx	r1, r1, #6, #9
 8002186:	bf18      	it	ne
 8002188:	2300      	movne	r3, #0
 800218a:	f002 023f 	and.w	r2, r2, #63	@ 0x3f
 800218e:	fba1 0100 	umull	r0, r1, r1, r0
 8002192:	f7fe fd39 	bl	8000c08 <__aeabi_uldivmod>
 8002196:	4b10      	ldr	r3, [pc, #64]	@ (80021d8 <HAL_RCC_GetSysClockFreq+0x84>)
 8002198:	685b      	ldr	r3, [r3, #4]
 800219a:	f3c3 4301 	ubfx	r3, r3, #16, #2
 800219e:	3301      	adds	r3, #1
 80021a0:	005b      	lsls	r3, r3, #1
 80021a2:	fbb0 f0f3 	udiv	r0, r0, r3
 80021a6:	e7e3      	b.n	8002170 <HAL_RCC_GetSysClockFreq+0x1c>
 80021a8:	684a      	ldr	r2, [r1, #4]
 80021aa:	684b      	ldr	r3, [r1, #4]
 80021ac:	6849      	ldr	r1, [r1, #4]
 80021ae:	f413 0380 	ands.w	r3, r3, #4194304	@ 0x400000
 80021b2:	bf14      	ite	ne
 80021b4:	4809      	ldrne	r0, [pc, #36]	@ (80021dc <HAL_RCC_GetSysClockFreq+0x88>)
 80021b6:	480a      	ldreq	r0, [pc, #40]	@ (80021e0 <HAL_RCC_GetSysClockFreq+0x8c>)
 80021b8:	f3c1 1188 	ubfx	r1, r1, #6, #9
 80021bc:	bf18      	it	ne
 80021be:	2300      	movne	r3, #0
 80021c0:	f002 023f 	and.w	r2, r2, #63	@ 0x3f
 80021c4:	fba1 0100 	umull	r0, r1, r1, r0
 80021c8:	f7fe fd1e 	bl	8000c08 <__aeabi_uldivmod>
 80021cc:	4b02      	ldr	r3, [pc, #8]	@ (80021d8 <HAL_RCC_GetSysClockFreq+0x84>)
 80021ce:	685b      	ldr	r3, [r3, #4]
 80021d0:	f3c3 7302 	ubfx	r3, r3, #28, #3
 80021d4:	e7e5      	b.n	80021a2 <HAL_RCC_GetSysClockFreq+0x4e>
 80021d6:	bf00      	nop
 80021d8:	40023800 	.word	0x40023800
 80021dc:	017d7840 	.word	0x017d7840
 80021e0:	00f42400 	.word	0x00f42400

080021e4 <HAL_RCC_OscConfig>:
 80021e4:	e92d 41f3 	stmdb	sp!, {r0, r1, r4, r5, r6, r7, r8, lr}
 80021e8:	4604      	mov	r4, r0
 80021ea:	2800      	cmp	r0, #0
 80021ec:	d031      	beq.n	8002252 <HAL_RCC_OscConfig+0x6e>
 80021ee:	6803      	ldr	r3, [r0, #0]
 80021f0:	07df      	lsls	r7, r3, #31
 80021f2:	d410      	bmi.n	8002216 <HAL_RCC_OscConfig+0x32>
 80021f4:	6823      	ldr	r3, [r4, #0]
 80021f6:	079e      	lsls	r6, r3, #30
 80021f8:	d467      	bmi.n	80022ca <HAL_RCC_OscConfig+0xe6>
 80021fa:	6823      	ldr	r3, [r4, #0]
 80021fc:	0719      	lsls	r1, r3, #28
 80021fe:	f100 80b2 	bmi.w	8002366 <HAL_RCC_OscConfig+0x182>
 8002202:	6823      	ldr	r3, [r4, #0]
 8002204:	075a      	lsls	r2, r3, #29
 8002206:	f100 80d2 	bmi.w	80023ae <HAL_RCC_OscConfig+0x1ca>
 800220a:	69a3      	ldr	r3, [r4, #24]
 800220c:	2b00      	cmp	r3, #0
 800220e:	f040 8139 	bne.w	8002484 <HAL_RCC_OscConfig+0x2a0>
 8002212:	2000      	movs	r0, #0
 8002214:	e034      	b.n	8002280 <HAL_RCC_OscConfig+0x9c>
 8002216:	4b98      	ldr	r3, [pc, #608]	@ (8002478 <HAL_RCC_OscConfig+0x294>)
 8002218:	689a      	ldr	r2, [r3, #8]
 800221a:	f002 020c 	and.w	r2, r2, #12
 800221e:	2a04      	cmp	r2, #4
 8002220:	d010      	beq.n	8002244 <HAL_RCC_OscConfig+0x60>
 8002222:	689a      	ldr	r2, [r3, #8]
 8002224:	f002 020c 	and.w	r2, r2, #12
 8002228:	2a08      	cmp	r2, #8
 800222a:	d102      	bne.n	8002232 <HAL_RCC_OscConfig+0x4e>
 800222c:	685b      	ldr	r3, [r3, #4]
 800222e:	025d      	lsls	r5, r3, #9
 8002230:	d408      	bmi.n	8002244 <HAL_RCC_OscConfig+0x60>
 8002232:	4b91      	ldr	r3, [pc, #580]	@ (8002478 <HAL_RCC_OscConfig+0x294>)
 8002234:	689a      	ldr	r2, [r3, #8]
 8002236:	f002 020c 	and.w	r2, r2, #12
 800223a:	2a0c      	cmp	r2, #12
 800223c:	d10b      	bne.n	8002256 <HAL_RCC_OscConfig+0x72>
 800223e:	685a      	ldr	r2, [r3, #4]
 8002240:	0251      	lsls	r1, r2, #9
 8002242:	d508      	bpl.n	8002256 <HAL_RCC_OscConfig+0x72>
 8002244:	4b8c      	ldr	r3, [pc, #560]	@ (8002478 <HAL_RCC_OscConfig+0x294>)
 8002246:	681b      	ldr	r3, [r3, #0]
 8002248:	039a      	lsls	r2, r3, #14
 800224a:	d5d3      	bpl.n	80021f4 <HAL_RCC_OscConfig+0x10>
 800224c:	6863      	ldr	r3, [r4, #4]
 800224e:	2b00      	cmp	r3, #0
 8002250:	d1d0      	bne.n	80021f4 <HAL_RCC_OscConfig+0x10>
 8002252:	2001      	movs	r0, #1
 8002254:	e014      	b.n	8002280 <HAL_RCC_OscConfig+0x9c>
 8002256:	6862      	ldr	r2, [r4, #4]
 8002258:	f5b2 3f80 	cmp.w	r2, #65536	@ 0x10000
 800225c:	d113      	bne.n	8002286 <HAL_RCC_OscConfig+0xa2>
 800225e:	681a      	ldr	r2, [r3, #0]
 8002260:	f442 3280 	orr.w	r2, r2, #65536	@ 0x10000
 8002264:	601a      	str	r2, [r3, #0]
 8002266:	f7ff fc6b 	bl	8001b40 <HAL_GetTick>
 800226a:	4e83      	ldr	r6, [pc, #524]	@ (8002478 <HAL_RCC_OscConfig+0x294>)
 800226c:	4605      	mov	r5, r0
 800226e:	6833      	ldr	r3, [r6, #0]
 8002270:	039b      	lsls	r3, r3, #14
 8002272:	d4bf      	bmi.n	80021f4 <HAL_RCC_OscConfig+0x10>
 8002274:	f7ff fc64 	bl	8001b40 <HAL_GetTick>
 8002278:	1b40      	subs	r0, r0, r5
 800227a:	2864      	cmp	r0, #100	@ 0x64
 800227c:	d9f7      	bls.n	800226e <HAL_RCC_OscConfig+0x8a>
 800227e:	2003      	movs	r0, #3
 8002280:	b002      	add	sp, #8
 8002282:	e8bd 81f0 	ldmia.w	sp!, {r4, r5, r6, r7, r8, pc}
 8002286:	4d7c      	ldr	r5, [pc, #496]	@ (8002478 <HAL_RCC_OscConfig+0x294>)
 8002288:	f5b2 2fa0 	cmp.w	r2, #327680	@ 0x50000
 800228c:	682b      	ldr	r3, [r5, #0]
 800228e:	d107      	bne.n	80022a0 <HAL_RCC_OscConfig+0xbc>
 8002290:	f443 2380 	orr.w	r3, r3, #262144	@ 0x40000
 8002294:	602b      	str	r3, [r5, #0]
 8002296:	682b      	ldr	r3, [r5, #0]
 8002298:	f443 3380 	orr.w	r3, r3, #65536	@ 0x10000
 800229c:	602b      	str	r3, [r5, #0]
 800229e:	e7e2      	b.n	8002266 <HAL_RCC_OscConfig+0x82>
 80022a0:	f423 3380 	bic.w	r3, r3, #65536	@ 0x10000
 80022a4:	602b      	str	r3, [r5, #0]
 80022a6:	682b      	ldr	r3, [r5, #0]
 80022a8:	f423 2380 	bic.w	r3, r3, #262144	@ 0x40000
 80022ac:	602b      	str	r3, [r5, #0]
 80022ae:	2a00      	cmp	r2, #0
 80022b0:	d1d9      	bne.n	8002266 <HAL_RCC_OscConfig+0x82>
 80022b2:	f7ff fc45 	bl	8001b40 <HAL_GetTick>
 80022b6:	4606      	mov	r6, r0
 80022b8:	682b      	ldr	r3, [r5, #0]
 80022ba:	039f      	lsls	r7, r3, #14
 80022bc:	d59a      	bpl.n	80021f4 <HAL_RCC_OscConfig+0x10>
 80022be:	f7ff fc3f 	bl	8001b40 <HAL_GetTick>
 80022c2:	1b80      	subs	r0, r0, r6
 80022c4:	2864      	cmp	r0, #100	@ 0x64
 80022c6:	d9f7      	bls.n	80022b8 <HAL_RCC_OscConfig+0xd4>
 80022c8:	e7d9      	b.n	800227e <HAL_RCC_OscConfig+0x9a>
 80022ca:	4b6b      	ldr	r3, [pc, #428]	@ (8002478 <HAL_RCC_OscConfig+0x294>)
 80022cc:	689a      	ldr	r2, [r3, #8]
 80022ce:	f012 0f0c 	tst.w	r2, #12
 80022d2:	d010      	beq.n	80022f6 <HAL_RCC_OscConfig+0x112>
 80022d4:	689a      	ldr	r2, [r3, #8]
 80022d6:	f002 020c 	and.w	r2, r2, #12
 80022da:	2a08      	cmp	r2, #8
 80022dc:	d102      	bne.n	80022e4 <HAL_RCC_OscConfig+0x100>
 80022de:	685b      	ldr	r3, [r3, #4]
 80022e0:	025e      	lsls	r6, r3, #9
 80022e2:	d508      	bpl.n	80022f6 <HAL_RCC_OscConfig+0x112>
 80022e4:	4a64      	ldr	r2, [pc, #400]	@ (8002478 <HAL_RCC_OscConfig+0x294>)
 80022e6:	6893      	ldr	r3, [r2, #8]
 80022e8:	f003 030c 	and.w	r3, r3, #12
 80022ec:	2b0c      	cmp	r3, #12
 80022ee:	d111      	bne.n	8002314 <HAL_RCC_OscConfig+0x130>
 80022f0:	6853      	ldr	r3, [r2, #4]
 80022f2:	025d      	lsls	r5, r3, #9
 80022f4:	d40e      	bmi.n	8002314 <HAL_RCC_OscConfig+0x130>
 80022f6:	4a60      	ldr	r2, [pc, #384]	@ (8002478 <HAL_RCC_OscConfig+0x294>)
 80022f8:	6813      	ldr	r3, [r2, #0]
 80022fa:	0799      	lsls	r1, r3, #30
 80022fc:	d502      	bpl.n	8002304 <HAL_RCC_OscConfig+0x120>
 80022fe:	68e3      	ldr	r3, [r4, #12]
 8002300:	2b01      	cmp	r3, #1
 8002302:	d1a6      	bne.n	8002252 <HAL_RCC_OscConfig+0x6e>
 8002304:	6813      	ldr	r3, [r2, #0]
 8002306:	6921      	ldr	r1, [r4, #16]
 8002308:	f023 03f8 	bic.w	r3, r3, #248	@ 0xf8
 800230c:	ea43 03c1 	orr.w	r3, r3, r1, lsl #3
 8002310:	6013      	str	r3, [r2, #0]
 8002312:	e772      	b.n	80021fa <HAL_RCC_OscConfig+0x16>
 8002314:	68e2      	ldr	r2, [r4, #12]
 8002316:	4b59      	ldr	r3, [pc, #356]	@ (800247c <HAL_RCC_OscConfig+0x298>)
 8002318:	b1b2      	cbz	r2, 8002348 <HAL_RCC_OscConfig+0x164>
 800231a:	2201      	movs	r2, #1
 800231c:	601a      	str	r2, [r3, #0]
 800231e:	f7ff fc0f 	bl	8001b40 <HAL_GetTick>
 8002322:	4d55      	ldr	r5, [pc, #340]	@ (8002478 <HAL_RCC_OscConfig+0x294>)
 8002324:	4606      	mov	r6, r0
 8002326:	682b      	ldr	r3, [r5, #0]
 8002328:	079b      	lsls	r3, r3, #30
 800232a:	d507      	bpl.n	800233c <HAL_RCC_OscConfig+0x158>
 800232c:	682b      	ldr	r3, [r5, #0]
 800232e:	6922      	ldr	r2, [r4, #16]
 8002330:	f023 03f8 	bic.w	r3, r3, #248	@ 0xf8
 8002334:	ea43 03c2 	orr.w	r3, r3, r2, lsl #3
 8002338:	602b      	str	r3, [r5, #0]
 800233a:	e75e      	b.n	80021fa <HAL_RCC_OscConfig+0x16>
 800233c:	f7ff fc00 	bl	8001b40 <HAL_GetTick>
 8002340:	1b80      	subs	r0, r0, r6
 8002342:	2802      	cmp	r0, #2
 8002344:	d9ef      	bls.n	8002326 <HAL_RCC_OscConfig+0x142>
 8002346:	e79a      	b.n	800227e <HAL_RCC_OscConfig+0x9a>
 8002348:	601a      	str	r2, [r3, #0]
 800234a:	f7ff fbf9 	bl	8001b40 <HAL_GetTick>
 800234e:	4e4a      	ldr	r6, [pc, #296]	@ (8002478 <HAL_RCC_OscConfig+0x294>)
 8002350:	4605      	mov	r5, r0
 8002352:	6833      	ldr	r3, [r6, #0]
 8002354:	079f      	lsls	r7, r3, #30
 8002356:	f57f af50 	bpl.w	80021fa <HAL_RCC_OscConfig+0x16>
 800235a:	f7ff fbf1 	bl	8001b40 <HAL_GetTick>
 800235e:	1b40      	subs	r0, r0, r5
 8002360:	2802      	cmp	r0, #2
 8002362:	d9f6      	bls.n	8002352 <HAL_RCC_OscConfig+0x16e>
 8002364:	e78b      	b.n	800227e <HAL_RCC_OscConfig+0x9a>
 8002366:	6962      	ldr	r2, [r4, #20]
 8002368:	4b44      	ldr	r3, [pc, #272]	@ (800247c <HAL_RCC_OscConfig+0x298>)
 800236a:	b182      	cbz	r2, 800238e <HAL_RCC_OscConfig+0x1aa>
 800236c:	2201      	movs	r2, #1
 800236e:	f8c3 2e80 	str.w	r2, [r3, #3712]	@ 0xe80
 8002372:	f7ff fbe5 	bl	8001b40 <HAL_GetTick>
 8002376:	4e40      	ldr	r6, [pc, #256]	@ (8002478 <HAL_RCC_OscConfig+0x294>)
 8002378:	4605      	mov	r5, r0
 800237a:	6f73      	ldr	r3, [r6, #116]	@ 0x74
 800237c:	079b      	lsls	r3, r3, #30
 800237e:	f53f af40 	bmi.w	8002202 <HAL_RCC_OscConfig+0x1e>
 8002382:	f7ff fbdd 	bl	8001b40 <HAL_GetTick>
 8002386:	1b40      	subs	r0, r0, r5
 8002388:	2802      	cmp	r0, #2
 800238a:	d9f6      	bls.n	800237a <HAL_RCC_OscConfig+0x196>
 800238c:	e777      	b.n	800227e <HAL_RCC_OscConfig+0x9a>
 800238e:	f8c3 2e80 	str.w	r2, [r3, #3712]	@ 0xe80
 8002392:	f7ff fbd5 	bl	8001b40 <HAL_GetTick>
 8002396:	4e38      	ldr	r6, [pc, #224]	@ (8002478 <HAL_RCC_OscConfig+0x294>)
 8002398:	4605      	mov	r5, r0
 800239a:	6f73      	ldr	r3, [r6, #116]	@ 0x74
 800239c:	079f      	lsls	r7, r3, #30
 800239e:	f57f af30 	bpl.w	8002202 <HAL_RCC_OscConfig+0x1e>
 80023a2:	f7ff fbcd 	bl	8001b40 <HAL_GetTick>
 80023a6:	1b40      	subs	r0, r0, r5
 80023a8:	2802      	cmp	r0, #2
 80023aa:	d9f6      	bls.n	800239a <HAL_RCC_OscConfig+0x1b6>
 80023ac:	e767      	b.n	800227e <HAL_RCC_OscConfig+0x9a>
 80023ae:	4b32      	ldr	r3, [pc, #200]	@ (8002478 <HAL_RCC_OscConfig+0x294>)
 80023b0:	6c1a      	ldr	r2, [r3, #64]	@ 0x40
 80023b2:	f012 5280 	ands.w	r2, r2, #268435456	@ 0x10000000
 80023b6:	d128      	bne.n	800240a <HAL_RCC_OscConfig+0x226>
 80023b8:	9201      	str	r2, [sp, #4]
 80023ba:	6c1a      	ldr	r2, [r3, #64]	@ 0x40
 80023bc:	f042 5280 	orr.w	r2, r2, #268435456	@ 0x10000000
 80023c0:	641a      	str	r2, [r3, #64]	@ 0x40
 80023c2:	6c1b      	ldr	r3, [r3, #64]	@ 0x40
 80023c4:	f003 5380 	and.w	r3, r3, #268435456	@ 0x10000000
 80023c8:	9301      	str	r3, [sp, #4]
 80023ca:	9b01      	ldr	r3, [sp, #4]
 80023cc:	2701      	movs	r7, #1
 80023ce:	4d2c      	ldr	r5, [pc, #176]	@ (8002480 <HAL_RCC_OscConfig+0x29c>)
 80023d0:	682b      	ldr	r3, [r5, #0]
 80023d2:	05d8      	lsls	r0, r3, #23
 80023d4:	d51b      	bpl.n	800240e <HAL_RCC_OscConfig+0x22a>
 80023d6:	68a3      	ldr	r3, [r4, #8]
 80023d8:	4d27      	ldr	r5, [pc, #156]	@ (8002478 <HAL_RCC_OscConfig+0x294>)
 80023da:	2b01      	cmp	r3, #1
 80023dc:	d127      	bne.n	800242e <HAL_RCC_OscConfig+0x24a>
 80023de:	6f2b      	ldr	r3, [r5, #112]	@ 0x70
 80023e0:	f043 0301 	orr.w	r3, r3, #1
 80023e4:	672b      	str	r3, [r5, #112]	@ 0x70
 80023e6:	f7ff fbab 	bl	8001b40 <HAL_GetTick>
 80023ea:	4e23      	ldr	r6, [pc, #140]	@ (8002478 <HAL_RCC_OscConfig+0x294>)
 80023ec:	4605      	mov	r5, r0
 80023ee:	f241 3888 	movw	r8, #5000	@ 0x1388
 80023f2:	6f33      	ldr	r3, [r6, #112]	@ 0x70
 80023f4:	079a      	lsls	r2, r3, #30
 80023f6:	d539      	bpl.n	800246c <HAL_RCC_OscConfig+0x288>
 80023f8:	2f00      	cmp	r7, #0
 80023fa:	f43f af06 	beq.w	800220a <HAL_RCC_OscConfig+0x26>
 80023fe:	4a1e      	ldr	r2, [pc, #120]	@ (8002478 <HAL_RCC_OscConfig+0x294>)
 8002400:	6c13      	ldr	r3, [r2, #64]	@ 0x40
 8002402:	f023 5380 	bic.w	r3, r3, #268435456	@ 0x10000000
 8002406:	6413      	str	r3, [r2, #64]	@ 0x40
 8002408:	e6ff      	b.n	800220a <HAL_RCC_OscConfig+0x26>
 800240a:	2700      	movs	r7, #0
 800240c:	e7df      	b.n	80023ce <HAL_RCC_OscConfig+0x1ea>
 800240e:	682b      	ldr	r3, [r5, #0]
 8002410:	f443 7380 	orr.w	r3, r3, #256	@ 0x100
 8002414:	602b      	str	r3, [r5, #0]
 8002416:	f7ff fb93 	bl	8001b40 <HAL_GetTick>
 800241a:	4606      	mov	r6, r0
 800241c:	682b      	ldr	r3, [r5, #0]
 800241e:	05d9      	lsls	r1, r3, #23
 8002420:	d4d9      	bmi.n	80023d6 <HAL_RCC_OscConfig+0x1f2>
 8002422:	f7ff fb8d 	bl	8001b40 <HAL_GetTick>
 8002426:	1b80      	subs	r0, r0, r6
 8002428:	2802      	cmp	r0, #2
 800242a:	d9f7      	bls.n	800241c <HAL_RCC_OscConfig+0x238>
 800242c:	e727      	b.n	800227e <HAL_RCC_OscConfig+0x9a>
 800242e:	2b05      	cmp	r3, #5
 8002430:	d104      	bne.n	800243c <HAL_RCC_OscConfig+0x258>
 8002432:	6f2b      	ldr	r3, [r5, #112]	@ 0x70
 8002434:	f043 0304 	orr.w	r3, r3, #4
 8002438:	672b      	str	r3, [r5, #112]	@ 0x70
 800243a:	e7d0      	b.n	80023de <HAL_RCC_OscConfig+0x1fa>
 800243c:	6f2a      	ldr	r2, [r5, #112]	@ 0x70
 800243e:	f022 0201 	bic.w	r2, r2, #1
 8002442:	672a      	str	r2, [r5, #112]	@ 0x70
 8002444:	6f2a      	ldr	r2, [r5, #112]	@ 0x70
 8002446:	f022 0204 	bic.w	r2, r2, #4
 800244a:	672a      	str	r2, [r5, #112]	@ 0x70
 800244c:	2b00      	cmp	r3, #0
 800244e:	d1ca      	bne.n	80023e6 <HAL_RCC_OscConfig+0x202>
 8002450:	f7ff fb76 	bl	8001b40 <HAL_GetTick>
 8002454:	f241 3888 	movw	r8, #5000	@ 0x1388
 8002458:	4606      	mov	r6, r0
 800245a:	6f2b      	ldr	r3, [r5, #112]	@ 0x70
 800245c:	079b      	lsls	r3, r3, #30
 800245e:	d5cb      	bpl.n	80023f8 <HAL_RCC_OscConfig+0x214>
 8002460:	f7ff fb6e 	bl	8001b40 <HAL_GetTick>
 8002464:	1b80      	subs	r0, r0, r6
 8002466:	4540      	cmp	r0, r8
 8002468:	d9f7      	bls.n	800245a <HAL_RCC_OscConfig+0x276>
 800246a:	e708      	b.n	800227e <HAL_RCC_OscConfig+0x9a>
 800246c:	f7ff fb68 	bl	8001b40 <HAL_GetTick>
 8002470:	1b40      	subs	r0, r0, r5
 8002472:	4540      	cmp	r0, r8
 8002474:	d9bd      	bls.n	80023f2 <HAL_RCC_OscConfig+0x20e>
 8002476:	e702      	b.n	800227e <HAL_RCC_OscConfig+0x9a>
 8002478:	40023800 	.word	0x40023800
 800247c:	42470000 	.word	0x42470000
 8002480:	40007000 	.word	0x40007000
 8002484:	4d3c      	ldr	r5, [pc, #240]	@ (8002578 <HAL_RCC_OscConfig+0x394>)
 8002486:	68aa      	ldr	r2, [r5, #8]
 8002488:	f002 020c 	and.w	r2, r2, #12
 800248c:	2a08      	cmp	r2, #8
 800248e:	d041      	beq.n	8002514 <HAL_RCC_OscConfig+0x330>
 8002490:	2b02      	cmp	r3, #2
 8002492:	4b3a      	ldr	r3, [pc, #232]	@ (800257c <HAL_RCC_OscConfig+0x398>)
 8002494:	f04f 0200 	mov.w	r2, #0
 8002498:	661a      	str	r2, [r3, #96]	@ 0x60
 800249a:	d12e      	bne.n	80024fa <HAL_RCC_OscConfig+0x316>
 800249c:	f7ff fb50 	bl	8001b40 <HAL_GetTick>
 80024a0:	4606      	mov	r6, r0
 80024a2:	682b      	ldr	r3, [r5, #0]
 80024a4:	0199      	lsls	r1, r3, #6
 80024a6:	d422      	bmi.n	80024ee <HAL_RCC_OscConfig+0x30a>
 80024a8:	e9d4 3207 	ldrd	r3, r2, [r4, #28]
 80024ac:	4313      	orrs	r3, r2
 80024ae:	6a62      	ldr	r2, [r4, #36]	@ 0x24
 80024b0:	ea43 1382 	orr.w	r3, r3, r2, lsl #6
 80024b4:	6ae2      	ldr	r2, [r4, #44]	@ 0x2c
 80024b6:	ea43 6302 	orr.w	r3, r3, r2, lsl #24
 80024ba:	6b22      	ldr	r2, [r4, #48]	@ 0x30
 80024bc:	ea43 7302 	orr.w	r3, r3, r2, lsl #28
 80024c0:	6aa2      	ldr	r2, [r4, #40]	@ 0x28
 80024c2:	0852      	lsrs	r2, r2, #1
 80024c4:	3a01      	subs	r2, #1
 80024c6:	ea43 4302 	orr.w	r3, r3, r2, lsl #16
 80024ca:	606b      	str	r3, [r5, #4]
 80024cc:	4b2b      	ldr	r3, [pc, #172]	@ (800257c <HAL_RCC_OscConfig+0x398>)
 80024ce:	4d2a      	ldr	r5, [pc, #168]	@ (8002578 <HAL_RCC_OscConfig+0x394>)
 80024d0:	2201      	movs	r2, #1
 80024d2:	661a      	str	r2, [r3, #96]	@ 0x60
 80024d4:	f7ff fb34 	bl	8001b40 <HAL_GetTick>
 80024d8:	4604      	mov	r4, r0
 80024da:	682b      	ldr	r3, [r5, #0]
 80024dc:	019a      	lsls	r2, r3, #6
 80024de:	f53f ae98 	bmi.w	8002212 <HAL_RCC_OscConfig+0x2e>
 80024e2:	f7ff fb2d 	bl	8001b40 <HAL_GetTick>
 80024e6:	1b00      	subs	r0, r0, r4
 80024e8:	2802      	cmp	r0, #2
 80024ea:	d9f6      	bls.n	80024da <HAL_RCC_OscConfig+0x2f6>
 80024ec:	e6c7      	b.n	800227e <HAL_RCC_OscConfig+0x9a>
 80024ee:	f7ff fb27 	bl	8001b40 <HAL_GetTick>
 80024f2:	1b80      	subs	r0, r0, r6
 80024f4:	2802      	cmp	r0, #2
 80024f6:	d9d4      	bls.n	80024a2 <HAL_RCC_OscConfig+0x2be>
 80024f8:	e6c1      	b.n	800227e <HAL_RCC_OscConfig+0x9a>
 80024fa:	f7ff fb21 	bl	8001b40 <HAL_GetTick>
 80024fe:	4604      	mov	r4, r0
 8002500:	682b      	ldr	r3, [r5, #0]
 8002502:	019b      	lsls	r3, r3, #6
 8002504:	f57f ae85 	bpl.w	8002212 <HAL_RCC_OscConfig+0x2e>
 8002508:	f7ff fb1a 	bl	8001b40 <HAL_GetTick>
 800250c:	1b00      	subs	r0, r0, r4
 800250e:	2802      	cmp	r0, #2
 8002510:	d9f6      	bls.n	8002500 <HAL_RCC_OscConfig+0x31c>
 8002512:	e6b4      	b.n	800227e <HAL_RCC_OscConfig+0x9a>
 8002514:	2b01      	cmp	r3, #1
 8002516:	f43f ae9c 	beq.w	8002252 <HAL_RCC_OscConfig+0x6e>
 800251a:	686b      	ldr	r3, [r5, #4]
 800251c:	69e2      	ldr	r2, [r4, #28]
 800251e:	f403 0180 	and.w	r1, r3, #4194304	@ 0x400000
 8002522:	4291      	cmp	r1, r2
 8002524:	f47f ae95 	bne.w	8002252 <HAL_RCC_OscConfig+0x6e>
 8002528:	6a21      	ldr	r1, [r4, #32]
 800252a:	f003 023f 	and.w	r2, r3, #63	@ 0x3f
 800252e:	428a      	cmp	r2, r1
 8002530:	f47f ae8f 	bne.w	8002252 <HAL_RCC_OscConfig+0x6e>
 8002534:	6a61      	ldr	r1, [r4, #36]	@ 0x24
 8002536:	f647 72c0 	movw	r2, #32704	@ 0x7fc0
 800253a:	401a      	ands	r2, r3
 800253c:	ebb2 1f81 	cmp.w	r2, r1, lsl #6
 8002540:	f47f ae87 	bne.w	8002252 <HAL_RCC_OscConfig+0x6e>
 8002544:	6aa2      	ldr	r2, [r4, #40]	@ 0x28
 8002546:	0852      	lsrs	r2, r2, #1
 8002548:	f403 3140 	and.w	r1, r3, #196608	@ 0x30000
 800254c:	3a01      	subs	r2, #1
 800254e:	ebb1 4f02 	cmp.w	r1, r2, lsl #16
 8002552:	f47f ae7e 	bne.w	8002252 <HAL_RCC_OscConfig+0x6e>
 8002556:	6ae1      	ldr	r1, [r4, #44]	@ 0x2c
 8002558:	f003 6270 	and.w	r2, r3, #251658240	@ 0xf000000
 800255c:	ebb2 6f01 	cmp.w	r2, r1, lsl #24
 8002560:	f47f ae77 	bne.w	8002252 <HAL_RCC_OscConfig+0x6e>
 8002564:	6b22      	ldr	r2, [r4, #48]	@ 0x30
 8002566:	f003 43e0 	and.w	r3, r3, #1879048192	@ 0x70000000
 800256a:	ebb3 7f02 	cmp.w	r3, r2, lsl #28
 800256e:	bf14      	ite	ne
 8002570:	2001      	movne	r0, #1
 8002572:	2000      	moveq	r0, #0
 8002574:	e684      	b.n	8002280 <HAL_RCC_OscConfig+0x9c>
 8002576:	bf00      	nop
 8002578:	40023800 	.word	0x40023800
 800257c:	42470000 	.word	0x42470000

08002580 <TIM_OC1_SetConfig>:
 8002580:	6a03      	ldr	r3, [r0, #32]
 8002582:	6a02      	ldr	r2, [r0, #32]
 8002584:	f022 0201 	bic.w	r2, r2, #1
 8002588:	6202      	str	r2, [r0, #32]
 800258a:	b570      	push	{r4, r5, r6, lr}
 800258c:	6844      	ldr	r4, [r0, #4]
 800258e:	6982      	ldr	r2, [r0, #24]
 8002590:	680d      	ldr	r5, [r1, #0]
 8002592:	f022 0273 	bic.w	r2, r2, #115	@ 0x73
 8002596:	432a      	orrs	r2, r5
 8002598:	688d      	ldr	r5, [r1, #8]
 800259a:	f023 0302 	bic.w	r3, r3, #2
 800259e:	432b      	orrs	r3, r5
 80025a0:	4d0e      	ldr	r5, [pc, #56]	@ (80025dc <TIM_OC1_SetConfig+0x5c>)
 80025a2:	42a8      	cmp	r0, r5
 80025a4:	d002      	beq.n	80025ac <TIM_OC1_SetConfig+0x2c>
 80025a6:	4e0e      	ldr	r6, [pc, #56]	@ (80025e0 <TIM_OC1_SetConfig+0x60>)
 80025a8:	42b0      	cmp	r0, r6
 80025aa:	d110      	bne.n	80025ce <TIM_OC1_SetConfig+0x4e>
 80025ac:	68ce      	ldr	r6, [r1, #12]
 80025ae:	f023 0308 	bic.w	r3, r3, #8
 80025b2:	4333      	orrs	r3, r6
 80025b4:	42a8      	cmp	r0, r5
 80025b6:	f023 0304 	bic.w	r3, r3, #4
 80025ba:	d002      	beq.n	80025c2 <TIM_OC1_SetConfig+0x42>
 80025bc:	4d08      	ldr	r5, [pc, #32]	@ (80025e0 <TIM_OC1_SetConfig+0x60>)
 80025be:	42a8      	cmp	r0, r5
 80025c0:	d105      	bne.n	80025ce <TIM_OC1_SetConfig+0x4e>
 80025c2:	e9d1 5605 	ldrd	r5, r6, [r1, #20]
 80025c6:	f424 7440 	bic.w	r4, r4, #768	@ 0x300
 80025ca:	4335      	orrs	r5, r6
 80025cc:	432c      	orrs	r4, r5
 80025ce:	6044      	str	r4, [r0, #4]
 80025d0:	6182      	str	r2, [r0, #24]
 80025d2:	684a      	ldr	r2, [r1, #4]
 80025d4:	6342      	str	r2, [r0, #52]	@ 0x34
 80025d6:	6203      	str	r3, [r0, #32]
 80025d8:	bd70      	pop	{r4, r5, r6, pc}
 80025da:	bf00      	nop
 80025dc:	40010000 	.word	0x40010000
 80025e0:	40010400 	.word	0x40010400

080025e4 <TIM_OC3_SetConfig>:
 80025e4:	6a03      	ldr	r3, [r0, #32]
 80025e6:	6a02      	ldr	r2, [r0, #32]
 80025e8:	f422 7280 	bic.w	r2, r2, #256	@ 0x100
 80025ec:	6202      	str	r2, [r0, #32]
 80025ee:	b570      	push	{r4, r5, r6, lr}
 80025f0:	6844      	ldr	r4, [r0, #4]
 80025f2:	69c2      	ldr	r2, [r0, #28]
 80025f4:	680d      	ldr	r5, [r1, #0]
 80025f6:	f022 0273 	bic.w	r2, r2, #115	@ 0x73
 80025fa:	432a      	orrs	r2, r5
 80025fc:	688d      	ldr	r5, [r1, #8]
 80025fe:	f423 7300 	bic.w	r3, r3, #512	@ 0x200
 8002602:	ea43 2305 	orr.w	r3, r3, r5, lsl #8
 8002606:	4d11      	ldr	r5, [pc, #68]	@ (800264c <TIM_OC3_SetConfig+0x68>)
 8002608:	42a8      	cmp	r0, r5
 800260a:	d003      	beq.n	8002614 <TIM_OC3_SetConfig+0x30>
 800260c:	f505 6580 	add.w	r5, r5, #1024	@ 0x400
 8002610:	42a8      	cmp	r0, r5
 8002612:	d114      	bne.n	800263e <TIM_OC3_SetConfig+0x5a>
 8002614:	68cd      	ldr	r5, [r1, #12]
 8002616:	f423 6300 	bic.w	r3, r3, #2048	@ 0x800
 800261a:	ea43 2305 	orr.w	r3, r3, r5, lsl #8
 800261e:	4d0b      	ldr	r5, [pc, #44]	@ (800264c <TIM_OC3_SetConfig+0x68>)
 8002620:	42a8      	cmp	r0, r5
 8002622:	f423 6380 	bic.w	r3, r3, #1024	@ 0x400
 8002626:	d003      	beq.n	8002630 <TIM_OC3_SetConfig+0x4c>
 8002628:	f505 6580 	add.w	r5, r5, #1024	@ 0x400
 800262c:	42a8      	cmp	r0, r5
 800262e:	d106      	bne.n	800263e <TIM_OC3_SetConfig+0x5a>
 8002630:	e9d1 5605 	ldrd	r5, r6, [r1, #20]
 8002634:	f424 5440 	bic.w	r4, r4, #12288	@ 0x3000
 8002638:	4335      	orrs	r5, r6
 800263a:	ea44 1405 	orr.w	r4, r4, r5, lsl #4
 800263e:	6044      	str	r4, [r0, #4]
 8002640:	61c2      	str	r2, [r0, #28]
 8002642:	684a      	ldr	r2, [r1, #4]
 8002644:	63c2      	str	r2, [r0, #60]	@ 0x3c
 8002646:	6203      	str	r3, [r0, #32]
 8002648:	bd70      	pop	{r4, r5, r6, pc}
 800264a:	bf00      	nop
 800264c:	40010000 	.word	0x40010000

08002650 <TIM_OC4_SetConfig>:
 8002650:	6a03      	ldr	r3, [r0, #32]
 8002652:	6a02      	ldr	r2, [r0, #32]
 8002654:	f422 5280 	bic.w	r2, r2, #4096	@ 0x1000
 8002658:	6202      	str	r2, [r0, #32]
 800265a:	b530      	push	{r4, r5, lr}
 800265c:	6844      	ldr	r4, [r0, #4]
 800265e:	69c2      	ldr	r2, [r0, #28]
 8002660:	680d      	ldr	r5, [r1, #0]
 8002662:	f422 42e6 	bic.w	r2, r2, #29440	@ 0x7300
 8002666:	ea42 2205 	orr.w	r2, r2, r5, lsl #8
 800266a:	688d      	ldr	r5, [r1, #8]
 800266c:	f423 5300 	bic.w	r3, r3, #8192	@ 0x2000
 8002670:	ea43 3305 	orr.w	r3, r3, r5, lsl #12
 8002674:	4d08      	ldr	r5, [pc, #32]	@ (8002698 <TIM_OC4_SetConfig+0x48>)
 8002676:	42a8      	cmp	r0, r5
 8002678:	d003      	beq.n	8002682 <TIM_OC4_SetConfig+0x32>
 800267a:	f505 6580 	add.w	r5, r5, #1024	@ 0x400
 800267e:	42a8      	cmp	r0, r5
 8002680:	d104      	bne.n	800268c <TIM_OC4_SetConfig+0x3c>
 8002682:	694d      	ldr	r5, [r1, #20]
 8002684:	f424 4480 	bic.w	r4, r4, #16384	@ 0x4000
 8002688:	ea44 1485 	orr.w	r4, r4, r5, lsl #6
 800268c:	6044      	str	r4, [r0, #4]
 800268e:	61c2      	str	r2, [r0, #28]
 8002690:	684a      	ldr	r2, [r1, #4]
 8002692:	6402      	str	r2, [r0, #64]	@ 0x40
 8002694:	6203      	str	r3, [r0, #32]
 8002696:	bd30      	pop	{r4, r5, pc}
 8002698:	40010000 	.word	0x40010000

0800269c <TIM_Base_SetConfig>:
 800269c:	4a33      	ldr	r2, [pc, #204]	@ (800276c <TIM_Base_SetConfig+0xd0>)
 800269e:	6803      	ldr	r3, [r0, #0]
 80026a0:	4290      	cmp	r0, r2
 80026a2:	d012      	beq.n	80026ca <TIM_Base_SetConfig+0x2e>
 80026a4:	f1b0 4f80 	cmp.w	r0, #1073741824	@ 0x40000000
 80026a8:	d00f      	beq.n	80026ca <TIM_Base_SetConfig+0x2e>
 80026aa:	f5a2 427c 	sub.w	r2, r2, #64512	@ 0xfc00
 80026ae:	4290      	cmp	r0, r2
 80026b0:	d00b      	beq.n	80026ca <TIM_Base_SetConfig+0x2e>
 80026b2:	f502 6280 	add.w	r2, r2, #1024	@ 0x400
 80026b6:	4290      	cmp	r0, r2
 80026b8:	d007      	beq.n	80026ca <TIM_Base_SetConfig+0x2e>
 80026ba:	f502 6280 	add.w	r2, r2, #1024	@ 0x400
 80026be:	4290      	cmp	r0, r2
 80026c0:	d003      	beq.n	80026ca <TIM_Base_SetConfig+0x2e>
 80026c2:	f502 4278 	add.w	r2, r2, #63488	@ 0xf800
 80026c6:	4290      	cmp	r0, r2
 80026c8:	d119      	bne.n	80026fe <TIM_Base_SetConfig+0x62>
 80026ca:	684a      	ldr	r2, [r1, #4]
 80026cc:	f023 0370 	bic.w	r3, r3, #112	@ 0x70
 80026d0:	4313      	orrs	r3, r2
 80026d2:	4a26      	ldr	r2, [pc, #152]	@ (800276c <TIM_Base_SetConfig+0xd0>)
 80026d4:	4290      	cmp	r0, r2
 80026d6:	d029      	beq.n	800272c <TIM_Base_SetConfig+0x90>
 80026d8:	f1b0 4f80 	cmp.w	r0, #1073741824	@ 0x40000000
 80026dc:	d026      	beq.n	800272c <TIM_Base_SetConfig+0x90>
 80026de:	f5a2 427c 	sub.w	r2, r2, #64512	@ 0xfc00
 80026e2:	4290      	cmp	r0, r2
 80026e4:	d022      	beq.n	800272c <TIM_Base_SetConfig+0x90>
 80026e6:	f502 6280 	add.w	r2, r2, #1024	@ 0x400
 80026ea:	4290      	cmp	r0, r2
 80026ec:	d01e      	beq.n	800272c <TIM_Base_SetConfig+0x90>
 80026ee:	f502 6280 	add.w	r2, r2, #1024	@ 0x400
 80026f2:	4290      	cmp	r0, r2
 80026f4:	d01a      	beq.n	800272c <TIM_Base_SetConfig+0x90>
 80026f6:	f502 4278 	add.w	r2, r2, #63488	@ 0xf800
 80026fa:	4290      	cmp	r0, r2
 80026fc:	d016      	beq.n	800272c <TIM_Base_SetConfig+0x90>
 80026fe:	4a1c      	ldr	r2, [pc, #112]	@ (8002770 <TIM_Base_SetConfig+0xd4>)
 8002700:	4290      	cmp	r0, r2
 8002702:	d013      	beq.n	800272c <TIM_Base_SetConfig+0x90>
 8002704:	f502 6280 	add.w	r2, r2, #1024	@ 0x400
 8002708:	4290      	cmp	r0, r2
 800270a:	d00f      	beq.n	800272c <TIM_Base_SetConfig+0x90>
 800270c:	f502 6280 	add.w	r2, r2, #1024	@ 0x400
 8002710:	4290      	cmp	r0, r2
 8002712:	d00b      	beq.n	800272c <TIM_Base_SetConfig+0x90>
 8002714:	f5a2 3298 	sub.w	r2, r2, #77824	@ 0x13000
 8002718:	4290      	cmp	r0, r2
 800271a:	d007      	beq.n	800272c <TIM_Base_SetConfig+0x90>
 800271c:	f502 6280 	add.w	r2, r2, #1024	@ 0x400
 8002720:	4290      	cmp	r0, r2
 8002722:	d003      	beq.n	800272c <TIM_Base_SetConfig+0x90>
 8002724:	f502 6280 	add.w	r2, r2, #1024	@ 0x400
 8002728:	4290      	cmp	r0, r2
 800272a:	d103      	bne.n	8002734 <TIM_Base_SetConfig+0x98>
 800272c:	68ca      	ldr	r2, [r1, #12]
 800272e:	f423 7340 	bic.w	r3, r3, #768	@ 0x300
 8002732:	4313      	orrs	r3, r2
 8002734:	694a      	ldr	r2, [r1, #20]
 8002736:	f023 0380 	bic.w	r3, r3, #128	@ 0x80
 800273a:	4313      	orrs	r3, r2
 800273c:	6003      	str	r3, [r0, #0]
 800273e:	688b      	ldr	r3, [r1, #8]
 8002740:	62c3      	str	r3, [r0, #44]	@ 0x2c
 8002742:	680b      	ldr	r3, [r1, #0]
 8002744:	6283      	str	r3, [r0, #40]	@ 0x28
 8002746:	4b09      	ldr	r3, [pc, #36]	@ (800276c <TIM_Base_SetConfig+0xd0>)
 8002748:	4298      	cmp	r0, r3
 800274a:	d003      	beq.n	8002754 <TIM_Base_SetConfig+0xb8>
 800274c:	f503 6380 	add.w	r3, r3, #1024	@ 0x400
 8002750:	4298      	cmp	r0, r3
 8002752:	d101      	bne.n	8002758 <TIM_Base_SetConfig+0xbc>
 8002754:	690b      	ldr	r3, [r1, #16]
 8002756:	6303      	str	r3, [r0, #48]	@ 0x30
 8002758:	2301      	movs	r3, #1
 800275a:	6143      	str	r3, [r0, #20]
 800275c:	6903      	ldr	r3, [r0, #16]
 800275e:	07db      	lsls	r3, r3, #31
 8002760:	bf42      	ittt	mi
 8002762:	6903      	ldrmi	r3, [r0, #16]
 8002764:	f023 0301 	bicmi.w	r3, r3, #1
 8002768:	6103      	strmi	r3, [r0, #16]
 800276a:	4770      	bx	lr
 800276c:	40010000 	.word	0x40010000
 8002770:	40014000 	.word	0x40014000

08002774 <HAL_TIM_PWM_Init>:
 8002774:	b510      	push	{r4, lr}
 8002776:	4604      	mov	r4, r0
 8002778:	b330      	cbz	r0, 80027c8 <HAL_TIM_PWM_Init+0x54>
 800277a:	f890 303d 	ldrb.w	r3, [r0, #61]	@ 0x3d
 800277e:	f003 02ff 	and.w	r2, r3, #255	@ 0xff
 8002782:	b91b      	cbnz	r3, 800278c <HAL_TIM_PWM_Init+0x18>
 8002784:	f880 203c 	strb.w	r2, [r0, #60]	@ 0x3c
 8002788:	f7ff f806 	bl	8001798 <HAL_TIM_PWM_MspInit>
 800278c:	2302      	movs	r3, #2
 800278e:	6820      	ldr	r0, [r4, #0]
 8002790:	f884 303d 	strb.w	r3, [r4, #61]	@ 0x3d
 8002794:	1d21      	adds	r1, r4, #4
 8002796:	f7ff ff81 	bl	800269c <TIM_Base_SetConfig>
 800279a:	2301      	movs	r3, #1
 800279c:	f884 3046 	strb.w	r3, [r4, #70]	@ 0x46
 80027a0:	2000      	movs	r0, #0
 80027a2:	f884 303e 	strb.w	r3, [r4, #62]	@ 0x3e
 80027a6:	f884 303f 	strb.w	r3, [r4, #63]	@ 0x3f
 80027aa:	f884 3040 	strb.w	r3, [r4, #64]	@ 0x40
 80027ae:	f884 3041 	strb.w	r3, [r4, #65]	@ 0x41
 80027b2:	f884 3042 	strb.w	r3, [r4, #66]	@ 0x42
 80027b6:	f884 3043 	strb.w	r3, [r4, #67]	@ 0x43
 80027ba:	f884 3044 	strb.w	r3, [r4, #68]	@ 0x44
 80027be:	f884 3045 	strb.w	r3, [r4, #69]	@ 0x45
 80027c2:	f884 303d 	strb.w	r3, [r4, #61]	@ 0x3d
 80027c6:	bd10      	pop	{r4, pc}
 80027c8:	2001      	movs	r0, #1
 80027ca:	e7fc      	b.n	80027c6 <HAL_TIM_PWM_Init+0x52>

080027cc <TIM_OC2_SetConfig>:
 80027cc:	6a03      	ldr	r3, [r0, #32]
 80027ce:	6a02      	ldr	r2, [r0, #32]
 80027d0:	f022 0210 	bic.w	r2, r2, #16
 80027d4:	6202      	str	r2, [r0, #32]
 80027d6:	b570      	push	{r4, r5, r6, lr}
 80027d8:	6844      	ldr	r4, [r0, #4]
 80027da:	6982      	ldr	r2, [r0, #24]
 80027dc:	680d      	ldr	r5, [r1, #0]
 80027de:	f422 42e6 	bic.w	r2, r2, #29440	@ 0x7300
 80027e2:	ea42 2205 	orr.w	r2, r2, r5, lsl #8
 80027e6:	688d      	ldr	r5, [r1, #8]
 80027e8:	f023 0320 	bic.w	r3, r3, #32
 80027ec:	ea43 1305 	orr.w	r3, r3, r5, lsl #4
 80027f0:	4d10      	ldr	r5, [pc, #64]	@ (8002834 <TIM_OC2_SetConfig+0x68>)
 80027f2:	42a8      	cmp	r0, r5
 80027f4:	d003      	beq.n	80027fe <TIM_OC2_SetConfig+0x32>
 80027f6:	f505 6580 	add.w	r5, r5, #1024	@ 0x400
 80027fa:	42a8      	cmp	r0, r5
 80027fc:	d114      	bne.n	8002828 <TIM_OC2_SetConfig+0x5c>
 80027fe:	68cd      	ldr	r5, [r1, #12]
 8002800:	f023 0380 	bic.w	r3, r3, #128	@ 0x80
 8002804:	ea43 1305 	orr.w	r3, r3, r5, lsl #4
 8002808:	4d0a      	ldr	r5, [pc, #40]	@ (8002834 <TIM_OC2_SetConfig+0x68>)
 800280a:	42a8      	cmp	r0, r5
 800280c:	f023 0340 	bic.w	r3, r3, #64	@ 0x40
 8002810:	d003      	beq.n	800281a <TIM_OC2_SetConfig+0x4e>
 8002812:	f505 6580 	add.w	r5, r5, #1024	@ 0x400
 8002816:	42a8      	cmp	r0, r5
 8002818:	d106      	bne.n	8002828 <TIM_OC2_SetConfig+0x5c>
 800281a:	e9d1 5605 	ldrd	r5, r6, [r1, #20]
 800281e:	f424 6440 	bic.w	r4, r4, #3072	@ 0xc00
 8002822:	4335      	orrs	r5, r6
 8002824:	ea44 0485 	orr.w	r4, r4, r5, lsl #2
 8002828:	6044      	str	r4, [r0, #4]
 800282a:	6182      	str	r2, [r0, #24]
 800282c:	684a      	ldr	r2, [r1, #4]
 800282e:	6382      	str	r2, [r0, #56]	@ 0x38
 8002830:	6203      	str	r3, [r0, #32]
 8002832:	bd70      	pop	{r4, r5, r6, pc}
 8002834:	40010000 	.word	0x40010000

08002838 <HAL_TIM_PWM_ConfigChannel>:
 8002838:	b538      	push	{r3, r4, r5, lr}
 800283a:	f890 303c 	ldrb.w	r3, [r0, #60]	@ 0x3c
 800283e:	2b01      	cmp	r3, #1
 8002840:	4604      	mov	r4, r0
 8002842:	d04f      	beq.n	80028e4 <HAL_TIM_PWM_ConfigChannel+0xac>
 8002844:	2001      	movs	r0, #1
 8002846:	2a08      	cmp	r2, #8
 8002848:	f884 003c 	strb.w	r0, [r4, #60]	@ 0x3c
 800284c:	d03a      	beq.n	80028c4 <HAL_TIM_PWM_ConfigChannel+0x8c>
 800284e:	d806      	bhi.n	800285e <HAL_TIM_PWM_ConfigChannel+0x26>
 8002850:	b1ba      	cbz	r2, 8002882 <HAL_TIM_PWM_ConfigChannel+0x4a>
 8002852:	2a04      	cmp	r2, #4
 8002854:	d026      	beq.n	80028a4 <HAL_TIM_PWM_ConfigChannel+0x6c>
 8002856:	2300      	movs	r3, #0
 8002858:	f884 303c 	strb.w	r3, [r4, #60]	@ 0x3c
 800285c:	bd38      	pop	{r3, r4, r5, pc}
 800285e:	2a0c      	cmp	r2, #12
 8002860:	d1f9      	bne.n	8002856 <HAL_TIM_PWM_ConfigChannel+0x1e>
 8002862:	6820      	ldr	r0, [r4, #0]
 8002864:	f7ff fef4 	bl	8002650 <TIM_OC4_SetConfig>
 8002868:	69c3      	ldr	r3, [r0, #28]
 800286a:	690a      	ldr	r2, [r1, #16]
 800286c:	f443 6300 	orr.w	r3, r3, #2048	@ 0x800
 8002870:	61c3      	str	r3, [r0, #28]
 8002872:	69c3      	ldr	r3, [r0, #28]
 8002874:	f423 6380 	bic.w	r3, r3, #1024	@ 0x400
 8002878:	61c3      	str	r3, [r0, #28]
 800287a:	69c3      	ldr	r3, [r0, #28]
 800287c:	ea43 2302 	orr.w	r3, r3, r2, lsl #8
 8002880:	e02e      	b.n	80028e0 <HAL_TIM_PWM_ConfigChannel+0xa8>
 8002882:	6820      	ldr	r0, [r4, #0]
 8002884:	f7ff fe7c 	bl	8002580 <TIM_OC1_SetConfig>
 8002888:	6983      	ldr	r3, [r0, #24]
 800288a:	690a      	ldr	r2, [r1, #16]
 800288c:	f043 0308 	orr.w	r3, r3, #8
 8002890:	6183      	str	r3, [r0, #24]
 8002892:	6983      	ldr	r3, [r0, #24]
 8002894:	f023 0304 	bic.w	r3, r3, #4
 8002898:	6183      	str	r3, [r0, #24]
 800289a:	6983      	ldr	r3, [r0, #24]
 800289c:	4313      	orrs	r3, r2
 800289e:	6183      	str	r3, [r0, #24]
 80028a0:	2000      	movs	r0, #0
 80028a2:	e7d8      	b.n	8002856 <HAL_TIM_PWM_ConfigChannel+0x1e>
 80028a4:	6820      	ldr	r0, [r4, #0]
 80028a6:	f7ff ff91 	bl	80027cc <TIM_OC2_SetConfig>
 80028aa:	6983      	ldr	r3, [r0, #24]
 80028ac:	690a      	ldr	r2, [r1, #16]
 80028ae:	f443 6300 	orr.w	r3, r3, #2048	@ 0x800
 80028b2:	6183      	str	r3, [r0, #24]
 80028b4:	6983      	ldr	r3, [r0, #24]
 80028b6:	f423 6380 	bic.w	r3, r3, #1024	@ 0x400
 80028ba:	6183      	str	r3, [r0, #24]
 80028bc:	6983      	ldr	r3, [r0, #24]
 80028be:	ea43 2302 	orr.w	r3, r3, r2, lsl #8
 80028c2:	e7ec      	b.n	800289e <HAL_TIM_PWM_ConfigChannel+0x66>
 80028c4:	6820      	ldr	r0, [r4, #0]
 80028c6:	f7ff fe8d 	bl	80025e4 <TIM_OC3_SetConfig>
 80028ca:	69c3      	ldr	r3, [r0, #28]
 80028cc:	690a      	ldr	r2, [r1, #16]
 80028ce:	f043 0308 	orr.w	r3, r3, #8
 80028d2:	61c3      	str	r3, [r0, #28]
 80028d4:	69c3      	ldr	r3, [r0, #28]
 80028d6:	f023 0304 	bic.w	r3, r3, #4
 80028da:	61c3      	str	r3, [r0, #28]
 80028dc:	69c3      	ldr	r3, [r0, #28]
 80028de:	4313      	orrs	r3, r2
 80028e0:	61c3      	str	r3, [r0, #28]
 80028e2:	e7dd      	b.n	80028a0 <HAL_TIM_PWM_ConfigChannel+0x68>
 80028e4:	2002      	movs	r0, #2
 80028e6:	e7b9      	b.n	800285c <HAL_TIM_PWM_ConfigChannel+0x24>

080028e8 <HAL_TIMEx_MasterConfigSynchronization>:
 80028e8:	b530      	push	{r4, r5, lr}
 80028ea:	f890 303c 	ldrb.w	r3, [r0, #60]	@ 0x3c
 80028ee:	2b01      	cmp	r3, #1
 80028f0:	4602      	mov	r2, r0
 80028f2:	f04f 0002 	mov.w	r0, #2
 80028f6:	d032      	beq.n	800295e <HAL_TIMEx_MasterConfigSynchronization+0x76>
 80028f8:	6813      	ldr	r3, [r2, #0]
 80028fa:	f882 003d 	strb.w	r0, [r2, #61]	@ 0x3d
 80028fe:	685c      	ldr	r4, [r3, #4]
 8002900:	680d      	ldr	r5, [r1, #0]
 8002902:	6898      	ldr	r0, [r3, #8]
 8002904:	f024 0470 	bic.w	r4, r4, #112	@ 0x70
 8002908:	432c      	orrs	r4, r5
 800290a:	605c      	str	r4, [r3, #4]
 800290c:	4c14      	ldr	r4, [pc, #80]	@ (8002960 <HAL_TIMEx_MasterConfigSynchronization+0x78>)
 800290e:	42a3      	cmp	r3, r4
 8002910:	d01a      	beq.n	8002948 <HAL_TIMEx_MasterConfigSynchronization+0x60>
 8002912:	f1b3 4f80 	cmp.w	r3, #1073741824	@ 0x40000000
 8002916:	d017      	beq.n	8002948 <HAL_TIMEx_MasterConfigSynchronization+0x60>
 8002918:	f5a4 447c 	sub.w	r4, r4, #64512	@ 0xfc00
 800291c:	42a3      	cmp	r3, r4
 800291e:	d013      	beq.n	8002948 <HAL_TIMEx_MasterConfigSynchronization+0x60>
 8002920:	f504 6480 	add.w	r4, r4, #1024	@ 0x400
 8002924:	42a3      	cmp	r3, r4
 8002926:	d00f      	beq.n	8002948 <HAL_TIMEx_MasterConfigSynchronization+0x60>
 8002928:	f504 6480 	add.w	r4, r4, #1024	@ 0x400
 800292c:	42a3      	cmp	r3, r4
 800292e:	d00b      	beq.n	8002948 <HAL_TIMEx_MasterConfigSynchronization+0x60>
 8002930:	f504 4478 	add.w	r4, r4, #63488	@ 0xf800
 8002934:	42a3      	cmp	r3, r4
 8002936:	d007      	beq.n	8002948 <HAL_TIMEx_MasterConfigSynchronization+0x60>
 8002938:	f504 5470 	add.w	r4, r4, #15360	@ 0x3c00
 800293c:	42a3      	cmp	r3, r4
 800293e:	d003      	beq.n	8002948 <HAL_TIMEx_MasterConfigSynchronization+0x60>
 8002940:	f5a4 3494 	sub.w	r4, r4, #75776	@ 0x12800
 8002944:	42a3      	cmp	r3, r4
 8002946:	d104      	bne.n	8002952 <HAL_TIMEx_MasterConfigSynchronization+0x6a>
 8002948:	6849      	ldr	r1, [r1, #4]
 800294a:	f020 0080 	bic.w	r0, r0, #128	@ 0x80
 800294e:	4301      	orrs	r1, r0
 8002950:	6099      	str	r1, [r3, #8]
 8002952:	2301      	movs	r3, #1
 8002954:	2000      	movs	r0, #0
 8002956:	f882 303d 	strb.w	r3, [r2, #61]	@ 0x3d
 800295a:	f882 003c 	strb.w	r0, [r2, #60]	@ 0x3c
 800295e:	bd30      	pop	{r4, r5, pc}
 8002960:	40010000 	.word	0x40010000

08002964 <UART_EndRxTransfer>:
 8002964:	6802      	ldr	r2, [r0, #0]
 8002966:	f102 030c 	add.w	r3, r2, #12
 800296a:	e853 3f00 	ldrex	r3, [r3]
 800296e:	f423 7390 	bic.w	r3, r3, #288	@ 0x120
 8002972:	320c      	adds	r2, #12
 8002974:	e842 3100 	strex	r1, r3, [r2]
 8002978:	6802      	ldr	r2, [r0, #0]
 800297a:	2900      	cmp	r1, #0
 800297c:	d1f2      	bne.n	8002964 <UART_EndRxTransfer>
 800297e:	f102 0314 	add.w	r3, r2, #20
 8002982:	e853 3f00 	ldrex	r3, [r3]
 8002986:	f023 0301 	bic.w	r3, r3, #1
 800298a:	f102 0c14 	add.w	ip, r2, #20
 800298e:	e84c 3100 	strex	r1, r3, [ip]
 8002992:	2900      	cmp	r1, #0
 8002994:	d1f3      	bne.n	800297e <UART_EndRxTransfer+0x1a>
 8002996:	6b03      	ldr	r3, [r0, #48]	@ 0x30
 8002998:	2b01      	cmp	r3, #1
 800299a:	d10b      	bne.n	80029b4 <UART_EndRxTransfer+0x50>
 800299c:	f102 030c 	add.w	r3, r2, #12
 80029a0:	e853 3f00 	ldrex	r3, [r3]
 80029a4:	f023 0310 	bic.w	r3, r3, #16
 80029a8:	f102 0c0c 	add.w	ip, r2, #12
 80029ac:	e84c 3100 	strex	r1, r3, [ip]
 80029b0:	2900      	cmp	r1, #0
 80029b2:	d1f3      	bne.n	800299c <UART_EndRxTransfer+0x38>
 80029b4:	2320      	movs	r3, #32
 80029b6:	f880 3042 	strb.w	r3, [r0, #66]	@ 0x42
 80029ba:	2300      	movs	r3, #0
 80029bc:	6303      	str	r3, [r0, #48]	@ 0x30
 80029be:	4770      	bx	lr

080029c0 <UART_SetConfig>:
 80029c0:	6802      	ldr	r2, [r0, #0]
 80029c2:	68c1      	ldr	r1, [r0, #12]
 80029c4:	b538      	push	{r3, r4, r5, lr}
 80029c6:	6913      	ldr	r3, [r2, #16]
 80029c8:	f423 5340 	bic.w	r3, r3, #12288	@ 0x3000
 80029cc:	430b      	orrs	r3, r1
 80029ce:	6113      	str	r3, [r2, #16]
 80029d0:	4605      	mov	r5, r0
 80029d2:	6883      	ldr	r3, [r0, #8]
 80029d4:	6900      	ldr	r0, [r0, #16]
 80029d6:	68d1      	ldr	r1, [r2, #12]
 80029d8:	4303      	orrs	r3, r0
 80029da:	6968      	ldr	r0, [r5, #20]
 80029dc:	4303      	orrs	r3, r0
 80029de:	69e8      	ldr	r0, [r5, #28]
 80029e0:	f421 4116 	bic.w	r1, r1, #38400	@ 0x9600
 80029e4:	f021 010c 	bic.w	r1, r1, #12
 80029e8:	4303      	orrs	r3, r0
 80029ea:	430b      	orrs	r3, r1
 80029ec:	60d3      	str	r3, [r2, #12]
 80029ee:	6953      	ldr	r3, [r2, #20]
 80029f0:	69a9      	ldr	r1, [r5, #24]
 80029f2:	f423 7340 	bic.w	r3, r3, #768	@ 0x300
 80029f6:	430b      	orrs	r3, r1
 80029f8:	6153      	str	r3, [r2, #20]
 80029fa:	4b1f      	ldr	r3, [pc, #124]	@ (8002a78 <UART_SetConfig+0xb8>)
 80029fc:	429a      	cmp	r2, r3
 80029fe:	d003      	beq.n	8002a08 <UART_SetConfig+0x48>
 8002a00:	f503 6380 	add.w	r3, r3, #1024	@ 0x400
 8002a04:	429a      	cmp	r2, r3
 8002a06:	d124      	bne.n	8002a52 <UART_SetConfig+0x92>
 8002a08:	f7ff fb94 	bl	8002134 <HAL_RCC_GetPCLK2Freq>
 8002a0c:	69ea      	ldr	r2, [r5, #28]
 8002a0e:	2119      	movs	r1, #25
 8002a10:	f5b2 4f00 	cmp.w	r2, #32768	@ 0x8000
 8002a14:	e9d5 4300 	ldrd	r4, r3, [r5]
 8002a18:	fba0 0101 	umull	r0, r1, r0, r1
 8002a1c:	d11c      	bne.n	8002a58 <UART_SetConfig+0x98>
 8002a1e:	18da      	adds	r2, r3, r3
 8002a20:	f04f 0500 	mov.w	r5, #0
 8002a24:	eb45 0305 	adc.w	r3, r5, r5
 8002a28:	f7fe f8ee 	bl	8000c08 <__aeabi_uldivmod>
 8002a2c:	2264      	movs	r2, #100	@ 0x64
 8002a2e:	fbb0 f1f2 	udiv	r1, r0, r2
 8002a32:	fb02 0311 	mls	r3, r2, r1, r0
 8002a36:	00db      	lsls	r3, r3, #3
 8002a38:	3332      	adds	r3, #50	@ 0x32
 8002a3a:	fbb3 f3f2 	udiv	r3, r3, r2
 8002a3e:	f003 0207 	and.w	r2, r3, #7
 8002a42:	005b      	lsls	r3, r3, #1
 8002a44:	eb02 1201 	add.w	r2, r2, r1, lsl #4
 8002a48:	f403 73f8 	and.w	r3, r3, #496	@ 0x1f0
 8002a4c:	4413      	add	r3, r2
 8002a4e:	60a3      	str	r3, [r4, #8]
 8002a50:	bd38      	pop	{r3, r4, r5, pc}
 8002a52:	f7ff fb5f 	bl	8002114 <HAL_RCC_GetPCLK1Freq>
 8002a56:	e7d9      	b.n	8002a0c <UART_SetConfig+0x4c>
 8002a58:	009a      	lsls	r2, r3, #2
 8002a5a:	0f9b      	lsrs	r3, r3, #30
 8002a5c:	f7fe f8d4 	bl	8000c08 <__aeabi_uldivmod>
 8002a60:	2264      	movs	r2, #100	@ 0x64
 8002a62:	fbb0 f1f2 	udiv	r1, r0, r2
 8002a66:	fb02 0311 	mls	r3, r2, r1, r0
 8002a6a:	011b      	lsls	r3, r3, #4
 8002a6c:	3332      	adds	r3, #50	@ 0x32
 8002a6e:	fbb3 f3f2 	udiv	r3, r3, r2
 8002a72:	eb03 1301 	add.w	r3, r3, r1, lsl #4
 8002a76:	e7ea      	b.n	8002a4e <UART_SetConfig+0x8e>
 8002a78:	40011000 	.word	0x40011000

08002a7c <UART_WaitOnFlagUntilTimeout.constprop.0>:
 8002a7c:	b5f7      	push	{r0, r1, r2, r4, r5, r6, r7, lr}
 8002a7e:	4605      	mov	r5, r0
 8002a80:	460c      	mov	r4, r1
 8002a82:	4617      	mov	r7, r2
 8002a84:	461e      	mov	r6, r3
 8002a86:	682a      	ldr	r2, [r5, #0]
 8002a88:	6813      	ldr	r3, [r2, #0]
 8002a8a:	ea34 0303 	bics.w	r3, r4, r3
 8002a8e:	d101      	bne.n	8002a94 <UART_WaitOnFlagUntilTimeout.constprop.0+0x18>
 8002a90:	2000      	movs	r0, #0
 8002a92:	e021      	b.n	8002ad8 <UART_WaitOnFlagUntilTimeout.constprop.0+0x5c>
 8002a94:	1c70      	adds	r0, r6, #1
 8002a96:	d0f7      	beq.n	8002a88 <UART_WaitOnFlagUntilTimeout.constprop.0+0xc>
 8002a98:	f7ff f852 	bl	8001b40 <HAL_GetTick>
 8002a9c:	1bc0      	subs	r0, r0, r7
 8002a9e:	4286      	cmp	r6, r0
 8002aa0:	d31c      	bcc.n	8002adc <UART_WaitOnFlagUntilTimeout.constprop.0+0x60>
 8002aa2:	b1de      	cbz	r6, 8002adc <UART_WaitOnFlagUntilTimeout.constprop.0+0x60>
 8002aa4:	682b      	ldr	r3, [r5, #0]
 8002aa6:	68da      	ldr	r2, [r3, #12]
 8002aa8:	0751      	lsls	r1, r2, #29
 8002aaa:	d5ec      	bpl.n	8002a86 <UART_WaitOnFlagUntilTimeout.constprop.0+0xa>
 8002aac:	2c80      	cmp	r4, #128	@ 0x80
 8002aae:	d0ea      	beq.n	8002a86 <UART_WaitOnFlagUntilTimeout.constprop.0+0xa>
 8002ab0:	2c40      	cmp	r4, #64	@ 0x40
 8002ab2:	d0e8      	beq.n	8002a86 <UART_WaitOnFlagUntilTimeout.constprop.0+0xa>
 8002ab4:	681a      	ldr	r2, [r3, #0]
 8002ab6:	0712      	lsls	r2, r2, #28
 8002ab8:	d5e5      	bpl.n	8002a86 <UART_WaitOnFlagUntilTimeout.constprop.0+0xa>
 8002aba:	2400      	movs	r4, #0
 8002abc:	9401      	str	r4, [sp, #4]
 8002abe:	681a      	ldr	r2, [r3, #0]
 8002ac0:	9201      	str	r2, [sp, #4]
 8002ac2:	685b      	ldr	r3, [r3, #4]
 8002ac4:	9301      	str	r3, [sp, #4]
 8002ac6:	4628      	mov	r0, r5
 8002ac8:	9b01      	ldr	r3, [sp, #4]
 8002aca:	f7ff ff4b 	bl	8002964 <UART_EndRxTransfer>
 8002ace:	2308      	movs	r3, #8
 8002ad0:	646b      	str	r3, [r5, #68]	@ 0x44
 8002ad2:	f885 4040 	strb.w	r4, [r5, #64]	@ 0x40
 8002ad6:	2001      	movs	r0, #1
 8002ad8:	b003      	add	sp, #12
 8002ada:	bdf0      	pop	{r4, r5, r6, r7, pc}
 8002adc:	2003      	movs	r0, #3
 8002ade:	e7fb      	b.n	8002ad8 <UART_WaitOnFlagUntilTimeout.constprop.0+0x5c>

08002ae0 <HAL_UART_Init>:
 8002ae0:	b510      	push	{r4, lr}
 8002ae2:	4604      	mov	r4, r0
 8002ae4:	b348      	cbz	r0, 8002b3a <HAL_UART_Init+0x5a>
 8002ae6:	f890 3041 	ldrb.w	r3, [r0, #65]	@ 0x41
 8002aea:	f003 02ff 	and.w	r2, r3, #255	@ 0xff
 8002aee:	b91b      	cbnz	r3, 8002af8 <HAL_UART_Init+0x18>
 8002af0:	f880 2040 	strb.w	r2, [r0, #64]	@ 0x40
 8002af4:	f7fe febe 	bl	8001874 <HAL_UART_MspInit>
 8002af8:	6822      	ldr	r2, [r4, #0]
 8002afa:	2324      	movs	r3, #36	@ 0x24
 8002afc:	f884 3041 	strb.w	r3, [r4, #65]	@ 0x41
 8002b00:	68d3      	ldr	r3, [r2, #12]
 8002b02:	f423 5300 	bic.w	r3, r3, #8192	@ 0x2000
 8002b06:	60d3      	str	r3, [r2, #12]
 8002b08:	4620      	mov	r0, r4
 8002b0a:	f7ff ff59 	bl	80029c0 <UART_SetConfig>
 8002b0e:	6823      	ldr	r3, [r4, #0]
 8002b10:	691a      	ldr	r2, [r3, #16]
 8002b12:	f422 4290 	bic.w	r2, r2, #18432	@ 0x4800
 8002b16:	611a      	str	r2, [r3, #16]
 8002b18:	695a      	ldr	r2, [r3, #20]
 8002b1a:	f022 022a 	bic.w	r2, r2, #42	@ 0x2a
 8002b1e:	615a      	str	r2, [r3, #20]
 8002b20:	68da      	ldr	r2, [r3, #12]
 8002b22:	f442 5200 	orr.w	r2, r2, #8192	@ 0x2000
 8002b26:	60da      	str	r2, [r3, #12]
 8002b28:	2000      	movs	r0, #0
 8002b2a:	2320      	movs	r3, #32
 8002b2c:	6460      	str	r0, [r4, #68]	@ 0x44
 8002b2e:	f884 3041 	strb.w	r3, [r4, #65]	@ 0x41
 8002b32:	f884 3042 	strb.w	r3, [r4, #66]	@ 0x42
 8002b36:	6360      	str	r0, [r4, #52]	@ 0x34
 8002b38:	bd10      	pop	{r4, pc}
 8002b3a:	2001      	movs	r0, #1
 8002b3c:	e7fc      	b.n	8002b38 <HAL_UART_Init+0x58>

08002b3e <HAL_UART_Transmit>:
 8002b3e:	e92d 43f8 	stmdb	sp!, {r3, r4, r5, r6, r7, r8, r9, lr}
 8002b42:	4698      	mov	r8, r3
 8002b44:	f890 3041 	ldrb.w	r3, [r0, #65]	@ 0x41
 8002b48:	2b20      	cmp	r3, #32
 8002b4a:	4604      	mov	r4, r0
 8002b4c:	460e      	mov	r6, r1
 8002b4e:	4617      	mov	r7, r2
 8002b50:	d13f      	bne.n	8002bd2 <HAL_UART_Transmit+0x94>
 8002b52:	2900      	cmp	r1, #0
 8002b54:	d03f      	beq.n	8002bd6 <HAL_UART_Transmit+0x98>
 8002b56:	2a00      	cmp	r2, #0
 8002b58:	d03d      	beq.n	8002bd6 <HAL_UART_Transmit+0x98>
 8002b5a:	2321      	movs	r3, #33	@ 0x21
 8002b5c:	2500      	movs	r5, #0
 8002b5e:	6445      	str	r5, [r0, #68]	@ 0x44
 8002b60:	f880 3041 	strb.w	r3, [r0, #65]	@ 0x41
 8002b64:	f7fe ffec 	bl	8001b40 <HAL_GetTick>
 8002b68:	68a3      	ldr	r3, [r4, #8]
 8002b6a:	84a7      	strh	r7, [r4, #36]	@ 0x24
 8002b6c:	f5b3 5f80 	cmp.w	r3, #4096	@ 0x1000
 8002b70:	4681      	mov	r9, r0
 8002b72:	84e7      	strh	r7, [r4, #38]	@ 0x26
 8002b74:	d103      	bne.n	8002b7e <HAL_UART_Transmit+0x40>
 8002b76:	6923      	ldr	r3, [r4, #16]
 8002b78:	b90b      	cbnz	r3, 8002b7e <HAL_UART_Transmit+0x40>
 8002b7a:	4635      	mov	r5, r6
 8002b7c:	461e      	mov	r6, r3
 8002b7e:	8ce3      	ldrh	r3, [r4, #38]	@ 0x26
 8002b80:	b29b      	uxth	r3, r3
 8002b82:	b953      	cbnz	r3, 8002b9a <HAL_UART_Transmit+0x5c>
 8002b84:	4643      	mov	r3, r8
 8002b86:	464a      	mov	r2, r9
 8002b88:	2140      	movs	r1, #64	@ 0x40
 8002b8a:	4620      	mov	r0, r4
 8002b8c:	f7ff ff76 	bl	8002a7c <UART_WaitOnFlagUntilTimeout.constprop.0>
 8002b90:	2320      	movs	r3, #32
 8002b92:	b950      	cbnz	r0, 8002baa <HAL_UART_Transmit+0x6c>
 8002b94:	f884 3041 	strb.w	r3, [r4, #65]	@ 0x41
 8002b98:	e00a      	b.n	8002bb0 <HAL_UART_Transmit+0x72>
 8002b9a:	4643      	mov	r3, r8
 8002b9c:	464a      	mov	r2, r9
 8002b9e:	2180      	movs	r1, #128	@ 0x80
 8002ba0:	4620      	mov	r0, r4
 8002ba2:	f7ff ff6b 	bl	8002a7c <UART_WaitOnFlagUntilTimeout.constprop.0>
 8002ba6:	b128      	cbz	r0, 8002bb4 <HAL_UART_Transmit+0x76>
 8002ba8:	2320      	movs	r3, #32
 8002baa:	f884 3041 	strb.w	r3, [r4, #65]	@ 0x41
 8002bae:	2003      	movs	r0, #3
 8002bb0:	e8bd 83f8 	ldmia.w	sp!, {r3, r4, r5, r6, r7, r8, r9, pc}
 8002bb4:	6822      	ldr	r2, [r4, #0]
 8002bb6:	b94e      	cbnz	r6, 8002bcc <HAL_UART_Transmit+0x8e>
 8002bb8:	f835 3b02 	ldrh.w	r3, [r5], #2
 8002bbc:	f3c3 0308 	ubfx	r3, r3, #0, #9
 8002bc0:	6053      	str	r3, [r2, #4]
 8002bc2:	8ce1      	ldrh	r1, [r4, #38]	@ 0x26
 8002bc4:	3901      	subs	r1, #1
 8002bc6:	b289      	uxth	r1, r1
 8002bc8:	84e1      	strh	r1, [r4, #38]	@ 0x26
 8002bca:	e7d8      	b.n	8002b7e <HAL_UART_Transmit+0x40>
 8002bcc:	f816 3b01 	ldrb.w	r3, [r6], #1
 8002bd0:	e7f6      	b.n	8002bc0 <HAL_UART_Transmit+0x82>
 8002bd2:	2002      	movs	r0, #2
 8002bd4:	e7ec      	b.n	8002bb0 <HAL_UART_Transmit+0x72>
 8002bd6:	2001      	movs	r0, #1
 8002bd8:	e7ea      	b.n	8002bb0 <HAL_UART_Transmit+0x72>

08002bda <HAL_UART_TxCpltCallback>:
 8002bda:	4770      	bx	lr

08002bdc <HAL_UART_ErrorCallback>:
 8002bdc:	4770      	bx	lr

08002bde <UART_DMAAbortOnError>:
 8002bde:	b508      	push	{r3, lr}
 8002be0:	6b80      	ldr	r0, [r0, #56]	@ 0x38
 8002be2:	2300      	movs	r3, #0
 8002be4:	85c3      	strh	r3, [r0, #46]	@ 0x2e
 8002be6:	84c3      	strh	r3, [r0, #38]	@ 0x26
 8002be8:	f7ff fff8 	bl	8002bdc <HAL_UART_ErrorCallback>
 8002bec:	bd08      	pop	{r3, pc}

08002bee <HAL_UARTEx_RxEventCallback>:
 8002bee:	4770      	bx	lr

08002bf0 <UART_Receive_IT.isra.0>:
 8002bf0:	f890 3042 	ldrb.w	r3, [r0, #66]	@ 0x42
 8002bf4:	2b22      	cmp	r3, #34	@ 0x22
 8002bf6:	b507      	push	{r0, r1, r2, lr}
 8002bf8:	d142      	bne.n	8002c80 <UART_Receive_IT.isra.0+0x90>
 8002bfa:	6881      	ldr	r1, [r0, #8]
 8002bfc:	6802      	ldr	r2, [r0, #0]
 8002bfe:	6a83      	ldr	r3, [r0, #40]	@ 0x28
 8002c00:	f5b1 5f80 	cmp.w	r1, #4096	@ 0x1000
 8002c04:	d13f      	bne.n	8002c86 <UART_Receive_IT.isra.0+0x96>
 8002c06:	6901      	ldr	r1, [r0, #16]
 8002c08:	2900      	cmp	r1, #0
 8002c0a:	d13f      	bne.n	8002c8c <UART_Receive_IT.isra.0+0x9c>
 8002c0c:	6852      	ldr	r2, [r2, #4]
 8002c0e:	f3c2 0208 	ubfx	r2, r2, #0, #9
 8002c12:	f823 2b02 	strh.w	r2, [r3], #2
 8002c16:	6283      	str	r3, [r0, #40]	@ 0x28
 8002c18:	8dc3      	ldrh	r3, [r0, #46]	@ 0x2e
 8002c1a:	3b01      	subs	r3, #1
 8002c1c:	b29b      	uxth	r3, r3
 8002c1e:	85c3      	strh	r3, [r0, #46]	@ 0x2e
 8002c20:	2b00      	cmp	r3, #0
 8002c22:	d12d      	bne.n	8002c80 <UART_Receive_IT.isra.0+0x90>
 8002c24:	6802      	ldr	r2, [r0, #0]
 8002c26:	68d1      	ldr	r1, [r2, #12]
 8002c28:	f021 0120 	bic.w	r1, r1, #32
 8002c2c:	60d1      	str	r1, [r2, #12]
 8002c2e:	68d1      	ldr	r1, [r2, #12]
 8002c30:	f421 7180 	bic.w	r1, r1, #256	@ 0x100
 8002c34:	60d1      	str	r1, [r2, #12]
 8002c36:	6951      	ldr	r1, [r2, #20]
 8002c38:	f021 0101 	bic.w	r1, r1, #1
 8002c3c:	6151      	str	r1, [r2, #20]
 8002c3e:	2220      	movs	r2, #32
 8002c40:	f880 2042 	strb.w	r2, [r0, #66]	@ 0x42
 8002c44:	6343      	str	r3, [r0, #52]	@ 0x34
 8002c46:	6b02      	ldr	r2, [r0, #48]	@ 0x30
 8002c48:	2a01      	cmp	r2, #1
 8002c4a:	6802      	ldr	r2, [r0, #0]
 8002c4c:	d128      	bne.n	8002ca0 <UART_Receive_IT.isra.0+0xb0>
 8002c4e:	6303      	str	r3, [r0, #48]	@ 0x30
 8002c50:	f102 030c 	add.w	r3, r2, #12
 8002c54:	e853 3f00 	ldrex	r3, [r3]
 8002c58:	f023 0310 	bic.w	r3, r3, #16
 8002c5c:	f102 0c0c 	add.w	ip, r2, #12
 8002c60:	e84c 3100 	strex	r1, r3, [ip]
 8002c64:	2900      	cmp	r1, #0
 8002c66:	d1f3      	bne.n	8002c50 <UART_Receive_IT.isra.0+0x60>
 8002c68:	6813      	ldr	r3, [r2, #0]
 8002c6a:	06db      	lsls	r3, r3, #27
 8002c6c:	d505      	bpl.n	8002c7a <UART_Receive_IT.isra.0+0x8a>
 8002c6e:	9101      	str	r1, [sp, #4]
 8002c70:	6813      	ldr	r3, [r2, #0]
 8002c72:	9301      	str	r3, [sp, #4]
 8002c74:	6853      	ldr	r3, [r2, #4]
 8002c76:	9301      	str	r3, [sp, #4]
 8002c78:	9b01      	ldr	r3, [sp, #4]
 8002c7a:	8d81      	ldrh	r1, [r0, #44]	@ 0x2c
 8002c7c:	f7ff ffb7 	bl	8002bee <HAL_UARTEx_RxEventCallback>
 8002c80:	b003      	add	sp, #12
 8002c82:	f85d fb04 	ldr.w	pc, [sp], #4
 8002c86:	b939      	cbnz	r1, 8002c98 <UART_Receive_IT.isra.0+0xa8>
 8002c88:	6901      	ldr	r1, [r0, #16]
 8002c8a:	b929      	cbnz	r1, 8002c98 <UART_Receive_IT.isra.0+0xa8>
 8002c8c:	6852      	ldr	r2, [r2, #4]
 8002c8e:	b2d2      	uxtb	r2, r2
 8002c90:	701a      	strb	r2, [r3, #0]
 8002c92:	6a83      	ldr	r3, [r0, #40]	@ 0x28
 8002c94:	3301      	adds	r3, #1
 8002c96:	e7be      	b.n	8002c16 <UART_Receive_IT.isra.0+0x26>
 8002c98:	6852      	ldr	r2, [r2, #4]
 8002c9a:	f002 027f 	and.w	r2, r2, #127	@ 0x7f
 8002c9e:	e7f7      	b.n	8002c90 <UART_Receive_IT.isra.0+0xa0>
 8002ca0:	f7fe fb20 	bl	80012e4 <HAL_UART_RxCpltCallback>
 8002ca4:	e7ec      	b.n	8002c80 <UART_Receive_IT.isra.0+0x90>
	...

08002ca8 <HAL_UART_IRQHandler>:
 8002ca8:	6803      	ldr	r3, [r0, #0]
 8002caa:	681a      	ldr	r2, [r3, #0]
 8002cac:	b573      	push	{r0, r1, r4, r5, r6, lr}
 8002cae:	0716      	lsls	r6, r2, #28
 8002cb0:	68d9      	ldr	r1, [r3, #12]
 8002cb2:	695d      	ldr	r5, [r3, #20]
 8002cb4:	4604      	mov	r4, r0
 8002cb6:	d108      	bne.n	8002cca <HAL_UART_IRQHandler+0x22>
 8002cb8:	0696      	lsls	r6, r2, #26
 8002cba:	d568      	bpl.n	8002d8e <HAL_UART_IRQHandler+0xe6>
 8002cbc:	068d      	lsls	r5, r1, #26
 8002cbe:	d566      	bpl.n	8002d8e <HAL_UART_IRQHandler+0xe6>
 8002cc0:	b002      	add	sp, #8
 8002cc2:	e8bd 4070 	ldmia.w	sp!, {r4, r5, r6, lr}
 8002cc6:	f7ff bf93 	b.w	8002bf0 <UART_Receive_IT.isra.0>
 8002cca:	f005 0001 	and.w	r0, r5, #1
 8002cce:	f401 7590 	and.w	r5, r1, #288	@ 0x120
 8002cd2:	4305      	orrs	r5, r0
 8002cd4:	d05b      	beq.n	8002d8e <HAL_UART_IRQHandler+0xe6>
 8002cd6:	07d6      	lsls	r6, r2, #31
 8002cd8:	d505      	bpl.n	8002ce6 <HAL_UART_IRQHandler+0x3e>
 8002cda:	05cd      	lsls	r5, r1, #23
 8002cdc:	bf42      	ittt	mi
 8002cde:	6c63      	ldrmi	r3, [r4, #68]	@ 0x44
 8002ce0:	f043 0301 	orrmi.w	r3, r3, #1
 8002ce4:	6463      	strmi	r3, [r4, #68]	@ 0x44
 8002ce6:	0753      	lsls	r3, r2, #29
 8002ce8:	d504      	bpl.n	8002cf4 <HAL_UART_IRQHandler+0x4c>
 8002cea:	b118      	cbz	r0, 8002cf4 <HAL_UART_IRQHandler+0x4c>
 8002cec:	6c63      	ldr	r3, [r4, #68]	@ 0x44
 8002cee:	f043 0302 	orr.w	r3, r3, #2
 8002cf2:	6463      	str	r3, [r4, #68]	@ 0x44
 8002cf4:	0796      	lsls	r6, r2, #30
 8002cf6:	d504      	bpl.n	8002d02 <HAL_UART_IRQHandler+0x5a>
 8002cf8:	b118      	cbz	r0, 8002d02 <HAL_UART_IRQHandler+0x5a>
 8002cfa:	6c63      	ldr	r3, [r4, #68]	@ 0x44
 8002cfc:	f043 0304 	orr.w	r3, r3, #4
 8002d00:	6463      	str	r3, [r4, #68]	@ 0x44
 8002d02:	0715      	lsls	r5, r2, #28
 8002d04:	d507      	bpl.n	8002d16 <HAL_UART_IRQHandler+0x6e>
 8002d06:	f001 0320 	and.w	r3, r1, #32
 8002d0a:	4303      	orrs	r3, r0
 8002d0c:	bf1e      	ittt	ne
 8002d0e:	6c63      	ldrne	r3, [r4, #68]	@ 0x44
 8002d10:	f043 0308 	orrne.w	r3, r3, #8
 8002d14:	6463      	strne	r3, [r4, #68]	@ 0x44
 8002d16:	6c63      	ldr	r3, [r4, #68]	@ 0x44
 8002d18:	2b00      	cmp	r3, #0
 8002d1a:	d032      	beq.n	8002d82 <HAL_UART_IRQHandler+0xda>
 8002d1c:	0692      	lsls	r2, r2, #26
 8002d1e:	d504      	bpl.n	8002d2a <HAL_UART_IRQHandler+0x82>
 8002d20:	068b      	lsls	r3, r1, #26
 8002d22:	d502      	bpl.n	8002d2a <HAL_UART_IRQHandler+0x82>
 8002d24:	4620      	mov	r0, r4
 8002d26:	f7ff ff63 	bl	8002bf0 <UART_Receive_IT.isra.0>
 8002d2a:	6826      	ldr	r6, [r4, #0]
 8002d2c:	6973      	ldr	r3, [r6, #20]
 8002d2e:	6c62      	ldr	r2, [r4, #68]	@ 0x44
 8002d30:	f003 0340 	and.w	r3, r3, #64	@ 0x40
 8002d34:	f002 0208 	and.w	r2, r2, #8
 8002d38:	ea53 0502 	orrs.w	r5, r3, r2
 8002d3c:	4620      	mov	r0, r4
 8002d3e:	d022      	beq.n	8002d86 <HAL_UART_IRQHandler+0xde>
 8002d40:	f7ff fe10 	bl	8002964 <UART_EndRxTransfer>
 8002d44:	6973      	ldr	r3, [r6, #20]
 8002d46:	065e      	lsls	r6, r3, #25
 8002d48:	d518      	bpl.n	8002d7c <HAL_UART_IRQHandler+0xd4>
 8002d4a:	6822      	ldr	r2, [r4, #0]
 8002d4c:	f102 0314 	add.w	r3, r2, #20
 8002d50:	e853 3f00 	ldrex	r3, [r3]
 8002d54:	f023 0340 	bic.w	r3, r3, #64	@ 0x40
 8002d58:	3214      	adds	r2, #20
 8002d5a:	e842 3100 	strex	r1, r3, [r2]
 8002d5e:	2900      	cmp	r1, #0
 8002d60:	d1f3      	bne.n	8002d4a <HAL_UART_IRQHandler+0xa2>
 8002d62:	6be0      	ldr	r0, [r4, #60]	@ 0x3c
 8002d64:	b150      	cbz	r0, 8002d7c <HAL_UART_IRQHandler+0xd4>
 8002d66:	4b74      	ldr	r3, [pc, #464]	@ (8002f38 <HAL_UART_IRQHandler+0x290>)
 8002d68:	6503      	str	r3, [r0, #80]	@ 0x50
 8002d6a:	f7fe ffa7 	bl	8001cbc <HAL_DMA_Abort_IT>
 8002d6e:	b140      	cbz	r0, 8002d82 <HAL_UART_IRQHandler+0xda>
 8002d70:	6be0      	ldr	r0, [r4, #60]	@ 0x3c
 8002d72:	6d03      	ldr	r3, [r0, #80]	@ 0x50
 8002d74:	b002      	add	sp, #8
 8002d76:	e8bd 4070 	ldmia.w	sp!, {r4, r5, r6, lr}
 8002d7a:	4718      	bx	r3
 8002d7c:	4620      	mov	r0, r4
 8002d7e:	f7ff ff2d 	bl	8002bdc <HAL_UART_ErrorCallback>
 8002d82:	b002      	add	sp, #8
 8002d84:	bd70      	pop	{r4, r5, r6, pc}
 8002d86:	f7ff ff29 	bl	8002bdc <HAL_UART_ErrorCallback>
 8002d8a:	6465      	str	r5, [r4, #68]	@ 0x44
 8002d8c:	e7f9      	b.n	8002d82 <HAL_UART_IRQHandler+0xda>
 8002d8e:	6b20      	ldr	r0, [r4, #48]	@ 0x30
 8002d90:	2801      	cmp	r0, #1
 8002d92:	f040 8095 	bne.w	8002ec0 <HAL_UART_IRQHandler+0x218>
 8002d96:	06d5      	lsls	r5, r2, #27
 8002d98:	f140 8092 	bpl.w	8002ec0 <HAL_UART_IRQHandler+0x218>
 8002d9c:	06c8      	lsls	r0, r1, #27
 8002d9e:	f140 808f 	bpl.w	8002ec0 <HAL_UART_IRQHandler+0x218>
 8002da2:	2200      	movs	r2, #0
 8002da4:	9201      	str	r2, [sp, #4]
 8002da6:	681a      	ldr	r2, [r3, #0]
 8002da8:	9201      	str	r2, [sp, #4]
 8002daa:	685a      	ldr	r2, [r3, #4]
 8002dac:	9201      	str	r2, [sp, #4]
 8002dae:	9a01      	ldr	r2, [sp, #4]
 8002db0:	695a      	ldr	r2, [r3, #20]
 8002db2:	0652      	lsls	r2, r2, #25
 8002db4:	d54e      	bpl.n	8002e54 <HAL_UART_IRQHandler+0x1ac>
 8002db6:	6be1      	ldr	r1, [r4, #60]	@ 0x3c
 8002db8:	680a      	ldr	r2, [r1, #0]
 8002dba:	6852      	ldr	r2, [r2, #4]
 8002dbc:	b292      	uxth	r2, r2
 8002dbe:	2a00      	cmp	r2, #0
 8002dc0:	d0df      	beq.n	8002d82 <HAL_UART_IRQHandler+0xda>
 8002dc2:	8da0      	ldrh	r0, [r4, #44]	@ 0x2c
 8002dc4:	4290      	cmp	r0, r2
 8002dc6:	d9dc      	bls.n	8002d82 <HAL_UART_IRQHandler+0xda>
 8002dc8:	85e2      	strh	r2, [r4, #46]	@ 0x2e
 8002dca:	69ca      	ldr	r2, [r1, #28]
 8002dcc:	f5b2 7f80 	cmp.w	r2, #256	@ 0x100
 8002dd0:	d036      	beq.n	8002e40 <HAL_UART_IRQHandler+0x198>
 8002dd2:	f103 020c 	add.w	r2, r3, #12
 8002dd6:	e852 2f00 	ldrex	r2, [r2]
 8002dda:	f422 7280 	bic.w	r2, r2, #256	@ 0x100
 8002dde:	f103 000c 	add.w	r0, r3, #12
 8002de2:	e840 2100 	strex	r1, r2, [r0]
 8002de6:	2900      	cmp	r1, #0
 8002de8:	d1f3      	bne.n	8002dd2 <HAL_UART_IRQHandler+0x12a>
 8002dea:	f103 0214 	add.w	r2, r3, #20
 8002dee:	e852 2f00 	ldrex	r2, [r2]
 8002df2:	f022 0201 	bic.w	r2, r2, #1
 8002df6:	f103 0014 	add.w	r0, r3, #20
 8002dfa:	e840 2100 	strex	r1, r2, [r0]
 8002dfe:	2900      	cmp	r1, #0
 8002e00:	d1f3      	bne.n	8002dea <HAL_UART_IRQHandler+0x142>
 8002e02:	f103 0214 	add.w	r2, r3, #20
 8002e06:	e852 2f00 	ldrex	r2, [r2]
 8002e0a:	f022 0240 	bic.w	r2, r2, #64	@ 0x40
 8002e0e:	f103 0014 	add.w	r0, r3, #20
 8002e12:	e840 2100 	strex	r1, r2, [r0]
 8002e16:	2900      	cmp	r1, #0
 8002e18:	d1f3      	bne.n	8002e02 <HAL_UART_IRQHandler+0x15a>
 8002e1a:	2220      	movs	r2, #32
 8002e1c:	f884 2042 	strb.w	r2, [r4, #66]	@ 0x42
 8002e20:	6321      	str	r1, [r4, #48]	@ 0x30
 8002e22:	f103 020c 	add.w	r2, r3, #12
 8002e26:	e852 2f00 	ldrex	r2, [r2]
 8002e2a:	f022 0210 	bic.w	r2, r2, #16
 8002e2e:	f103 000c 	add.w	r0, r3, #12
 8002e32:	e840 2100 	strex	r1, r2, [r0]
 8002e36:	2900      	cmp	r1, #0
 8002e38:	d1f3      	bne.n	8002e22 <HAL_UART_IRQHandler+0x17a>
 8002e3a:	6be0      	ldr	r0, [r4, #60]	@ 0x3c
 8002e3c:	f7fe ff00 	bl	8001c40 <HAL_DMA_Abort>
 8002e40:	2302      	movs	r3, #2
 8002e42:	6363      	str	r3, [r4, #52]	@ 0x34
 8002e44:	8de3      	ldrh	r3, [r4, #46]	@ 0x2e
 8002e46:	8da1      	ldrh	r1, [r4, #44]	@ 0x2c
 8002e48:	1ac9      	subs	r1, r1, r3
 8002e4a:	b289      	uxth	r1, r1
 8002e4c:	4620      	mov	r0, r4
 8002e4e:	f7ff fece 	bl	8002bee <HAL_UARTEx_RxEventCallback>
 8002e52:	e796      	b.n	8002d82 <HAL_UART_IRQHandler+0xda>
 8002e54:	8de2      	ldrh	r2, [r4, #46]	@ 0x2e
 8002e56:	8de0      	ldrh	r0, [r4, #46]	@ 0x2e
 8002e58:	8da1      	ldrh	r1, [r4, #44]	@ 0x2c
 8002e5a:	b280      	uxth	r0, r0
 8002e5c:	b292      	uxth	r2, r2
 8002e5e:	2800      	cmp	r0, #0
 8002e60:	d08f      	beq.n	8002d82 <HAL_UART_IRQHandler+0xda>
 8002e62:	1a89      	subs	r1, r1, r2
 8002e64:	b289      	uxth	r1, r1
 8002e66:	2900      	cmp	r1, #0
 8002e68:	d08b      	beq.n	8002d82 <HAL_UART_IRQHandler+0xda>
 8002e6a:	f103 020c 	add.w	r2, r3, #12
 8002e6e:	e852 2f00 	ldrex	r2, [r2]
 8002e72:	f422 7290 	bic.w	r2, r2, #288	@ 0x120
 8002e76:	f103 050c 	add.w	r5, r3, #12
 8002e7a:	e845 2000 	strex	r0, r2, [r5]
 8002e7e:	2800      	cmp	r0, #0
 8002e80:	d1f3      	bne.n	8002e6a <HAL_UART_IRQHandler+0x1c2>
 8002e82:	f103 0214 	add.w	r2, r3, #20
 8002e86:	e852 2f00 	ldrex	r2, [r2]
 8002e8a:	f022 0201 	bic.w	r2, r2, #1
 8002e8e:	f103 0514 	add.w	r5, r3, #20
 8002e92:	e845 2000 	strex	r0, r2, [r5]
 8002e96:	2800      	cmp	r0, #0
 8002e98:	d1f3      	bne.n	8002e82 <HAL_UART_IRQHandler+0x1da>
 8002e9a:	2220      	movs	r2, #32
 8002e9c:	f884 2042 	strb.w	r2, [r4, #66]	@ 0x42
 8002ea0:	6320      	str	r0, [r4, #48]	@ 0x30
 8002ea2:	f103 020c 	add.w	r2, r3, #12
 8002ea6:	e852 2f00 	ldrex	r2, [r2]
 8002eaa:	f022 0210 	bic.w	r2, r2, #16
 8002eae:	f103 050c 	add.w	r5, r3, #12
 8002eb2:	e845 2000 	strex	r0, r2, [r5]
 8002eb6:	2800      	cmp	r0, #0
 8002eb8:	d1f3      	bne.n	8002ea2 <HAL_UART_IRQHandler+0x1fa>
 8002eba:	2302      	movs	r3, #2
 8002ebc:	6363      	str	r3, [r4, #52]	@ 0x34
 8002ebe:	e7c5      	b.n	8002e4c <HAL_UART_IRQHandler+0x1a4>
 8002ec0:	0616      	lsls	r6, r2, #24
 8002ec2:	d528      	bpl.n	8002f16 <HAL_UART_IRQHandler+0x26e>
 8002ec4:	060d      	lsls	r5, r1, #24
 8002ec6:	d526      	bpl.n	8002f16 <HAL_UART_IRQHandler+0x26e>
 8002ec8:	f894 2041 	ldrb.w	r2, [r4, #65]	@ 0x41
 8002ecc:	2a21      	cmp	r2, #33	@ 0x21
 8002ece:	f47f af58 	bne.w	8002d82 <HAL_UART_IRQHandler+0xda>
 8002ed2:	68a1      	ldr	r1, [r4, #8]
 8002ed4:	6a22      	ldr	r2, [r4, #32]
 8002ed6:	f5b1 5f80 	cmp.w	r1, #4096	@ 0x1000
 8002eda:	d117      	bne.n	8002f0c <HAL_UART_IRQHandler+0x264>
 8002edc:	6921      	ldr	r1, [r4, #16]
 8002ede:	b9a9      	cbnz	r1, 8002f0c <HAL_UART_IRQHandler+0x264>
 8002ee0:	f832 1b02 	ldrh.w	r1, [r2], #2
 8002ee4:	f3c1 0108 	ubfx	r1, r1, #0, #9
 8002ee8:	6059      	str	r1, [r3, #4]
 8002eea:	6222      	str	r2, [r4, #32]
 8002eec:	8ce2      	ldrh	r2, [r4, #38]	@ 0x26
 8002eee:	3a01      	subs	r2, #1
 8002ef0:	b292      	uxth	r2, r2
 8002ef2:	84e2      	strh	r2, [r4, #38]	@ 0x26
 8002ef4:	2a00      	cmp	r2, #0
 8002ef6:	f47f af44 	bne.w	8002d82 <HAL_UART_IRQHandler+0xda>
 8002efa:	68da      	ldr	r2, [r3, #12]
 8002efc:	f022 0280 	bic.w	r2, r2, #128	@ 0x80
 8002f00:	60da      	str	r2, [r3, #12]
 8002f02:	68da      	ldr	r2, [r3, #12]
 8002f04:	f042 0240 	orr.w	r2, r2, #64	@ 0x40
 8002f08:	60da      	str	r2, [r3, #12]
 8002f0a:	e73a      	b.n	8002d82 <HAL_UART_IRQHandler+0xda>
 8002f0c:	1c51      	adds	r1, r2, #1
 8002f0e:	6221      	str	r1, [r4, #32]
 8002f10:	7812      	ldrb	r2, [r2, #0]
 8002f12:	605a      	str	r2, [r3, #4]
 8002f14:	e7ea      	b.n	8002eec <HAL_UART_IRQHandler+0x244>
 8002f16:	0650      	lsls	r0, r2, #25
 8002f18:	f57f af33 	bpl.w	8002d82 <HAL_UART_IRQHandler+0xda>
 8002f1c:	064a      	lsls	r2, r1, #25
 8002f1e:	f57f af30 	bpl.w	8002d82 <HAL_UART_IRQHandler+0xda>
 8002f22:	68da      	ldr	r2, [r3, #12]
 8002f24:	f022 0240 	bic.w	r2, r2, #64	@ 0x40
 8002f28:	60da      	str	r2, [r3, #12]
 8002f2a:	2320      	movs	r3, #32
 8002f2c:	f884 3041 	strb.w	r3, [r4, #65]	@ 0x41
 8002f30:	4620      	mov	r0, r4
 8002f32:	f7ff fe52 	bl	8002bda <HAL_UART_TxCpltCallback>
 8002f36:	e724      	b.n	8002d82 <HAL_UART_IRQHandler+0xda>
 8002f38:	08002bdf 	.word	0x08002bdf

08002f3c <UART_Start_Receive_IT>:
 8002f3c:	85c2      	strh	r2, [r0, #46]	@ 0x2e
 8002f3e:	2300      	movs	r3, #0
 8002f40:	8582      	strh	r2, [r0, #44]	@ 0x2c
 8002f42:	6902      	ldr	r2, [r0, #16]
 8002f44:	6443      	str	r3, [r0, #68]	@ 0x44
 8002f46:	2322      	movs	r3, #34	@ 0x22
 8002f48:	f880 3042 	strb.w	r3, [r0, #66]	@ 0x42
 8002f4c:	6281      	str	r1, [r0, #40]	@ 0x28
 8002f4e:	6803      	ldr	r3, [r0, #0]
 8002f50:	b11a      	cbz	r2, 8002f5a <UART_Start_Receive_IT+0x1e>
 8002f52:	68da      	ldr	r2, [r3, #12]
 8002f54:	f442 7280 	orr.w	r2, r2, #256	@ 0x100
 8002f58:	60da      	str	r2, [r3, #12]
 8002f5a:	695a      	ldr	r2, [r3, #20]
 8002f5c:	f042 0201 	orr.w	r2, r2, #1
 8002f60:	615a      	str	r2, [r3, #20]
 8002f62:	68da      	ldr	r2, [r3, #12]
 8002f64:	f042 0220 	orr.w	r2, r2, #32
 8002f68:	60da      	str	r2, [r3, #12]
 8002f6a:	2000      	movs	r0, #0
 8002f6c:	4770      	bx	lr

08002f6e <HAL_UART_Receive_IT>:
 8002f6e:	b470      	push	{r4, r5, r6}
 8002f70:	f890 6042 	ldrb.w	r6, [r0, #66]	@ 0x42
 8002f74:	2e20      	cmp	r6, #32
 8002f76:	d106      	bne.n	8002f86 <HAL_UART_Receive_IT+0x18>
 8002f78:	b141      	cbz	r1, 8002f8c <HAL_UART_Receive_IT+0x1e>
 8002f7a:	b13a      	cbz	r2, 8002f8c <HAL_UART_Receive_IT+0x1e>
 8002f7c:	2400      	movs	r4, #0
 8002f7e:	6304      	str	r4, [r0, #48]	@ 0x30
 8002f80:	bc70      	pop	{r4, r5, r6}
 8002f82:	f7ff bfdb 	b.w	8002f3c <UART_Start_Receive_IT>
 8002f86:	2002      	movs	r0, #2
 8002f88:	bc70      	pop	{r4, r5, r6}
 8002f8a:	4770      	bx	lr
 8002f8c:	2001      	movs	r0, #1
 8002f8e:	e7fb      	b.n	8002f88 <HAL_UART_Receive_IT+0x1a>

08002f90 <atoi>:
 8002f90:	220a      	movs	r2, #10
 8002f92:	2100      	movs	r1, #0
 8002f94:	f000 b894 	b.w	80030c0 <strtol>

08002f98 <__itoa>:
 8002f98:	1e93      	subs	r3, r2, #2
 8002f9a:	2b22      	cmp	r3, #34	@ 0x22
 8002f9c:	b510      	push	{r4, lr}
 8002f9e:	460c      	mov	r4, r1
 8002fa0:	d904      	bls.n	8002fac <__itoa+0x14>
 8002fa2:	2300      	movs	r3, #0
 8002fa4:	700b      	strb	r3, [r1, #0]
 8002fa6:	461c      	mov	r4, r3
 8002fa8:	4620      	mov	r0, r4
 8002faa:	bd10      	pop	{r4, pc}
 8002fac:	2a0a      	cmp	r2, #10
 8002fae:	d109      	bne.n	8002fc4 <__itoa+0x2c>
 8002fb0:	2800      	cmp	r0, #0
 8002fb2:	da07      	bge.n	8002fc4 <__itoa+0x2c>
 8002fb4:	232d      	movs	r3, #45	@ 0x2d
 8002fb6:	700b      	strb	r3, [r1, #0]
 8002fb8:	4240      	negs	r0, r0
 8002fba:	2101      	movs	r1, #1
 8002fbc:	4421      	add	r1, r4
 8002fbe:	f000 f889 	bl	80030d4 <__utoa>
 8002fc2:	e7f1      	b.n	8002fa8 <__itoa+0x10>
 8002fc4:	2100      	movs	r1, #0
 8002fc6:	e7f9      	b.n	8002fbc <__itoa+0x24>

08002fc8 <itoa>:
 8002fc8:	f7ff bfe6 	b.w	8002f98 <__itoa>

08002fcc <_strtol_l.constprop.0>:
 8002fcc:	2b24      	cmp	r3, #36	@ 0x24
 8002fce:	e92d 47f0 	stmdb	sp!, {r4, r5, r6, r7, r8, r9, sl, lr}
 8002fd2:	4686      	mov	lr, r0
 8002fd4:	4690      	mov	r8, r2
 8002fd6:	d801      	bhi.n	8002fdc <_strtol_l.constprop.0+0x10>
 8002fd8:	2b01      	cmp	r3, #1
 8002fda:	d106      	bne.n	8002fea <_strtol_l.constprop.0+0x1e>
 8002fdc:	f000 fef6 	bl	8003dcc <__errno>
 8002fe0:	2316      	movs	r3, #22
 8002fe2:	6003      	str	r3, [r0, #0]
 8002fe4:	2000      	movs	r0, #0
 8002fe6:	e8bd 87f0 	ldmia.w	sp!, {r4, r5, r6, r7, r8, r9, sl, pc}
 8002fea:	4834      	ldr	r0, [pc, #208]	@ (80030bc <_strtol_l.constprop.0+0xf0>)
 8002fec:	460d      	mov	r5, r1
 8002fee:	462a      	mov	r2, r5
 8002ff0:	f815 4b01 	ldrb.w	r4, [r5], #1
 8002ff4:	5d06      	ldrb	r6, [r0, r4]
 8002ff6:	f016 0608 	ands.w	r6, r6, #8
 8002ffa:	d1f8      	bne.n	8002fee <_strtol_l.constprop.0+0x22>
 8002ffc:	2c2d      	cmp	r4, #45	@ 0x2d
 8002ffe:	d12d      	bne.n	800305c <_strtol_l.constprop.0+0x90>
 8003000:	782c      	ldrb	r4, [r5, #0]
 8003002:	2601      	movs	r6, #1
 8003004:	1c95      	adds	r5, r2, #2
 8003006:	f033 0210 	bics.w	r2, r3, #16
 800300a:	d109      	bne.n	8003020 <_strtol_l.constprop.0+0x54>
 800300c:	2c30      	cmp	r4, #48	@ 0x30
 800300e:	d12a      	bne.n	8003066 <_strtol_l.constprop.0+0x9a>
 8003010:	782a      	ldrb	r2, [r5, #0]
 8003012:	f002 02df 	and.w	r2, r2, #223	@ 0xdf
 8003016:	2a58      	cmp	r2, #88	@ 0x58
 8003018:	d125      	bne.n	8003066 <_strtol_l.constprop.0+0x9a>
 800301a:	786c      	ldrb	r4, [r5, #1]
 800301c:	2310      	movs	r3, #16
 800301e:	3502      	adds	r5, #2
 8003020:	f106 4c00 	add.w	ip, r6, #2147483648	@ 0x80000000
 8003024:	f10c 3cff 	add.w	ip, ip, #4294967295
 8003028:	2200      	movs	r2, #0
 800302a:	fbbc f9f3 	udiv	r9, ip, r3
 800302e:	4610      	mov	r0, r2
 8003030:	fb03 ca19 	mls	sl, r3, r9, ip
 8003034:	f1a4 0730 	sub.w	r7, r4, #48	@ 0x30
 8003038:	2f09      	cmp	r7, #9
 800303a:	d81b      	bhi.n	8003074 <_strtol_l.constprop.0+0xa8>
 800303c:	463c      	mov	r4, r7
 800303e:	42a3      	cmp	r3, r4
 8003040:	dd27      	ble.n	8003092 <_strtol_l.constprop.0+0xc6>
 8003042:	1c57      	adds	r7, r2, #1
 8003044:	d007      	beq.n	8003056 <_strtol_l.constprop.0+0x8a>
 8003046:	4581      	cmp	r9, r0
 8003048:	d320      	bcc.n	800308c <_strtol_l.constprop.0+0xc0>
 800304a:	d101      	bne.n	8003050 <_strtol_l.constprop.0+0x84>
 800304c:	45a2      	cmp	sl, r4
 800304e:	db1d      	blt.n	800308c <_strtol_l.constprop.0+0xc0>
 8003050:	fb00 4003 	mla	r0, r0, r3, r4
 8003054:	2201      	movs	r2, #1
 8003056:	f815 4b01 	ldrb.w	r4, [r5], #1
 800305a:	e7eb      	b.n	8003034 <_strtol_l.constprop.0+0x68>
 800305c:	2c2b      	cmp	r4, #43	@ 0x2b
 800305e:	bf04      	itt	eq
 8003060:	782c      	ldrbeq	r4, [r5, #0]
 8003062:	1c95      	addeq	r5, r2, #2
 8003064:	e7cf      	b.n	8003006 <_strtol_l.constprop.0+0x3a>
 8003066:	2b00      	cmp	r3, #0
 8003068:	d1da      	bne.n	8003020 <_strtol_l.constprop.0+0x54>
 800306a:	2c30      	cmp	r4, #48	@ 0x30
 800306c:	bf0c      	ite	eq
 800306e:	2308      	moveq	r3, #8
 8003070:	230a      	movne	r3, #10
 8003072:	e7d5      	b.n	8003020 <_strtol_l.constprop.0+0x54>
 8003074:	f1a4 0741 	sub.w	r7, r4, #65	@ 0x41
 8003078:	2f19      	cmp	r7, #25
 800307a:	d801      	bhi.n	8003080 <_strtol_l.constprop.0+0xb4>
 800307c:	3c37      	subs	r4, #55	@ 0x37
 800307e:	e7de      	b.n	800303e <_strtol_l.constprop.0+0x72>
 8003080:	f1a4 0761 	sub.w	r7, r4, #97	@ 0x61
 8003084:	2f19      	cmp	r7, #25
 8003086:	d804      	bhi.n	8003092 <_strtol_l.constprop.0+0xc6>
 8003088:	3c57      	subs	r4, #87	@ 0x57
 800308a:	e7d8      	b.n	800303e <_strtol_l.constprop.0+0x72>
 800308c:	f04f 32ff 	mov.w	r2, #4294967295
 8003090:	e7e1      	b.n	8003056 <_strtol_l.constprop.0+0x8a>
 8003092:	1c53      	adds	r3, r2, #1
 8003094:	d108      	bne.n	80030a8 <_strtol_l.constprop.0+0xdc>
 8003096:	2322      	movs	r3, #34	@ 0x22
 8003098:	f8ce 3000 	str.w	r3, [lr]
 800309c:	4660      	mov	r0, ip
 800309e:	f1b8 0f00 	cmp.w	r8, #0
 80030a2:	d0a0      	beq.n	8002fe6 <_strtol_l.constprop.0+0x1a>
 80030a4:	1e69      	subs	r1, r5, #1
 80030a6:	e006      	b.n	80030b6 <_strtol_l.constprop.0+0xea>
 80030a8:	b106      	cbz	r6, 80030ac <_strtol_l.constprop.0+0xe0>
 80030aa:	4240      	negs	r0, r0
 80030ac:	f1b8 0f00 	cmp.w	r8, #0
 80030b0:	d099      	beq.n	8002fe6 <_strtol_l.constprop.0+0x1a>
 80030b2:	2a00      	cmp	r2, #0
 80030b4:	d1f6      	bne.n	80030a4 <_strtol_l.constprop.0+0xd8>
 80030b6:	f8c8 1000 	str.w	r1, [r8]
 80030ba:	e794      	b.n	8002fe6 <_strtol_l.constprop.0+0x1a>
 80030bc:	08006f21 	.word	0x08006f21

080030c0 <strtol>:
 80030c0:	4613      	mov	r3, r2
 80030c2:	460a      	mov	r2, r1
 80030c4:	4601      	mov	r1, r0
 80030c6:	4802      	ldr	r0, [pc, #8]	@ (80030d0 <strtol+0x10>)
 80030c8:	6800      	ldr	r0, [r0, #0]
 80030ca:	f7ff bf7f 	b.w	8002fcc <_strtol_l.constprop.0>
 80030ce:	bf00      	nop
 80030d0:	20000040 	.word	0x20000040

080030d4 <__utoa>:
 80030d4:	b5f0      	push	{r4, r5, r6, r7, lr}
 80030d6:	4c1f      	ldr	r4, [pc, #124]	@ (8003154 <__utoa+0x80>)
 80030d8:	b08b      	sub	sp, #44	@ 0x2c
 80030da:	4605      	mov	r5, r0
 80030dc:	460b      	mov	r3, r1
 80030de:	466e      	mov	r6, sp
 80030e0:	f104 0c20 	add.w	ip, r4, #32
 80030e4:	6820      	ldr	r0, [r4, #0]
 80030e6:	6861      	ldr	r1, [r4, #4]
 80030e8:	4637      	mov	r7, r6
 80030ea:	c703      	stmia	r7!, {r0, r1}
 80030ec:	3408      	adds	r4, #8
 80030ee:	4564      	cmp	r4, ip
 80030f0:	463e      	mov	r6, r7
 80030f2:	d1f7      	bne.n	80030e4 <__utoa+0x10>
 80030f4:	7921      	ldrb	r1, [r4, #4]
 80030f6:	7139      	strb	r1, [r7, #4]
 80030f8:	1e91      	subs	r1, r2, #2
 80030fa:	6820      	ldr	r0, [r4, #0]
 80030fc:	6038      	str	r0, [r7, #0]
 80030fe:	2922      	cmp	r1, #34	@ 0x22
 8003100:	f04f 0100 	mov.w	r1, #0
 8003104:	d904      	bls.n	8003110 <__utoa+0x3c>
 8003106:	7019      	strb	r1, [r3, #0]
 8003108:	460b      	mov	r3, r1
 800310a:	4618      	mov	r0, r3
 800310c:	b00b      	add	sp, #44	@ 0x2c
 800310e:	bdf0      	pop	{r4, r5, r6, r7, pc}
 8003110:	1e58      	subs	r0, r3, #1
 8003112:	4684      	mov	ip, r0
 8003114:	fbb5 f7f2 	udiv	r7, r5, r2
 8003118:	fb02 5617 	mls	r6, r2, r7, r5
 800311c:	3628      	adds	r6, #40	@ 0x28
 800311e:	446e      	add	r6, sp
 8003120:	460c      	mov	r4, r1
 8003122:	f816 6c28 	ldrb.w	r6, [r6, #-40]
 8003126:	f80c 6f01 	strb.w	r6, [ip, #1]!
 800312a:	462e      	mov	r6, r5
 800312c:	42b2      	cmp	r2, r6
 800312e:	f101 0101 	add.w	r1, r1, #1
 8003132:	463d      	mov	r5, r7
 8003134:	d9ee      	bls.n	8003114 <__utoa+0x40>
 8003136:	2200      	movs	r2, #0
 8003138:	545a      	strb	r2, [r3, r1]
 800313a:	1919      	adds	r1, r3, r4
 800313c:	1aa5      	subs	r5, r4, r2
 800313e:	42aa      	cmp	r2, r5
 8003140:	dae3      	bge.n	800310a <__utoa+0x36>
 8003142:	f810 5f01 	ldrb.w	r5, [r0, #1]!
 8003146:	780e      	ldrb	r6, [r1, #0]
 8003148:	7006      	strb	r6, [r0, #0]
 800314a:	3201      	adds	r2, #1
 800314c:	f801 5901 	strb.w	r5, [r1], #-1
 8003150:	e7f4      	b.n	800313c <__utoa+0x68>
 8003152:	bf00      	nop
 8003154:	08006efb 	.word	0x08006efb

08003158 <__cvt>:
 8003158:	e92d 47ff 	stmdb	sp!, {r0, r1, r2, r3, r4, r5, r6, r7, r8, r9, sl, lr}
 800315c:	ec57 6b10 	vmov	r6, r7, d0
 8003160:	2f00      	cmp	r7, #0
 8003162:	460c      	mov	r4, r1
 8003164:	4619      	mov	r1, r3
 8003166:	463b      	mov	r3, r7
 8003168:	bfbb      	ittet	lt
 800316a:	f107 4300 	addlt.w	r3, r7, #2147483648	@ 0x80000000
 800316e:	461f      	movlt	r7, r3
 8003170:	2300      	movge	r3, #0
 8003172:	232d      	movlt	r3, #45	@ 0x2d
 8003174:	700b      	strb	r3, [r1, #0]
 8003176:	9b0d      	ldr	r3, [sp, #52]	@ 0x34
 8003178:	f8dd a030 	ldr.w	sl, [sp, #48]	@ 0x30
 800317c:	4691      	mov	r9, r2
 800317e:	f023 0820 	bic.w	r8, r3, #32
 8003182:	bfbc      	itt	lt
 8003184:	4632      	movlt	r2, r6
 8003186:	4616      	movlt	r6, r2
 8003188:	f1b8 0f46 	cmp.w	r8, #70	@ 0x46
 800318c:	d005      	beq.n	800319a <__cvt+0x42>
 800318e:	f1b8 0f45 	cmp.w	r8, #69	@ 0x45
 8003192:	d100      	bne.n	8003196 <__cvt+0x3e>
 8003194:	3401      	adds	r4, #1
 8003196:	2102      	movs	r1, #2
 8003198:	e000      	b.n	800319c <__cvt+0x44>
 800319a:	2103      	movs	r1, #3
 800319c:	ab03      	add	r3, sp, #12
 800319e:	9301      	str	r3, [sp, #4]
 80031a0:	ab02      	add	r3, sp, #8
 80031a2:	9300      	str	r3, [sp, #0]
 80031a4:	ec47 6b10 	vmov	d0, r6, r7
 80031a8:	4653      	mov	r3, sl
 80031aa:	4622      	mov	r2, r4
 80031ac:	f000 fecc 	bl	8003f48 <_dtoa_r>
 80031b0:	f1b8 0f47 	cmp.w	r8, #71	@ 0x47
 80031b4:	4605      	mov	r5, r0
 80031b6:	d119      	bne.n	80031ec <__cvt+0x94>
 80031b8:	f019 0f01 	tst.w	r9, #1
 80031bc:	d00e      	beq.n	80031dc <__cvt+0x84>
 80031be:	eb00 0904 	add.w	r9, r0, r4
 80031c2:	2200      	movs	r2, #0
 80031c4:	2300      	movs	r3, #0
 80031c6:	4630      	mov	r0, r6
 80031c8:	4639      	mov	r1, r7
 80031ca:	f7fd fcad 	bl	8000b28 <__aeabi_dcmpeq>
 80031ce:	b108      	cbz	r0, 80031d4 <__cvt+0x7c>
 80031d0:	f8cd 900c 	str.w	r9, [sp, #12]
 80031d4:	2230      	movs	r2, #48	@ 0x30
 80031d6:	9b03      	ldr	r3, [sp, #12]
 80031d8:	454b      	cmp	r3, r9
 80031da:	d31e      	bcc.n	800321a <__cvt+0xc2>
 80031dc:	9b03      	ldr	r3, [sp, #12]
 80031de:	9a0e      	ldr	r2, [sp, #56]	@ 0x38
 80031e0:	1b5b      	subs	r3, r3, r5
 80031e2:	4628      	mov	r0, r5
 80031e4:	6013      	str	r3, [r2, #0]
 80031e6:	b004      	add	sp, #16
 80031e8:	e8bd 87f0 	ldmia.w	sp!, {r4, r5, r6, r7, r8, r9, sl, pc}
 80031ec:	f1b8 0f46 	cmp.w	r8, #70	@ 0x46
 80031f0:	eb00 0904 	add.w	r9, r0, r4
 80031f4:	d1e5      	bne.n	80031c2 <__cvt+0x6a>
 80031f6:	7803      	ldrb	r3, [r0, #0]
 80031f8:	2b30      	cmp	r3, #48	@ 0x30
 80031fa:	d10a      	bne.n	8003212 <__cvt+0xba>
 80031fc:	2200      	movs	r2, #0
 80031fe:	2300      	movs	r3, #0
 8003200:	4630      	mov	r0, r6
 8003202:	4639      	mov	r1, r7
 8003204:	f7fd fc90 	bl	8000b28 <__aeabi_dcmpeq>
 8003208:	b918      	cbnz	r0, 8003212 <__cvt+0xba>
 800320a:	f1c4 0401 	rsb	r4, r4, #1
 800320e:	f8ca 4000 	str.w	r4, [sl]
 8003212:	f8da 3000 	ldr.w	r3, [sl]
 8003216:	4499      	add	r9, r3
 8003218:	e7d3      	b.n	80031c2 <__cvt+0x6a>
 800321a:	1c59      	adds	r1, r3, #1
 800321c:	9103      	str	r1, [sp, #12]
 800321e:	701a      	strb	r2, [r3, #0]
 8003220:	e7d9      	b.n	80031d6 <__cvt+0x7e>

08003222 <__exponent>:
 8003222:	b5f7      	push	{r0, r1, r2, r4, r5, r6, r7, lr}
 8003224:	2900      	cmp	r1, #0
 8003226:	bfba      	itte	lt
 8003228:	4249      	neglt	r1, r1
 800322a:	232d      	movlt	r3, #45	@ 0x2d
 800322c:	232b      	movge	r3, #43	@ 0x2b
 800322e:	2909      	cmp	r1, #9
 8003230:	7002      	strb	r2, [r0, #0]
 8003232:	7043      	strb	r3, [r0, #1]
 8003234:	dd29      	ble.n	800328a <__exponent+0x68>
 8003236:	f10d 0307 	add.w	r3, sp, #7
 800323a:	461d      	mov	r5, r3
 800323c:	270a      	movs	r7, #10
 800323e:	461a      	mov	r2, r3
 8003240:	fbb1 f6f7 	udiv	r6, r1, r7
 8003244:	fb07 1416 	mls	r4, r7, r6, r1
 8003248:	3430      	adds	r4, #48	@ 0x30
 800324a:	f802 4c01 	strb.w	r4, [r2, #-1]
 800324e:	460c      	mov	r4, r1
 8003250:	2c63      	cmp	r4, #99	@ 0x63
 8003252:	f103 33ff 	add.w	r3, r3, #4294967295
 8003256:	4631      	mov	r1, r6
 8003258:	dcf1      	bgt.n	800323e <__exponent+0x1c>
 800325a:	3130      	adds	r1, #48	@ 0x30
 800325c:	1e94      	subs	r4, r2, #2
 800325e:	f803 1c01 	strb.w	r1, [r3, #-1]
 8003262:	1c41      	adds	r1, r0, #1
 8003264:	4623      	mov	r3, r4
 8003266:	42ab      	cmp	r3, r5
 8003268:	d30a      	bcc.n	8003280 <__exponent+0x5e>
 800326a:	f10d 0309 	add.w	r3, sp, #9
 800326e:	1a9b      	subs	r3, r3, r2
 8003270:	42ac      	cmp	r4, r5
 8003272:	bf88      	it	hi
 8003274:	2300      	movhi	r3, #0
 8003276:	3302      	adds	r3, #2
 8003278:	4403      	add	r3, r0
 800327a:	1a18      	subs	r0, r3, r0
 800327c:	b003      	add	sp, #12
 800327e:	bdf0      	pop	{r4, r5, r6, r7, pc}
 8003280:	f813 6b01 	ldrb.w	r6, [r3], #1
 8003284:	f801 6f01 	strb.w	r6, [r1, #1]!
 8003288:	e7ed      	b.n	8003266 <__exponent+0x44>
 800328a:	2330      	movs	r3, #48	@ 0x30
 800328c:	3130      	adds	r1, #48	@ 0x30
 800328e:	7083      	strb	r3, [r0, #2]
 8003290:	70c1      	strb	r1, [r0, #3]
 8003292:	1d03      	adds	r3, r0, #4
 8003294:	e7f1      	b.n	800327a <__exponent+0x58>
	...

08003298 <_printf_float>:
 8003298:	e92d 4ff0 	stmdb	sp!, {r4, r5, r6, r7, r8, r9, sl, fp, lr}
 800329c:	b08d      	sub	sp, #52	@ 0x34
 800329e:	460c      	mov	r4, r1
 80032a0:	f8dd 8058 	ldr.w	r8, [sp, #88]	@ 0x58
 80032a4:	4616      	mov	r6, r2
 80032a6:	461f      	mov	r7, r3
 80032a8:	4605      	mov	r5, r0
 80032aa:	f000 fd45 	bl	8003d38 <_localeconv_r>
 80032ae:	6803      	ldr	r3, [r0, #0]
 80032b0:	9304      	str	r3, [sp, #16]
 80032b2:	4618      	mov	r0, r3
 80032b4:	f7fd f80c 	bl	80002d0 <strlen>
 80032b8:	2300      	movs	r3, #0
 80032ba:	930a      	str	r3, [sp, #40]	@ 0x28
 80032bc:	f8d8 3000 	ldr.w	r3, [r8]
 80032c0:	9005      	str	r0, [sp, #20]
 80032c2:	3307      	adds	r3, #7
 80032c4:	f023 0307 	bic.w	r3, r3, #7
 80032c8:	f103 0208 	add.w	r2, r3, #8
 80032cc:	f894 a018 	ldrb.w	sl, [r4, #24]
 80032d0:	f8d4 b000 	ldr.w	fp, [r4]
 80032d4:	f8c8 2000 	str.w	r2, [r8]
 80032d8:	e9d3 8900 	ldrd	r8, r9, [r3]
 80032dc:	f029 4300 	bic.w	r3, r9, #2147483648	@ 0x80000000
 80032e0:	9307      	str	r3, [sp, #28]
 80032e2:	f8cd 8018 	str.w	r8, [sp, #24]
 80032e6:	e9c4 8912 	strd	r8, r9, [r4, #72]	@ 0x48
 80032ea:	e9dd 0106 	ldrd	r0, r1, [sp, #24]
 80032ee:	4b9c      	ldr	r3, [pc, #624]	@ (8003560 <_printf_float+0x2c8>)
 80032f0:	f04f 32ff 	mov.w	r2, #4294967295
 80032f4:	f7fd fc4a 	bl	8000b8c <__aeabi_dcmpun>
 80032f8:	bb70      	cbnz	r0, 8003358 <_printf_float+0xc0>
 80032fa:	e9dd 0106 	ldrd	r0, r1, [sp, #24]
 80032fe:	4b98      	ldr	r3, [pc, #608]	@ (8003560 <_printf_float+0x2c8>)
 8003300:	f04f 32ff 	mov.w	r2, #4294967295
 8003304:	f7fd fc24 	bl	8000b50 <__aeabi_dcmple>
 8003308:	bb30      	cbnz	r0, 8003358 <_printf_float+0xc0>
 800330a:	2200      	movs	r2, #0
 800330c:	2300      	movs	r3, #0
 800330e:	4640      	mov	r0, r8
 8003310:	4649      	mov	r1, r9
 8003312:	f7fd fc13 	bl	8000b3c <__aeabi_dcmplt>
 8003316:	b110      	cbz	r0, 800331e <_printf_float+0x86>
 8003318:	232d      	movs	r3, #45	@ 0x2d
 800331a:	f884 3043 	strb.w	r3, [r4, #67]	@ 0x43
 800331e:	4a91      	ldr	r2, [pc, #580]	@ (8003564 <_printf_float+0x2cc>)
 8003320:	4b91      	ldr	r3, [pc, #580]	@ (8003568 <_printf_float+0x2d0>)
 8003322:	f1ba 0f47 	cmp.w	sl, #71	@ 0x47
 8003326:	bf94      	ite	ls
 8003328:	4690      	movls	r8, r2
 800332a:	4698      	movhi	r8, r3
 800332c:	2303      	movs	r3, #3
 800332e:	6123      	str	r3, [r4, #16]
 8003330:	f02b 0304 	bic.w	r3, fp, #4
 8003334:	6023      	str	r3, [r4, #0]
 8003336:	f04f 0900 	mov.w	r9, #0
 800333a:	9700      	str	r7, [sp, #0]
 800333c:	4633      	mov	r3, r6
 800333e:	aa0b      	add	r2, sp, #44	@ 0x2c
 8003340:	4621      	mov	r1, r4
 8003342:	4628      	mov	r0, r5
 8003344:	f000 f9d2 	bl	80036ec <_printf_common>
 8003348:	3001      	adds	r0, #1
 800334a:	f040 808d 	bne.w	8003468 <_printf_float+0x1d0>
 800334e:	f04f 30ff 	mov.w	r0, #4294967295
 8003352:	b00d      	add	sp, #52	@ 0x34
 8003354:	e8bd 8ff0 	ldmia.w	sp!, {r4, r5, r6, r7, r8, r9, sl, fp, pc}
 8003358:	4642      	mov	r2, r8
 800335a:	464b      	mov	r3, r9
 800335c:	4640      	mov	r0, r8
 800335e:	4649      	mov	r1, r9
 8003360:	f7fd fc14 	bl	8000b8c <__aeabi_dcmpun>
 8003364:	b140      	cbz	r0, 8003378 <_printf_float+0xe0>
 8003366:	464b      	mov	r3, r9
 8003368:	2b00      	cmp	r3, #0
 800336a:	bfbc      	itt	lt
 800336c:	232d      	movlt	r3, #45	@ 0x2d
 800336e:	f884 3043 	strblt.w	r3, [r4, #67]	@ 0x43
 8003372:	4a7e      	ldr	r2, [pc, #504]	@ (800356c <_printf_float+0x2d4>)
 8003374:	4b7e      	ldr	r3, [pc, #504]	@ (8003570 <_printf_float+0x2d8>)
 8003376:	e7d4      	b.n	8003322 <_printf_float+0x8a>
 8003378:	6863      	ldr	r3, [r4, #4]
 800337a:	f00a 02df 	and.w	r2, sl, #223	@ 0xdf
 800337e:	9206      	str	r2, [sp, #24]
 8003380:	1c5a      	adds	r2, r3, #1
 8003382:	d13b      	bne.n	80033fc <_printf_float+0x164>
 8003384:	2306      	movs	r3, #6
 8003386:	6063      	str	r3, [r4, #4]
 8003388:	f44b 6280 	orr.w	r2, fp, #1024	@ 0x400
 800338c:	2300      	movs	r3, #0
 800338e:	6022      	str	r2, [r4, #0]
 8003390:	9303      	str	r3, [sp, #12]
 8003392:	ab0a      	add	r3, sp, #40	@ 0x28
 8003394:	e9cd a301 	strd	sl, r3, [sp, #4]
 8003398:	ab09      	add	r3, sp, #36	@ 0x24
 800339a:	9300      	str	r3, [sp, #0]
 800339c:	6861      	ldr	r1, [r4, #4]
 800339e:	ec49 8b10 	vmov	d0, r8, r9
 80033a2:	f10d 0323 	add.w	r3, sp, #35	@ 0x23
 80033a6:	4628      	mov	r0, r5
 80033a8:	f7ff fed6 	bl	8003158 <__cvt>
 80033ac:	9b06      	ldr	r3, [sp, #24]
 80033ae:	9909      	ldr	r1, [sp, #36]	@ 0x24
 80033b0:	2b47      	cmp	r3, #71	@ 0x47
 80033b2:	4680      	mov	r8, r0
 80033b4:	d129      	bne.n	800340a <_printf_float+0x172>
 80033b6:	1cc8      	adds	r0, r1, #3
 80033b8:	db02      	blt.n	80033c0 <_printf_float+0x128>
 80033ba:	6863      	ldr	r3, [r4, #4]
 80033bc:	4299      	cmp	r1, r3
 80033be:	dd41      	ble.n	8003444 <_printf_float+0x1ac>
 80033c0:	f1aa 0a02 	sub.w	sl, sl, #2
 80033c4:	fa5f fa8a 	uxtb.w	sl, sl
 80033c8:	3901      	subs	r1, #1
 80033ca:	4652      	mov	r2, sl
 80033cc:	f104 0050 	add.w	r0, r4, #80	@ 0x50
 80033d0:	9109      	str	r1, [sp, #36]	@ 0x24
 80033d2:	f7ff ff26 	bl	8003222 <__exponent>
 80033d6:	9a0a      	ldr	r2, [sp, #40]	@ 0x28
 80033d8:	1813      	adds	r3, r2, r0
 80033da:	2a01      	cmp	r2, #1
 80033dc:	4681      	mov	r9, r0
 80033de:	6123      	str	r3, [r4, #16]
 80033e0:	dc02      	bgt.n	80033e8 <_printf_float+0x150>
 80033e2:	6822      	ldr	r2, [r4, #0]
 80033e4:	07d2      	lsls	r2, r2, #31
 80033e6:	d501      	bpl.n	80033ec <_printf_float+0x154>
 80033e8:	3301      	adds	r3, #1
 80033ea:	6123      	str	r3, [r4, #16]
 80033ec:	f89d 3023 	ldrb.w	r3, [sp, #35]	@ 0x23
 80033f0:	2b00      	cmp	r3, #0
 80033f2:	d0a2      	beq.n	800333a <_printf_float+0xa2>
 80033f4:	232d      	movs	r3, #45	@ 0x2d
 80033f6:	f884 3043 	strb.w	r3, [r4, #67]	@ 0x43
 80033fa:	e79e      	b.n	800333a <_printf_float+0xa2>
 80033fc:	9a06      	ldr	r2, [sp, #24]
 80033fe:	2a47      	cmp	r2, #71	@ 0x47
 8003400:	d1c2      	bne.n	8003388 <_printf_float+0xf0>
 8003402:	2b00      	cmp	r3, #0
 8003404:	d1c0      	bne.n	8003388 <_printf_float+0xf0>
 8003406:	2301      	movs	r3, #1
 8003408:	e7bd      	b.n	8003386 <_printf_float+0xee>
 800340a:	f1ba 0f65 	cmp.w	sl, #101	@ 0x65
 800340e:	d9db      	bls.n	80033c8 <_printf_float+0x130>
 8003410:	f1ba 0f66 	cmp.w	sl, #102	@ 0x66
 8003414:	d118      	bne.n	8003448 <_printf_float+0x1b0>
 8003416:	2900      	cmp	r1, #0
 8003418:	6863      	ldr	r3, [r4, #4]
 800341a:	dd0b      	ble.n	8003434 <_printf_float+0x19c>
 800341c:	6121      	str	r1, [r4, #16]
 800341e:	b913      	cbnz	r3, 8003426 <_printf_float+0x18e>
 8003420:	6822      	ldr	r2, [r4, #0]
 8003422:	07d0      	lsls	r0, r2, #31
 8003424:	d502      	bpl.n	800342c <_printf_float+0x194>
 8003426:	3301      	adds	r3, #1
 8003428:	440b      	add	r3, r1
 800342a:	6123      	str	r3, [r4, #16]
 800342c:	65a1      	str	r1, [r4, #88]	@ 0x58
 800342e:	f04f 0900 	mov.w	r9, #0
 8003432:	e7db      	b.n	80033ec <_printf_float+0x154>
 8003434:	b913      	cbnz	r3, 800343c <_printf_float+0x1a4>
 8003436:	6822      	ldr	r2, [r4, #0]
 8003438:	07d2      	lsls	r2, r2, #31
 800343a:	d501      	bpl.n	8003440 <_printf_float+0x1a8>
 800343c:	3302      	adds	r3, #2
 800343e:	e7f4      	b.n	800342a <_printf_float+0x192>
 8003440:	2301      	movs	r3, #1
 8003442:	e7f2      	b.n	800342a <_printf_float+0x192>
 8003444:	f04f 0a67 	mov.w	sl, #103	@ 0x67
 8003448:	9b0a      	ldr	r3, [sp, #40]	@ 0x28
 800344a:	4299      	cmp	r1, r3
 800344c:	db05      	blt.n	800345a <_printf_float+0x1c2>
 800344e:	6823      	ldr	r3, [r4, #0]
 8003450:	6121      	str	r1, [r4, #16]
 8003452:	07d8      	lsls	r0, r3, #31
 8003454:	d5ea      	bpl.n	800342c <_printf_float+0x194>
 8003456:	1c4b      	adds	r3, r1, #1
 8003458:	e7e7      	b.n	800342a <_printf_float+0x192>
 800345a:	2900      	cmp	r1, #0
 800345c:	bfd4      	ite	le
 800345e:	f1c1 0202 	rsble	r2, r1, #2
 8003462:	2201      	movgt	r2, #1
 8003464:	4413      	add	r3, r2
 8003466:	e7e0      	b.n	800342a <_printf_float+0x192>
 8003468:	6823      	ldr	r3, [r4, #0]
 800346a:	055a      	lsls	r2, r3, #21
 800346c:	d407      	bmi.n	800347e <_printf_float+0x1e6>
 800346e:	6923      	ldr	r3, [r4, #16]
 8003470:	4642      	mov	r2, r8
 8003472:	4631      	mov	r1, r6
 8003474:	4628      	mov	r0, r5
 8003476:	47b8      	blx	r7
 8003478:	3001      	adds	r0, #1
 800347a:	d12b      	bne.n	80034d4 <_printf_float+0x23c>
 800347c:	e767      	b.n	800334e <_printf_float+0xb6>
 800347e:	f1ba 0f65 	cmp.w	sl, #101	@ 0x65
 8003482:	f240 80dd 	bls.w	8003640 <_printf_float+0x3a8>
 8003486:	e9d4 0112 	ldrd	r0, r1, [r4, #72]	@ 0x48
 800348a:	2200      	movs	r2, #0
 800348c:	2300      	movs	r3, #0
 800348e:	f7fd fb4b 	bl	8000b28 <__aeabi_dcmpeq>
 8003492:	2800      	cmp	r0, #0
 8003494:	d033      	beq.n	80034fe <_printf_float+0x266>
 8003496:	4a37      	ldr	r2, [pc, #220]	@ (8003574 <_printf_float+0x2dc>)
 8003498:	2301      	movs	r3, #1
 800349a:	4631      	mov	r1, r6
 800349c:	4628      	mov	r0, r5
 800349e:	47b8      	blx	r7
 80034a0:	3001      	adds	r0, #1
 80034a2:	f43f af54 	beq.w	800334e <_printf_float+0xb6>
 80034a6:	e9dd 3809 	ldrd	r3, r8, [sp, #36]	@ 0x24
 80034aa:	4543      	cmp	r3, r8
 80034ac:	db02      	blt.n	80034b4 <_printf_float+0x21c>
 80034ae:	6823      	ldr	r3, [r4, #0]
 80034b0:	07d8      	lsls	r0, r3, #31
 80034b2:	d50f      	bpl.n	80034d4 <_printf_float+0x23c>
 80034b4:	e9dd 2304 	ldrd	r2, r3, [sp, #16]
 80034b8:	4631      	mov	r1, r6
 80034ba:	4628      	mov	r0, r5
 80034bc:	47b8      	blx	r7
 80034be:	3001      	adds	r0, #1
 80034c0:	f43f af45 	beq.w	800334e <_printf_float+0xb6>
 80034c4:	f04f 0900 	mov.w	r9, #0
 80034c8:	f108 38ff 	add.w	r8, r8, #4294967295
 80034cc:	f104 0a1a 	add.w	sl, r4, #26
 80034d0:	45c8      	cmp	r8, r9
 80034d2:	dc09      	bgt.n	80034e8 <_printf_float+0x250>
 80034d4:	6823      	ldr	r3, [r4, #0]
 80034d6:	079b      	lsls	r3, r3, #30
 80034d8:	f100 8103 	bmi.w	80036e2 <_printf_float+0x44a>
 80034dc:	68e0      	ldr	r0, [r4, #12]
 80034de:	9b0b      	ldr	r3, [sp, #44]	@ 0x2c
 80034e0:	4298      	cmp	r0, r3
 80034e2:	bfb8      	it	lt
 80034e4:	4618      	movlt	r0, r3
 80034e6:	e734      	b.n	8003352 <_printf_float+0xba>
 80034e8:	2301      	movs	r3, #1
 80034ea:	4652      	mov	r2, sl
 80034ec:	4631      	mov	r1, r6
 80034ee:	4628      	mov	r0, r5
 80034f0:	47b8      	blx	r7
 80034f2:	3001      	adds	r0, #1
 80034f4:	f43f af2b 	beq.w	800334e <_printf_float+0xb6>
 80034f8:	f109 0901 	add.w	r9, r9, #1
 80034fc:	e7e8      	b.n	80034d0 <_printf_float+0x238>
 80034fe:	9b09      	ldr	r3, [sp, #36]	@ 0x24
 8003500:	2b00      	cmp	r3, #0
 8003502:	dc39      	bgt.n	8003578 <_printf_float+0x2e0>
 8003504:	4a1b      	ldr	r2, [pc, #108]	@ (8003574 <_printf_float+0x2dc>)
 8003506:	2301      	movs	r3, #1
 8003508:	4631      	mov	r1, r6
 800350a:	4628      	mov	r0, r5
 800350c:	47b8      	blx	r7
 800350e:	3001      	adds	r0, #1
 8003510:	f43f af1d 	beq.w	800334e <_printf_float+0xb6>
 8003514:	e9dd 3909 	ldrd	r3, r9, [sp, #36]	@ 0x24
 8003518:	ea59 0303 	orrs.w	r3, r9, r3
 800351c:	d102      	bne.n	8003524 <_printf_float+0x28c>
 800351e:	6823      	ldr	r3, [r4, #0]
 8003520:	07d9      	lsls	r1, r3, #31
 8003522:	d5d7      	bpl.n	80034d4 <_printf_float+0x23c>
 8003524:	e9dd 2304 	ldrd	r2, r3, [sp, #16]
 8003528:	4631      	mov	r1, r6
 800352a:	4628      	mov	r0, r5
 800352c:	47b8      	blx	r7
 800352e:	3001      	adds	r0, #1
 8003530:	f43f af0d 	beq.w	800334e <_printf_float+0xb6>
 8003534:	f04f 0a00 	mov.w	sl, #0
 8003538:	f104 0b1a 	add.w	fp, r4, #26
 800353c:	9b09      	ldr	r3, [sp, #36]	@ 0x24
 800353e:	425b      	negs	r3, r3
 8003540:	4553      	cmp	r3, sl
 8003542:	dc01      	bgt.n	8003548 <_printf_float+0x2b0>
 8003544:	464b      	mov	r3, r9
 8003546:	e793      	b.n	8003470 <_printf_float+0x1d8>
 8003548:	2301      	movs	r3, #1
 800354a:	465a      	mov	r2, fp
 800354c:	4631      	mov	r1, r6
 800354e:	4628      	mov	r0, r5
 8003550:	47b8      	blx	r7
 8003552:	3001      	adds	r0, #1
 8003554:	f43f aefb 	beq.w	800334e <_printf_float+0xb6>
 8003558:	f10a 0a01 	add.w	sl, sl, #1
 800355c:	e7ee      	b.n	800353c <_printf_float+0x2a4>
 800355e:	bf00      	nop
 8003560:	7fefffff 	.word	0x7fefffff
 8003564:	08007021 	.word	0x08007021
 8003568:	08007025 	.word	0x08007025
 800356c:	08007029 	.word	0x08007029
 8003570:	0800702d 	.word	0x0800702d
 8003574:	08007031 	.word	0x08007031
 8003578:	6da3      	ldr	r3, [r4, #88]	@ 0x58
 800357a:	f8dd a028 	ldr.w	sl, [sp, #40]	@ 0x28
 800357e:	4553      	cmp	r3, sl
 8003580:	bfa8      	it	ge
 8003582:	4653      	movge	r3, sl
 8003584:	2b00      	cmp	r3, #0
 8003586:	4699      	mov	r9, r3
 8003588:	dc36      	bgt.n	80035f8 <_printf_float+0x360>
 800358a:	f04f 0b00 	mov.w	fp, #0
 800358e:	ea29 79e9 	bic.w	r9, r9, r9, asr #31
 8003592:	f104 021a 	add.w	r2, r4, #26
 8003596:	6da3      	ldr	r3, [r4, #88]	@ 0x58
 8003598:	9306      	str	r3, [sp, #24]
 800359a:	eba3 0309 	sub.w	r3, r3, r9
 800359e:	455b      	cmp	r3, fp
 80035a0:	dc31      	bgt.n	8003606 <_printf_float+0x36e>
 80035a2:	9b09      	ldr	r3, [sp, #36]	@ 0x24
 80035a4:	459a      	cmp	sl, r3
 80035a6:	dc3a      	bgt.n	800361e <_printf_float+0x386>
 80035a8:	6823      	ldr	r3, [r4, #0]
 80035aa:	07da      	lsls	r2, r3, #31
 80035ac:	d437      	bmi.n	800361e <_printf_float+0x386>
 80035ae:	9b09      	ldr	r3, [sp, #36]	@ 0x24
 80035b0:	ebaa 0903 	sub.w	r9, sl, r3
 80035b4:	9b06      	ldr	r3, [sp, #24]
 80035b6:	ebaa 0303 	sub.w	r3, sl, r3
 80035ba:	4599      	cmp	r9, r3
 80035bc:	bfa8      	it	ge
 80035be:	4699      	movge	r9, r3
 80035c0:	f1b9 0f00 	cmp.w	r9, #0
 80035c4:	dc33      	bgt.n	800362e <_printf_float+0x396>
 80035c6:	f04f 0800 	mov.w	r8, #0
 80035ca:	ea29 79e9 	bic.w	r9, r9, r9, asr #31
 80035ce:	f104 0b1a 	add.w	fp, r4, #26
 80035d2:	9b09      	ldr	r3, [sp, #36]	@ 0x24
 80035d4:	ebaa 0303 	sub.w	r3, sl, r3
 80035d8:	eba3 0309 	sub.w	r3, r3, r9
 80035dc:	4543      	cmp	r3, r8
 80035de:	f77f af79 	ble.w	80034d4 <_printf_float+0x23c>
 80035e2:	2301      	movs	r3, #1
 80035e4:	465a      	mov	r2, fp
 80035e6:	4631      	mov	r1, r6
 80035e8:	4628      	mov	r0, r5
 80035ea:	47b8      	blx	r7
 80035ec:	3001      	adds	r0, #1
 80035ee:	f43f aeae 	beq.w	800334e <_printf_float+0xb6>
 80035f2:	f108 0801 	add.w	r8, r8, #1
 80035f6:	e7ec      	b.n	80035d2 <_printf_float+0x33a>
 80035f8:	4642      	mov	r2, r8
 80035fa:	4631      	mov	r1, r6
 80035fc:	4628      	mov	r0, r5
 80035fe:	47b8      	blx	r7
 8003600:	3001      	adds	r0, #1
 8003602:	d1c2      	bne.n	800358a <_printf_float+0x2f2>
 8003604:	e6a3      	b.n	800334e <_printf_float+0xb6>
 8003606:	2301      	movs	r3, #1
 8003608:	4631      	mov	r1, r6
 800360a:	4628      	mov	r0, r5
 800360c:	9206      	str	r2, [sp, #24]
 800360e:	47b8      	blx	r7
 8003610:	3001      	adds	r0, #1
 8003612:	f43f ae9c 	beq.w	800334e <_printf_float+0xb6>
 8003616:	9a06      	ldr	r2, [sp, #24]
 8003618:	f10b 0b01 	add.w	fp, fp, #1
 800361c:	e7bb      	b.n	8003596 <_printf_float+0x2fe>
 800361e:	e9dd 2304 	ldrd	r2, r3, [sp, #16]
 8003622:	4631      	mov	r1, r6
 8003624:	4628      	mov	r0, r5
 8003626:	47b8      	blx	r7
 8003628:	3001      	adds	r0, #1
 800362a:	d1c0      	bne.n	80035ae <_printf_float+0x316>
 800362c:	e68f      	b.n	800334e <_printf_float+0xb6>
 800362e:	9a06      	ldr	r2, [sp, #24]
 8003630:	464b      	mov	r3, r9
 8003632:	4442      	add	r2, r8
 8003634:	4631      	mov	r1, r6
 8003636:	4628      	mov	r0, r5
 8003638:	47b8      	blx	r7
 800363a:	3001      	adds	r0, #1
 800363c:	d1c3      	bne.n	80035c6 <_printf_float+0x32e>
 800363e:	e686      	b.n	800334e <_printf_float+0xb6>
 8003640:	f8dd a028 	ldr.w	sl, [sp, #40]	@ 0x28
 8003644:	f1ba 0f01 	cmp.w	sl, #1
 8003648:	dc01      	bgt.n	800364e <_printf_float+0x3b6>
 800364a:	07db      	lsls	r3, r3, #31
 800364c:	d536      	bpl.n	80036bc <_printf_float+0x424>
 800364e:	2301      	movs	r3, #1
 8003650:	4642      	mov	r2, r8
 8003652:	4631      	mov	r1, r6
 8003654:	4628      	mov	r0, r5
 8003656:	47b8      	blx	r7
 8003658:	3001      	adds	r0, #1
 800365a:	f43f ae78 	beq.w	800334e <_printf_float+0xb6>
 800365e:	e9dd 2304 	ldrd	r2, r3, [sp, #16]
 8003662:	4631      	mov	r1, r6
 8003664:	4628      	mov	r0, r5
 8003666:	47b8      	blx	r7
 8003668:	3001      	adds	r0, #1
 800366a:	f43f ae70 	beq.w	800334e <_printf_float+0xb6>
 800366e:	e9d4 0112 	ldrd	r0, r1, [r4, #72]	@ 0x48
 8003672:	2200      	movs	r2, #0
 8003674:	2300      	movs	r3, #0
 8003676:	f10a 3aff 	add.w	sl, sl, #4294967295
 800367a:	f7fd fa55 	bl	8000b28 <__aeabi_dcmpeq>
 800367e:	b9c0      	cbnz	r0, 80036b2 <_printf_float+0x41a>
 8003680:	4653      	mov	r3, sl
 8003682:	f108 0201 	add.w	r2, r8, #1
 8003686:	4631      	mov	r1, r6
 8003688:	4628      	mov	r0, r5
 800368a:	47b8      	blx	r7
 800368c:	3001      	adds	r0, #1
 800368e:	d10c      	bne.n	80036aa <_printf_float+0x412>
 8003690:	e65d      	b.n	800334e <_printf_float+0xb6>
 8003692:	2301      	movs	r3, #1
 8003694:	465a      	mov	r2, fp
 8003696:	4631      	mov	r1, r6
 8003698:	4628      	mov	r0, r5
 800369a:	47b8      	blx	r7
 800369c:	3001      	adds	r0, #1
 800369e:	f43f ae56 	beq.w	800334e <_printf_float+0xb6>
 80036a2:	f108 0801 	add.w	r8, r8, #1
 80036a6:	45d0      	cmp	r8, sl
 80036a8:	dbf3      	blt.n	8003692 <_printf_float+0x3fa>
 80036aa:	464b      	mov	r3, r9
 80036ac:	f104 0250 	add.w	r2, r4, #80	@ 0x50
 80036b0:	e6df      	b.n	8003472 <_printf_float+0x1da>
 80036b2:	f04f 0800 	mov.w	r8, #0
 80036b6:	f104 0b1a 	add.w	fp, r4, #26
 80036ba:	e7f4      	b.n	80036a6 <_printf_float+0x40e>
 80036bc:	2301      	movs	r3, #1
 80036be:	4642      	mov	r2, r8
 80036c0:	e7e1      	b.n	8003686 <_printf_float+0x3ee>
 80036c2:	2301      	movs	r3, #1
 80036c4:	464a      	mov	r2, r9
 80036c6:	4631      	mov	r1, r6
 80036c8:	4628      	mov	r0, r5
 80036ca:	47b8      	blx	r7
 80036cc:	3001      	adds	r0, #1
 80036ce:	f43f ae3e 	beq.w	800334e <_printf_float+0xb6>
 80036d2:	f108 0801 	add.w	r8, r8, #1
 80036d6:	68e3      	ldr	r3, [r4, #12]
 80036d8:	990b      	ldr	r1, [sp, #44]	@ 0x2c
 80036da:	1a5b      	subs	r3, r3, r1
 80036dc:	4543      	cmp	r3, r8
 80036de:	dcf0      	bgt.n	80036c2 <_printf_float+0x42a>
 80036e0:	e6fc      	b.n	80034dc <_printf_float+0x244>
 80036e2:	f04f 0800 	mov.w	r8, #0
 80036e6:	f104 0919 	add.w	r9, r4, #25
 80036ea:	e7f4      	b.n	80036d6 <_printf_float+0x43e>

080036ec <_printf_common>:
 80036ec:	e92d 47f0 	stmdb	sp!, {r4, r5, r6, r7, r8, r9, sl, lr}
 80036f0:	4616      	mov	r6, r2
 80036f2:	4698      	mov	r8, r3
 80036f4:	688a      	ldr	r2, [r1, #8]
 80036f6:	690b      	ldr	r3, [r1, #16]
 80036f8:	f8dd 9020 	ldr.w	r9, [sp, #32]
 80036fc:	4293      	cmp	r3, r2
 80036fe:	bfb8      	it	lt
 8003700:	4613      	movlt	r3, r2
 8003702:	6033      	str	r3, [r6, #0]
 8003704:	f891 2043 	ldrb.w	r2, [r1, #67]	@ 0x43
 8003708:	4607      	mov	r7, r0
 800370a:	460c      	mov	r4, r1
 800370c:	b10a      	cbz	r2, 8003712 <_printf_common+0x26>
 800370e:	3301      	adds	r3, #1
 8003710:	6033      	str	r3, [r6, #0]
 8003712:	6823      	ldr	r3, [r4, #0]
 8003714:	0699      	lsls	r1, r3, #26
 8003716:	bf42      	ittt	mi
 8003718:	6833      	ldrmi	r3, [r6, #0]
 800371a:	3302      	addmi	r3, #2
 800371c:	6033      	strmi	r3, [r6, #0]
 800371e:	6825      	ldr	r5, [r4, #0]
 8003720:	f015 0506 	ands.w	r5, r5, #6
 8003724:	d106      	bne.n	8003734 <_printf_common+0x48>
 8003726:	f104 0a19 	add.w	sl, r4, #25
 800372a:	68e3      	ldr	r3, [r4, #12]
 800372c:	6832      	ldr	r2, [r6, #0]
 800372e:	1a9b      	subs	r3, r3, r2
 8003730:	42ab      	cmp	r3, r5
 8003732:	dc26      	bgt.n	8003782 <_printf_common+0x96>
 8003734:	f894 3043 	ldrb.w	r3, [r4, #67]	@ 0x43
 8003738:	6822      	ldr	r2, [r4, #0]
 800373a:	3b00      	subs	r3, #0
 800373c:	bf18      	it	ne
 800373e:	2301      	movne	r3, #1
 8003740:	0692      	lsls	r2, r2, #26
 8003742:	d42b      	bmi.n	800379c <_printf_common+0xb0>
 8003744:	f104 0243 	add.w	r2, r4, #67	@ 0x43
 8003748:	4641      	mov	r1, r8
 800374a:	4638      	mov	r0, r7
 800374c:	47c8      	blx	r9
 800374e:	3001      	adds	r0, #1
 8003750:	d01e      	beq.n	8003790 <_printf_common+0xa4>
 8003752:	6823      	ldr	r3, [r4, #0]
 8003754:	6922      	ldr	r2, [r4, #16]
 8003756:	f003 0306 	and.w	r3, r3, #6
 800375a:	2b04      	cmp	r3, #4
 800375c:	bf02      	ittt	eq
 800375e:	68e5      	ldreq	r5, [r4, #12]
 8003760:	6833      	ldreq	r3, [r6, #0]
 8003762:	1aed      	subeq	r5, r5, r3
 8003764:	68a3      	ldr	r3, [r4, #8]
 8003766:	bf0c      	ite	eq
 8003768:	ea25 75e5 	biceq.w	r5, r5, r5, asr #31
 800376c:	2500      	movne	r5, #0
 800376e:	4293      	cmp	r3, r2
 8003770:	bfc4      	itt	gt
 8003772:	1a9b      	subgt	r3, r3, r2
 8003774:	18ed      	addgt	r5, r5, r3
 8003776:	2600      	movs	r6, #0
 8003778:	341a      	adds	r4, #26
 800377a:	42b5      	cmp	r5, r6
 800377c:	d11a      	bne.n	80037b4 <_printf_common+0xc8>
 800377e:	2000      	movs	r0, #0
 8003780:	e008      	b.n	8003794 <_printf_common+0xa8>
 8003782:	2301      	movs	r3, #1
 8003784:	4652      	mov	r2, sl
 8003786:	4641      	mov	r1, r8
 8003788:	4638      	mov	r0, r7
 800378a:	47c8      	blx	r9
 800378c:	3001      	adds	r0, #1
 800378e:	d103      	bne.n	8003798 <_printf_common+0xac>
 8003790:	f04f 30ff 	mov.w	r0, #4294967295
 8003794:	e8bd 87f0 	ldmia.w	sp!, {r4, r5, r6, r7, r8, r9, sl, pc}
 8003798:	3501      	adds	r5, #1
 800379a:	e7c6      	b.n	800372a <_printf_common+0x3e>
 800379c:	18e1      	adds	r1, r4, r3
 800379e:	1c5a      	adds	r2, r3, #1
 80037a0:	2030      	movs	r0, #48	@ 0x30
 80037a2:	f881 0043 	strb.w	r0, [r1, #67]	@ 0x43
 80037a6:	4422      	add	r2, r4
 80037a8:	f894 1045 	ldrb.w	r1, [r4, #69]	@ 0x45
 80037ac:	f882 1043 	strb.w	r1, [r2, #67]	@ 0x43
 80037b0:	3302      	adds	r3, #2
 80037b2:	e7c7      	b.n	8003744 <_printf_common+0x58>
 80037b4:	2301      	movs	r3, #1
 80037b6:	4622      	mov	r2, r4
 80037b8:	4641      	mov	r1, r8
 80037ba:	4638      	mov	r0, r7
 80037bc:	47c8      	blx	r9
 80037be:	3001      	adds	r0, #1
 80037c0:	d0e6      	beq.n	8003790 <_printf_common+0xa4>
 80037c2:	3601      	adds	r6, #1
 80037c4:	e7d9      	b.n	800377a <_printf_common+0x8e>
	...

080037c8 <_printf_i>:
 80037c8:	e92d 47ff 	stmdb	sp!, {r0, r1, r2, r3, r4, r5, r6, r7, r8, r9, sl, lr}
 80037cc:	7e0f      	ldrb	r7, [r1, #24]
 80037ce:	9e0c      	ldr	r6, [sp, #48]	@ 0x30
 80037d0:	2f78      	cmp	r7, #120	@ 0x78
 80037d2:	4691      	mov	r9, r2
 80037d4:	4680      	mov	r8, r0
 80037d6:	460c      	mov	r4, r1
 80037d8:	469a      	mov	sl, r3
 80037da:	f101 0243 	add.w	r2, r1, #67	@ 0x43
 80037de:	d807      	bhi.n	80037f0 <_printf_i+0x28>
 80037e0:	2f62      	cmp	r7, #98	@ 0x62
 80037e2:	d80a      	bhi.n	80037fa <_printf_i+0x32>
 80037e4:	2f00      	cmp	r7, #0
 80037e6:	f000 80d2 	beq.w	800398e <_printf_i+0x1c6>
 80037ea:	2f58      	cmp	r7, #88	@ 0x58
 80037ec:	f000 80b9 	beq.w	8003962 <_printf_i+0x19a>
 80037f0:	f104 0642 	add.w	r6, r4, #66	@ 0x42
 80037f4:	f884 7042 	strb.w	r7, [r4, #66]	@ 0x42
 80037f8:	e03a      	b.n	8003870 <_printf_i+0xa8>
 80037fa:	f1a7 0363 	sub.w	r3, r7, #99	@ 0x63
 80037fe:	2b15      	cmp	r3, #21
 8003800:	d8f6      	bhi.n	80037f0 <_printf_i+0x28>
 8003802:	a101      	add	r1, pc, #4	@ (adr r1, 8003808 <_printf_i+0x40>)
 8003804:	f851 f023 	ldr.w	pc, [r1, r3, lsl #2]
 8003808:	08003861 	.word	0x08003861
 800380c:	08003875 	.word	0x08003875
 8003810:	080037f1 	.word	0x080037f1
 8003814:	080037f1 	.word	0x080037f1
 8003818:	080037f1 	.word	0x080037f1
 800381c:	080037f1 	.word	0x080037f1
 8003820:	08003875 	.word	0x08003875
 8003824:	080037f1 	.word	0x080037f1
 8003828:	080037f1 	.word	0x080037f1
 800382c:	080037f1 	.word	0x080037f1
 8003830:	080037f1 	.word	0x080037f1
 8003834:	08003975 	.word	0x08003975
 8003838:	0800389f 	.word	0x0800389f
 800383c:	0800392f 	.word	0x0800392f
 8003840:	080037f1 	.word	0x080037f1
 8003844:	080037f1 	.word	0x080037f1
 8003848:	08003997 	.word	0x08003997
 800384c:	080037f1 	.word	0x080037f1
 8003850:	0800389f 	.word	0x0800389f
 8003854:	080037f1 	.word	0x080037f1
 8003858:	080037f1 	.word	0x080037f1
 800385c:	08003937 	.word	0x08003937
 8003860:	6833      	ldr	r3, [r6, #0]
 8003862:	1d1a      	adds	r2, r3, #4
 8003864:	681b      	ldr	r3, [r3, #0]
 8003866:	6032      	str	r2, [r6, #0]
 8003868:	f104 0642 	add.w	r6, r4, #66	@ 0x42
 800386c:	f884 3042 	strb.w	r3, [r4, #66]	@ 0x42
 8003870:	2301      	movs	r3, #1
 8003872:	e09d      	b.n	80039b0 <_printf_i+0x1e8>
 8003874:	6833      	ldr	r3, [r6, #0]
 8003876:	6820      	ldr	r0, [r4, #0]
 8003878:	1d19      	adds	r1, r3, #4
 800387a:	6031      	str	r1, [r6, #0]
 800387c:	0606      	lsls	r6, r0, #24
 800387e:	d501      	bpl.n	8003884 <_printf_i+0xbc>
 8003880:	681d      	ldr	r5, [r3, #0]
 8003882:	e003      	b.n	800388c <_printf_i+0xc4>
 8003884:	0645      	lsls	r5, r0, #25
 8003886:	d5fb      	bpl.n	8003880 <_printf_i+0xb8>
 8003888:	f9b3 5000 	ldrsh.w	r5, [r3]
 800388c:	2d00      	cmp	r5, #0
 800388e:	da03      	bge.n	8003898 <_printf_i+0xd0>
 8003890:	232d      	movs	r3, #45	@ 0x2d
 8003892:	426d      	negs	r5, r5
 8003894:	f884 3043 	strb.w	r3, [r4, #67]	@ 0x43
 8003898:	4859      	ldr	r0, [pc, #356]	@ (8003a00 <_printf_i+0x238>)
 800389a:	230a      	movs	r3, #10
 800389c:	e011      	b.n	80038c2 <_printf_i+0xfa>
 800389e:	6821      	ldr	r1, [r4, #0]
 80038a0:	6833      	ldr	r3, [r6, #0]
 80038a2:	0608      	lsls	r0, r1, #24
 80038a4:	f853 5b04 	ldr.w	r5, [r3], #4
 80038a8:	d402      	bmi.n	80038b0 <_printf_i+0xe8>
 80038aa:	0649      	lsls	r1, r1, #25
 80038ac:	bf48      	it	mi
 80038ae:	b2ad      	uxthmi	r5, r5
 80038b0:	2f6f      	cmp	r7, #111	@ 0x6f
 80038b2:	4853      	ldr	r0, [pc, #332]	@ (8003a00 <_printf_i+0x238>)
 80038b4:	6033      	str	r3, [r6, #0]
 80038b6:	bf14      	ite	ne
 80038b8:	230a      	movne	r3, #10
 80038ba:	2308      	moveq	r3, #8
 80038bc:	2100      	movs	r1, #0
 80038be:	f884 1043 	strb.w	r1, [r4, #67]	@ 0x43
 80038c2:	6866      	ldr	r6, [r4, #4]
 80038c4:	60a6      	str	r6, [r4, #8]
 80038c6:	2e00      	cmp	r6, #0
 80038c8:	bfa2      	ittt	ge
 80038ca:	6821      	ldrge	r1, [r4, #0]
 80038cc:	f021 0104 	bicge.w	r1, r1, #4
 80038d0:	6021      	strge	r1, [r4, #0]
 80038d2:	b90d      	cbnz	r5, 80038d8 <_printf_i+0x110>
 80038d4:	2e00      	cmp	r6, #0
 80038d6:	d04b      	beq.n	8003970 <_printf_i+0x1a8>
 80038d8:	4616      	mov	r6, r2
 80038da:	fbb5 f1f3 	udiv	r1, r5, r3
 80038de:	fb03 5711 	mls	r7, r3, r1, r5
 80038e2:	5dc7      	ldrb	r7, [r0, r7]
 80038e4:	f806 7d01 	strb.w	r7, [r6, #-1]!
 80038e8:	462f      	mov	r7, r5
 80038ea:	42bb      	cmp	r3, r7
 80038ec:	460d      	mov	r5, r1
 80038ee:	d9f4      	bls.n	80038da <_printf_i+0x112>
 80038f0:	2b08      	cmp	r3, #8
 80038f2:	d10b      	bne.n	800390c <_printf_i+0x144>
 80038f4:	6823      	ldr	r3, [r4, #0]
 80038f6:	07df      	lsls	r7, r3, #31
 80038f8:	d508      	bpl.n	800390c <_printf_i+0x144>
 80038fa:	6923      	ldr	r3, [r4, #16]
 80038fc:	6861      	ldr	r1, [r4, #4]
 80038fe:	4299      	cmp	r1, r3
 8003900:	bfde      	ittt	le
 8003902:	2330      	movle	r3, #48	@ 0x30
 8003904:	f806 3c01 	strble.w	r3, [r6, #-1]
 8003908:	f106 36ff 	addle.w	r6, r6, #4294967295
 800390c:	1b92      	subs	r2, r2, r6
 800390e:	6122      	str	r2, [r4, #16]
 8003910:	f8cd a000 	str.w	sl, [sp]
 8003914:	464b      	mov	r3, r9
 8003916:	aa03      	add	r2, sp, #12
 8003918:	4621      	mov	r1, r4
 800391a:	4640      	mov	r0, r8
 800391c:	f7ff fee6 	bl	80036ec <_printf_common>
 8003920:	3001      	adds	r0, #1
 8003922:	d14a      	bne.n	80039ba <_printf_i+0x1f2>
 8003924:	f04f 30ff 	mov.w	r0, #4294967295
 8003928:	b004      	add	sp, #16
 800392a:	e8bd 87f0 	ldmia.w	sp!, {r4, r5, r6, r7, r8, r9, sl, pc}
 800392e:	6823      	ldr	r3, [r4, #0]
 8003930:	f043 0320 	orr.w	r3, r3, #32
 8003934:	6023      	str	r3, [r4, #0]
 8003936:	4833      	ldr	r0, [pc, #204]	@ (8003a04 <_printf_i+0x23c>)
 8003938:	2778      	movs	r7, #120	@ 0x78
 800393a:	f884 7045 	strb.w	r7, [r4, #69]	@ 0x45
 800393e:	6823      	ldr	r3, [r4, #0]
 8003940:	6831      	ldr	r1, [r6, #0]
 8003942:	061f      	lsls	r7, r3, #24
 8003944:	f851 5b04 	ldr.w	r5, [r1], #4
 8003948:	d402      	bmi.n	8003950 <_printf_i+0x188>
 800394a:	065f      	lsls	r7, r3, #25
 800394c:	bf48      	it	mi
 800394e:	b2ad      	uxthmi	r5, r5
 8003950:	6031      	str	r1, [r6, #0]
 8003952:	07d9      	lsls	r1, r3, #31
 8003954:	bf44      	itt	mi
 8003956:	f043 0320 	orrmi.w	r3, r3, #32
 800395a:	6023      	strmi	r3, [r4, #0]
 800395c:	b11d      	cbz	r5, 8003966 <_printf_i+0x19e>
 800395e:	2310      	movs	r3, #16
 8003960:	e7ac      	b.n	80038bc <_printf_i+0xf4>
 8003962:	4827      	ldr	r0, [pc, #156]	@ (8003a00 <_printf_i+0x238>)
 8003964:	e7e9      	b.n	800393a <_printf_i+0x172>
 8003966:	6823      	ldr	r3, [r4, #0]
 8003968:	f023 0320 	bic.w	r3, r3, #32
 800396c:	6023      	str	r3, [r4, #0]
 800396e:	e7f6      	b.n	800395e <_printf_i+0x196>
 8003970:	4616      	mov	r6, r2
 8003972:	e7bd      	b.n	80038f0 <_printf_i+0x128>
 8003974:	6833      	ldr	r3, [r6, #0]
 8003976:	6825      	ldr	r5, [r4, #0]
 8003978:	6961      	ldr	r1, [r4, #20]
 800397a:	1d18      	adds	r0, r3, #4
 800397c:	6030      	str	r0, [r6, #0]
 800397e:	062e      	lsls	r6, r5, #24
 8003980:	681b      	ldr	r3, [r3, #0]
 8003982:	d501      	bpl.n	8003988 <_printf_i+0x1c0>
 8003984:	6019      	str	r1, [r3, #0]
 8003986:	e002      	b.n	800398e <_printf_i+0x1c6>
 8003988:	0668      	lsls	r0, r5, #25
 800398a:	d5fb      	bpl.n	8003984 <_printf_i+0x1bc>
 800398c:	8019      	strh	r1, [r3, #0]
 800398e:	2300      	movs	r3, #0
 8003990:	6123      	str	r3, [r4, #16]
 8003992:	4616      	mov	r6, r2
 8003994:	e7bc      	b.n	8003910 <_printf_i+0x148>
 8003996:	6833      	ldr	r3, [r6, #0]
 8003998:	1d1a      	adds	r2, r3, #4
 800399a:	6032      	str	r2, [r6, #0]
 800399c:	681e      	ldr	r6, [r3, #0]
 800399e:	6862      	ldr	r2, [r4, #4]
 80039a0:	2100      	movs	r1, #0
 80039a2:	4630      	mov	r0, r6
 80039a4:	f7fc fc44 	bl	8000230 <memchr>
 80039a8:	b108      	cbz	r0, 80039ae <_printf_i+0x1e6>
 80039aa:	1b80      	subs	r0, r0, r6
 80039ac:	6060      	str	r0, [r4, #4]
 80039ae:	6863      	ldr	r3, [r4, #4]
 80039b0:	6123      	str	r3, [r4, #16]
 80039b2:	2300      	movs	r3, #0
 80039b4:	f884 3043 	strb.w	r3, [r4, #67]	@ 0x43
 80039b8:	e7aa      	b.n	8003910 <_printf_i+0x148>
 80039ba:	6923      	ldr	r3, [r4, #16]
 80039bc:	4632      	mov	r2, r6
 80039be:	4649      	mov	r1, r9
 80039c0:	4640      	mov	r0, r8
 80039c2:	47d0      	blx	sl
 80039c4:	3001      	adds	r0, #1
 80039c6:	d0ad      	beq.n	8003924 <_printf_i+0x15c>
 80039c8:	6823      	ldr	r3, [r4, #0]
 80039ca:	079b      	lsls	r3, r3, #30
 80039cc:	d413      	bmi.n	80039f6 <_printf_i+0x22e>
 80039ce:	68e0      	ldr	r0, [r4, #12]
 80039d0:	9b03      	ldr	r3, [sp, #12]
 80039d2:	4298      	cmp	r0, r3
 80039d4:	bfb8      	it	lt
 80039d6:	4618      	movlt	r0, r3
 80039d8:	e7a6      	b.n	8003928 <_printf_i+0x160>
 80039da:	2301      	movs	r3, #1
 80039dc:	4632      	mov	r2, r6
 80039de:	4649      	mov	r1, r9
 80039e0:	4640      	mov	r0, r8
 80039e2:	47d0      	blx	sl
 80039e4:	3001      	adds	r0, #1
 80039e6:	d09d      	beq.n	8003924 <_printf_i+0x15c>
 80039e8:	3501      	adds	r5, #1
 80039ea:	68e3      	ldr	r3, [r4, #12]
 80039ec:	9903      	ldr	r1, [sp, #12]
 80039ee:	1a5b      	subs	r3, r3, r1
 80039f0:	42ab      	cmp	r3, r5
 80039f2:	dcf2      	bgt.n	80039da <_printf_i+0x212>
 80039f4:	e7eb      	b.n	80039ce <_printf_i+0x206>
 80039f6:	2500      	movs	r5, #0
 80039f8:	f104 0619 	add.w	r6, r4, #25
 80039fc:	e7f5      	b.n	80039ea <_printf_i+0x222>
 80039fe:	bf00      	nop
 8003a00:	08007033 	.word	0x08007033
 8003a04:	08007044 	.word	0x08007044

08003a08 <std>:
 8003a08:	2300      	movs	r3, #0
 8003a0a:	b510      	push	{r4, lr}
 8003a0c:	4604      	mov	r4, r0
 8003a0e:	e9c0 3300 	strd	r3, r3, [r0]
 8003a12:	e9c0 3304 	strd	r3, r3, [r0, #16]
 8003a16:	6083      	str	r3, [r0, #8]
 8003a18:	8181      	strh	r1, [r0, #12]
 8003a1a:	6643      	str	r3, [r0, #100]	@ 0x64
 8003a1c:	81c2      	strh	r2, [r0, #14]
 8003a1e:	6183      	str	r3, [r0, #24]
 8003a20:	4619      	mov	r1, r3
 8003a22:	2208      	movs	r2, #8
 8003a24:	305c      	adds	r0, #92	@ 0x5c
 8003a26:	f000 f948 	bl	8003cba <memset>
 8003a2a:	4b0d      	ldr	r3, [pc, #52]	@ (8003a60 <std+0x58>)
 8003a2c:	6263      	str	r3, [r4, #36]	@ 0x24
 8003a2e:	4b0d      	ldr	r3, [pc, #52]	@ (8003a64 <std+0x5c>)
 8003a30:	62a3      	str	r3, [r4, #40]	@ 0x28
 8003a32:	4b0d      	ldr	r3, [pc, #52]	@ (8003a68 <std+0x60>)
 8003a34:	62e3      	str	r3, [r4, #44]	@ 0x2c
 8003a36:	4b0d      	ldr	r3, [pc, #52]	@ (8003a6c <std+0x64>)
 8003a38:	6323      	str	r3, [r4, #48]	@ 0x30
 8003a3a:	4b0d      	ldr	r3, [pc, #52]	@ (8003a70 <std+0x68>)
 8003a3c:	6224      	str	r4, [r4, #32]
 8003a3e:	429c      	cmp	r4, r3
 8003a40:	d006      	beq.n	8003a50 <std+0x48>
 8003a42:	f103 0268 	add.w	r2, r3, #104	@ 0x68
 8003a46:	4294      	cmp	r4, r2
 8003a48:	d002      	beq.n	8003a50 <std+0x48>
 8003a4a:	33d0      	adds	r3, #208	@ 0xd0
 8003a4c:	429c      	cmp	r4, r3
 8003a4e:	d105      	bne.n	8003a5c <std+0x54>
 8003a50:	f104 0058 	add.w	r0, r4, #88	@ 0x58
 8003a54:	e8bd 4010 	ldmia.w	sp!, {r4, lr}
 8003a58:	f000 b9e2 	b.w	8003e20 <__retarget_lock_init_recursive>
 8003a5c:	bd10      	pop	{r4, pc}
 8003a5e:	bf00      	nop
 8003a60:	08003c35 	.word	0x08003c35
 8003a64:	08003c57 	.word	0x08003c57
 8003a68:	08003c8f 	.word	0x08003c8f
 8003a6c:	08003cb3 	.word	0x08003cb3
 8003a70:	200005b0 	.word	0x200005b0

08003a74 <stdio_exit_handler>:
 8003a74:	4a02      	ldr	r2, [pc, #8]	@ (8003a80 <stdio_exit_handler+0xc>)
 8003a76:	4903      	ldr	r1, [pc, #12]	@ (8003a84 <stdio_exit_handler+0x10>)
 8003a78:	4803      	ldr	r0, [pc, #12]	@ (8003a88 <stdio_exit_handler+0x14>)
 8003a7a:	f000 b869 	b.w	8003b50 <_fwalk_sglue>
 8003a7e:	bf00      	nop
 8003a80:	20000034 	.word	0x20000034
 8003a84:	0800578d 	.word	0x0800578d
 8003a88:	20000044 	.word	0x20000044

08003a8c <cleanup_stdio>:
 8003a8c:	6841      	ldr	r1, [r0, #4]
 8003a8e:	4b0c      	ldr	r3, [pc, #48]	@ (8003ac0 <cleanup_stdio+0x34>)
 8003a90:	4299      	cmp	r1, r3
 8003a92:	b510      	push	{r4, lr}
 8003a94:	4604      	mov	r4, r0
 8003a96:	d001      	beq.n	8003a9c <cleanup_stdio+0x10>
 8003a98:	f001 fe78 	bl	800578c <_fflush_r>
 8003a9c:	68a1      	ldr	r1, [r4, #8]
 8003a9e:	4b09      	ldr	r3, [pc, #36]	@ (8003ac4 <cleanup_stdio+0x38>)
 8003aa0:	4299      	cmp	r1, r3
 8003aa2:	d002      	beq.n	8003aaa <cleanup_stdio+0x1e>
 8003aa4:	4620      	mov	r0, r4
 8003aa6:	f001 fe71 	bl	800578c <_fflush_r>
 8003aaa:	68e1      	ldr	r1, [r4, #12]
 8003aac:	4b06      	ldr	r3, [pc, #24]	@ (8003ac8 <cleanup_stdio+0x3c>)
 8003aae:	4299      	cmp	r1, r3
 8003ab0:	d004      	beq.n	8003abc <cleanup_stdio+0x30>
 8003ab2:	4620      	mov	r0, r4
 8003ab4:	e8bd 4010 	ldmia.w	sp!, {r4, lr}
 8003ab8:	f001 be68 	b.w	800578c <_fflush_r>
 8003abc:	bd10      	pop	{r4, pc}
 8003abe:	bf00      	nop
 8003ac0:	200005b0 	.word	0x200005b0
 8003ac4:	20000618 	.word	0x20000618
 8003ac8:	20000680 	.word	0x20000680

08003acc <global_stdio_init.part.0>:
 8003acc:	b510      	push	{r4, lr}
 8003ace:	4b0b      	ldr	r3, [pc, #44]	@ (8003afc <global_stdio_init.part.0+0x30>)
 8003ad0:	4c0b      	ldr	r4, [pc, #44]	@ (8003b00 <global_stdio_init.part.0+0x34>)
 8003ad2:	4a0c      	ldr	r2, [pc, #48]	@ (8003b04 <global_stdio_init.part.0+0x38>)
 8003ad4:	601a      	str	r2, [r3, #0]
 8003ad6:	4620      	mov	r0, r4
 8003ad8:	2200      	movs	r2, #0
 8003ada:	2104      	movs	r1, #4
 8003adc:	f7ff ff94 	bl	8003a08 <std>
 8003ae0:	f104 0068 	add.w	r0, r4, #104	@ 0x68
 8003ae4:	2201      	movs	r2, #1
 8003ae6:	2109      	movs	r1, #9
 8003ae8:	f7ff ff8e 	bl	8003a08 <std>
 8003aec:	f104 00d0 	add.w	r0, r4, #208	@ 0xd0
 8003af0:	2202      	movs	r2, #2
 8003af2:	e8bd 4010 	ldmia.w	sp!, {r4, lr}
 8003af6:	2112      	movs	r1, #18
 8003af8:	f7ff bf86 	b.w	8003a08 <std>
 8003afc:	200006e8 	.word	0x200006e8
 8003b00:	200005b0 	.word	0x200005b0
 8003b04:	08003a75 	.word	0x08003a75

08003b08 <__sfp_lock_acquire>:
 8003b08:	4801      	ldr	r0, [pc, #4]	@ (8003b10 <__sfp_lock_acquire+0x8>)
 8003b0a:	f000 b98a 	b.w	8003e22 <__retarget_lock_acquire_recursive>
 8003b0e:	bf00      	nop
 8003b10:	200006f1 	.word	0x200006f1

08003b14 <__sfp_lock_release>:
 8003b14:	4801      	ldr	r0, [pc, #4]	@ (8003b1c <__sfp_lock_release+0x8>)
 8003b16:	f000 b985 	b.w	8003e24 <__retarget_lock_release_recursive>
 8003b1a:	bf00      	nop
 8003b1c:	200006f1 	.word	0x200006f1

08003b20 <__sinit>:
 8003b20:	b510      	push	{r4, lr}
 8003b22:	4604      	mov	r4, r0
 8003b24:	f7ff fff0 	bl	8003b08 <__sfp_lock_acquire>
 8003b28:	6a23      	ldr	r3, [r4, #32]
 8003b2a:	b11b      	cbz	r3, 8003b34 <__sinit+0x14>
 8003b2c:	e8bd 4010 	ldmia.w	sp!, {r4, lr}
 8003b30:	f7ff bff0 	b.w	8003b14 <__sfp_lock_release>
 8003b34:	4b04      	ldr	r3, [pc, #16]	@ (8003b48 <__sinit+0x28>)
 8003b36:	6223      	str	r3, [r4, #32]
 8003b38:	4b04      	ldr	r3, [pc, #16]	@ (8003b4c <__sinit+0x2c>)
 8003b3a:	681b      	ldr	r3, [r3, #0]
 8003b3c:	2b00      	cmp	r3, #0
 8003b3e:	d1f5      	bne.n	8003b2c <__sinit+0xc>
 8003b40:	f7ff ffc4 	bl	8003acc <global_stdio_init.part.0>
 8003b44:	e7f2      	b.n	8003b2c <__sinit+0xc>
 8003b46:	bf00      	nop
 8003b48:	08003a8d 	.word	0x08003a8d
 8003b4c:	200006e8 	.word	0x200006e8

08003b50 <_fwalk_sglue>:
 8003b50:	e92d 43f8 	stmdb	sp!, {r3, r4, r5, r6, r7, r8, r9, lr}
 8003b54:	4607      	mov	r7, r0
 8003b56:	4688      	mov	r8, r1
 8003b58:	4614      	mov	r4, r2
 8003b5a:	2600      	movs	r6, #0
 8003b5c:	e9d4 9501 	ldrd	r9, r5, [r4, #4]
 8003b60:	f1b9 0901 	subs.w	r9, r9, #1
 8003b64:	d505      	bpl.n	8003b72 <_fwalk_sglue+0x22>
 8003b66:	6824      	ldr	r4, [r4, #0]
 8003b68:	2c00      	cmp	r4, #0
 8003b6a:	d1f7      	bne.n	8003b5c <_fwalk_sglue+0xc>
 8003b6c:	4630      	mov	r0, r6
 8003b6e:	e8bd 83f8 	ldmia.w	sp!, {r3, r4, r5, r6, r7, r8, r9, pc}
 8003b72:	89ab      	ldrh	r3, [r5, #12]
 8003b74:	2b01      	cmp	r3, #1
 8003b76:	d907      	bls.n	8003b88 <_fwalk_sglue+0x38>
 8003b78:	f9b5 300e 	ldrsh.w	r3, [r5, #14]
 8003b7c:	3301      	adds	r3, #1
 8003b7e:	d003      	beq.n	8003b88 <_fwalk_sglue+0x38>
 8003b80:	4629      	mov	r1, r5
 8003b82:	4638      	mov	r0, r7
 8003b84:	47c0      	blx	r8
 8003b86:	4306      	orrs	r6, r0
 8003b88:	3568      	adds	r5, #104	@ 0x68
 8003b8a:	e7e9      	b.n	8003b60 <_fwalk_sglue+0x10>

08003b8c <sniprintf>:
 8003b8c:	b40c      	push	{r2, r3}
 8003b8e:	b530      	push	{r4, r5, lr}
 8003b90:	4b17      	ldr	r3, [pc, #92]	@ (8003bf0 <sniprintf+0x64>)
 8003b92:	1e0c      	subs	r4, r1, #0
 8003b94:	681d      	ldr	r5, [r3, #0]
 8003b96:	b09d      	sub	sp, #116	@ 0x74
 8003b98:	da08      	bge.n	8003bac <sniprintf+0x20>
 8003b9a:	238b      	movs	r3, #139	@ 0x8b
 8003b9c:	602b      	str	r3, [r5, #0]
 8003b9e:	f04f 30ff 	mov.w	r0, #4294967295
 8003ba2:	b01d      	add	sp, #116	@ 0x74
 8003ba4:	e8bd 4030 	ldmia.w	sp!, {r4, r5, lr}
 8003ba8:	b002      	add	sp, #8
 8003baa:	4770      	bx	lr
 8003bac:	f44f 7302 	mov.w	r3, #520	@ 0x208
 8003bb0:	f8ad 3014 	strh.w	r3, [sp, #20]
 8003bb4:	bf14      	ite	ne
 8003bb6:	f104 33ff 	addne.w	r3, r4, #4294967295
 8003bba:	4623      	moveq	r3, r4
 8003bbc:	9304      	str	r3, [sp, #16]
 8003bbe:	9307      	str	r3, [sp, #28]
 8003bc0:	f64f 73ff 	movw	r3, #65535	@ 0xffff
 8003bc4:	9002      	str	r0, [sp, #8]
 8003bc6:	9006      	str	r0, [sp, #24]
 8003bc8:	f8ad 3016 	strh.w	r3, [sp, #22]
 8003bcc:	9a20      	ldr	r2, [sp, #128]	@ 0x80
 8003bce:	ab21      	add	r3, sp, #132	@ 0x84
 8003bd0:	a902      	add	r1, sp, #8
 8003bd2:	4628      	mov	r0, r5
 8003bd4:	9301      	str	r3, [sp, #4]
 8003bd6:	f001 fc59 	bl	800548c <_svfiprintf_r>
 8003bda:	1c43      	adds	r3, r0, #1
 8003bdc:	bfbc      	itt	lt
 8003bde:	238b      	movlt	r3, #139	@ 0x8b
 8003be0:	602b      	strlt	r3, [r5, #0]
 8003be2:	2c00      	cmp	r4, #0
 8003be4:	d0dd      	beq.n	8003ba2 <sniprintf+0x16>
 8003be6:	9b02      	ldr	r3, [sp, #8]
 8003be8:	2200      	movs	r2, #0
 8003bea:	701a      	strb	r2, [r3, #0]
 8003bec:	e7d9      	b.n	8003ba2 <sniprintf+0x16>
 8003bee:	bf00      	nop
 8003bf0:	20000040 	.word	0x20000040

08003bf4 <siprintf>:
 8003bf4:	b40e      	push	{r1, r2, r3}
 8003bf6:	b500      	push	{lr}
 8003bf8:	b09c      	sub	sp, #112	@ 0x70
 8003bfa:	ab1d      	add	r3, sp, #116	@ 0x74
 8003bfc:	9002      	str	r0, [sp, #8]
 8003bfe:	9006      	str	r0, [sp, #24]
 8003c00:	f06f 4100 	mvn.w	r1, #2147483648	@ 0x80000000
 8003c04:	4809      	ldr	r0, [pc, #36]	@ (8003c2c <siprintf+0x38>)
 8003c06:	9107      	str	r1, [sp, #28]
 8003c08:	9104      	str	r1, [sp, #16]
 8003c0a:	4909      	ldr	r1, [pc, #36]	@ (8003c30 <siprintf+0x3c>)
 8003c0c:	f853 2b04 	ldr.w	r2, [r3], #4
 8003c10:	9105      	str	r1, [sp, #20]
 8003c12:	6800      	ldr	r0, [r0, #0]
 8003c14:	9301      	str	r3, [sp, #4]
 8003c16:	a902      	add	r1, sp, #8
 8003c18:	f001 fc38 	bl	800548c <_svfiprintf_r>
 8003c1c:	9b02      	ldr	r3, [sp, #8]
 8003c1e:	2200      	movs	r2, #0
 8003c20:	701a      	strb	r2, [r3, #0]
 8003c22:	b01c      	add	sp, #112	@ 0x70
 8003c24:	f85d eb04 	ldr.w	lr, [sp], #4
 8003c28:	b003      	add	sp, #12
 8003c2a:	4770      	bx	lr
 8003c2c:	20000040 	.word	0x20000040
 8003c30:	ffff0208 	.word	0xffff0208

08003c34 <__sread>:
 8003c34:	b510      	push	{r4, lr}
 8003c36:	460c      	mov	r4, r1
 8003c38:	f9b1 100e 	ldrsh.w	r1, [r1, #14]
 8003c3c:	f000 f8a2 	bl	8003d84 <_read_r>
 8003c40:	2800      	cmp	r0, #0
 8003c42:	bfab      	itete	ge
 8003c44:	6d63      	ldrge	r3, [r4, #84]	@ 0x54
 8003c46:	89a3      	ldrhlt	r3, [r4, #12]
 8003c48:	181b      	addge	r3, r3, r0
 8003c4a:	f423 5380 	biclt.w	r3, r3, #4096	@ 0x1000
 8003c4e:	bfac      	ite	ge
 8003c50:	6563      	strge	r3, [r4, #84]	@ 0x54
 8003c52:	81a3      	strhlt	r3, [r4, #12]
 8003c54:	bd10      	pop	{r4, pc}

08003c56 <__swrite>:
 8003c56:	e92d 41f0 	stmdb	sp!, {r4, r5, r6, r7, r8, lr}
 8003c5a:	461f      	mov	r7, r3
 8003c5c:	898b      	ldrh	r3, [r1, #12]
 8003c5e:	05db      	lsls	r3, r3, #23
 8003c60:	4605      	mov	r5, r0
 8003c62:	460c      	mov	r4, r1
 8003c64:	4616      	mov	r6, r2
 8003c66:	d505      	bpl.n	8003c74 <__swrite+0x1e>
 8003c68:	f9b1 100e 	ldrsh.w	r1, [r1, #14]
 8003c6c:	2302      	movs	r3, #2
 8003c6e:	2200      	movs	r2, #0
 8003c70:	f000 f876 	bl	8003d60 <_lseek_r>
 8003c74:	89a3      	ldrh	r3, [r4, #12]
 8003c76:	f9b4 100e 	ldrsh.w	r1, [r4, #14]
 8003c7a:	f423 5380 	bic.w	r3, r3, #4096	@ 0x1000
 8003c7e:	81a3      	strh	r3, [r4, #12]
 8003c80:	4632      	mov	r2, r6
 8003c82:	463b      	mov	r3, r7
 8003c84:	4628      	mov	r0, r5
 8003c86:	e8bd 41f0 	ldmia.w	sp!, {r4, r5, r6, r7, r8, lr}
 8003c8a:	f000 b88d 	b.w	8003da8 <_write_r>

08003c8e <__sseek>:
 8003c8e:	b510      	push	{r4, lr}
 8003c90:	460c      	mov	r4, r1
 8003c92:	f9b1 100e 	ldrsh.w	r1, [r1, #14]
 8003c96:	f000 f863 	bl	8003d60 <_lseek_r>
 8003c9a:	1c43      	adds	r3, r0, #1
 8003c9c:	89a3      	ldrh	r3, [r4, #12]
 8003c9e:	bf15      	itete	ne
 8003ca0:	6560      	strne	r0, [r4, #84]	@ 0x54
 8003ca2:	f423 5380 	biceq.w	r3, r3, #4096	@ 0x1000
 8003ca6:	f443 5380 	orrne.w	r3, r3, #4096	@ 0x1000
 8003caa:	81a3      	strheq	r3, [r4, #12]
 8003cac:	bf18      	it	ne
 8003cae:	81a3      	strhne	r3, [r4, #12]
 8003cb0:	bd10      	pop	{r4, pc}

08003cb2 <__sclose>:
 8003cb2:	f9b1 100e 	ldrsh.w	r1, [r1, #14]
 8003cb6:	f000 b843 	b.w	8003d40 <_close_r>

08003cba <memset>:
 8003cba:	4402      	add	r2, r0
 8003cbc:	4603      	mov	r3, r0
 8003cbe:	4293      	cmp	r3, r2
 8003cc0:	d100      	bne.n	8003cc4 <memset+0xa>
 8003cc2:	4770      	bx	lr
 8003cc4:	f803 1b01 	strb.w	r1, [r3], #1
 8003cc8:	e7f9      	b.n	8003cbe <memset+0x4>

08003cca <strchr>:
 8003cca:	b2c9      	uxtb	r1, r1
 8003ccc:	4603      	mov	r3, r0
 8003cce:	4618      	mov	r0, r3
 8003cd0:	f813 2b01 	ldrb.w	r2, [r3], #1
 8003cd4:	b112      	cbz	r2, 8003cdc <strchr+0x12>
 8003cd6:	428a      	cmp	r2, r1
 8003cd8:	d1f9      	bne.n	8003cce <strchr+0x4>
 8003cda:	4770      	bx	lr
 8003cdc:	2900      	cmp	r1, #0
 8003cde:	bf18      	it	ne
 8003ce0:	2000      	movne	r0, #0
 8003ce2:	4770      	bx	lr

08003ce4 <strncpy>:
 8003ce4:	b510      	push	{r4, lr}
 8003ce6:	3901      	subs	r1, #1
 8003ce8:	4603      	mov	r3, r0
 8003cea:	b132      	cbz	r2, 8003cfa <strncpy+0x16>
 8003cec:	f811 4f01 	ldrb.w	r4, [r1, #1]!
 8003cf0:	f803 4b01 	strb.w	r4, [r3], #1
 8003cf4:	3a01      	subs	r2, #1
 8003cf6:	2c00      	cmp	r4, #0
 8003cf8:	d1f7      	bne.n	8003cea <strncpy+0x6>
 8003cfa:	441a      	add	r2, r3
 8003cfc:	2100      	movs	r1, #0
 8003cfe:	4293      	cmp	r3, r2
 8003d00:	d100      	bne.n	8003d04 <strncpy+0x20>
 8003d02:	bd10      	pop	{r4, pc}
 8003d04:	f803 1b01 	strb.w	r1, [r3], #1
 8003d08:	e7f9      	b.n	8003cfe <strncpy+0x1a>

08003d0a <strstr>:
 8003d0a:	780a      	ldrb	r2, [r1, #0]
 8003d0c:	b570      	push	{r4, r5, r6, lr}
 8003d0e:	b96a      	cbnz	r2, 8003d2c <strstr+0x22>
 8003d10:	bd70      	pop	{r4, r5, r6, pc}
 8003d12:	429a      	cmp	r2, r3
 8003d14:	d109      	bne.n	8003d2a <strstr+0x20>
 8003d16:	460c      	mov	r4, r1
 8003d18:	4605      	mov	r5, r0
 8003d1a:	f814 3f01 	ldrb.w	r3, [r4, #1]!
 8003d1e:	2b00      	cmp	r3, #0
 8003d20:	d0f6      	beq.n	8003d10 <strstr+0x6>
 8003d22:	f815 6f01 	ldrb.w	r6, [r5, #1]!
 8003d26:	429e      	cmp	r6, r3
 8003d28:	d0f7      	beq.n	8003d1a <strstr+0x10>
 8003d2a:	3001      	adds	r0, #1
 8003d2c:	7803      	ldrb	r3, [r0, #0]
 8003d2e:	2b00      	cmp	r3, #0
 8003d30:	d1ef      	bne.n	8003d12 <strstr+0x8>
 8003d32:	4618      	mov	r0, r3
 8003d34:	e7ec      	b.n	8003d10 <strstr+0x6>
	...

08003d38 <_localeconv_r>:
 8003d38:	4800      	ldr	r0, [pc, #0]	@ (8003d3c <_localeconv_r+0x4>)
 8003d3a:	4770      	bx	lr
 8003d3c:	20000180 	.word	0x20000180

08003d40 <_close_r>:
 8003d40:	b538      	push	{r3, r4, r5, lr}
 8003d42:	4d06      	ldr	r5, [pc, #24]	@ (8003d5c <_close_r+0x1c>)
 8003d44:	2300      	movs	r3, #0
 8003d46:	4604      	mov	r4, r0
 8003d48:	4608      	mov	r0, r1
 8003d4a:	602b      	str	r3, [r5, #0]
 8003d4c:	f7fd fe4e 	bl	80019ec <_close>
 8003d50:	1c43      	adds	r3, r0, #1
 8003d52:	d102      	bne.n	8003d5a <_close_r+0x1a>
 8003d54:	682b      	ldr	r3, [r5, #0]
 8003d56:	b103      	cbz	r3, 8003d5a <_close_r+0x1a>
 8003d58:	6023      	str	r3, [r4, #0]
 8003d5a:	bd38      	pop	{r3, r4, r5, pc}
 8003d5c:	200006ec 	.word	0x200006ec

08003d60 <_lseek_r>:
 8003d60:	b538      	push	{r3, r4, r5, lr}
 8003d62:	4d07      	ldr	r5, [pc, #28]	@ (8003d80 <_lseek_r+0x20>)
 8003d64:	4604      	mov	r4, r0
 8003d66:	4608      	mov	r0, r1
 8003d68:	4611      	mov	r1, r2
 8003d6a:	2200      	movs	r2, #0
 8003d6c:	602a      	str	r2, [r5, #0]
 8003d6e:	461a      	mov	r2, r3
 8003d70:	f7fd fe46 	bl	8001a00 <_lseek>
 8003d74:	1c43      	adds	r3, r0, #1
 8003d76:	d102      	bne.n	8003d7e <_lseek_r+0x1e>
 8003d78:	682b      	ldr	r3, [r5, #0]
 8003d7a:	b103      	cbz	r3, 8003d7e <_lseek_r+0x1e>
 8003d7c:	6023      	str	r3, [r4, #0]
 8003d7e:	bd38      	pop	{r3, r4, r5, pc}
 8003d80:	200006ec 	.word	0x200006ec

08003d84 <_read_r>:
 8003d84:	b538      	push	{r3, r4, r5, lr}
 8003d86:	4d07      	ldr	r5, [pc, #28]	@ (8003da4 <_read_r+0x20>)
 8003d88:	4604      	mov	r4, r0
 8003d8a:	4608      	mov	r0, r1
 8003d8c:	4611      	mov	r1, r2
 8003d8e:	2200      	movs	r2, #0
 8003d90:	602a      	str	r2, [r5, #0]
 8003d92:	461a      	mov	r2, r3
 8003d94:	f7fd fe0e 	bl	80019b4 <_read>
 8003d98:	1c43      	adds	r3, r0, #1
 8003d9a:	d102      	bne.n	8003da2 <_read_r+0x1e>
 8003d9c:	682b      	ldr	r3, [r5, #0]
 8003d9e:	b103      	cbz	r3, 8003da2 <_read_r+0x1e>
 8003da0:	6023      	str	r3, [r4, #0]
 8003da2:	bd38      	pop	{r3, r4, r5, pc}
 8003da4:	200006ec 	.word	0x200006ec

08003da8 <_write_r>:
 8003da8:	b538      	push	{r3, r4, r5, lr}
 8003daa:	4d07      	ldr	r5, [pc, #28]	@ (8003dc8 <_write_r+0x20>)
 8003dac:	4604      	mov	r4, r0
 8003dae:	4608      	mov	r0, r1
 8003db0:	4611      	mov	r1, r2
 8003db2:	2200      	movs	r2, #0
 8003db4:	602a      	str	r2, [r5, #0]
 8003db6:	461a      	mov	r2, r3
 8003db8:	f7fd fe0a 	bl	80019d0 <_write>
 8003dbc:	1c43      	adds	r3, r0, #1
 8003dbe:	d102      	bne.n	8003dc6 <_write_r+0x1e>
 8003dc0:	682b      	ldr	r3, [r5, #0]
 8003dc2:	b103      	cbz	r3, 8003dc6 <_write_r+0x1e>
 8003dc4:	6023      	str	r3, [r4, #0]
 8003dc6:	bd38      	pop	{r3, r4, r5, pc}
 8003dc8:	200006ec 	.word	0x200006ec

08003dcc <__errno>:
 8003dcc:	4b01      	ldr	r3, [pc, #4]	@ (8003dd4 <__errno+0x8>)
 8003dce:	6818      	ldr	r0, [r3, #0]
 8003dd0:	4770      	bx	lr
 8003dd2:	bf00      	nop
 8003dd4:	20000040 	.word	0x20000040

08003dd8 <__libc_init_array>:
 8003dd8:	b570      	push	{r4, r5, r6, lr}
 8003dda:	4d0d      	ldr	r5, [pc, #52]	@ (8003e10 <__libc_init_array+0x38>)
 8003ddc:	4c0d      	ldr	r4, [pc, #52]	@ (8003e14 <__libc_init_array+0x3c>)
 8003dde:	1b64      	subs	r4, r4, r5
 8003de0:	10a4      	asrs	r4, r4, #2
 8003de2:	2600      	movs	r6, #0
 8003de4:	42a6      	cmp	r6, r4
 8003de6:	d109      	bne.n	8003dfc <__libc_init_array+0x24>
 8003de8:	4d0b      	ldr	r5, [pc, #44]	@ (8003e18 <__libc_init_array+0x40>)
 8003dea:	4c0c      	ldr	r4, [pc, #48]	@ (8003e1c <__libc_init_array+0x44>)
 8003dec:	f002 ffca 	bl	8006d84 <_init>
 8003df0:	1b64      	subs	r4, r4, r5
 8003df2:	10a4      	asrs	r4, r4, #2
 8003df4:	2600      	movs	r6, #0
 8003df6:	42a6      	cmp	r6, r4
 8003df8:	d105      	bne.n	8003e06 <__libc_init_array+0x2e>
 8003dfa:	bd70      	pop	{r4, r5, r6, pc}
 8003dfc:	f855 3b04 	ldr.w	r3, [r5], #4
 8003e00:	4798      	blx	r3
 8003e02:	3601      	adds	r6, #1
 8003e04:	e7ee      	b.n	8003de4 <__libc_init_array+0xc>
 8003e06:	f855 3b04 	ldr.w	r3, [r5], #4
 8003e0a:	4798      	blx	r3
 8003e0c:	3601      	adds	r6, #1
 8003e0e:	e7f2      	b.n	8003df6 <__libc_init_array+0x1e>
 8003e10:	080072c8 	.word	0x080072c8
 8003e14:	080072c8 	.word	0x080072c8
 8003e18:	080072c8 	.word	0x080072c8
 8003e1c:	080072cc 	.word	0x080072cc

08003e20 <__retarget_lock_init_recursive>:
 8003e20:	4770      	bx	lr

08003e22 <__retarget_lock_acquire_recursive>:
 8003e22:	4770      	bx	lr

08003e24 <__retarget_lock_release_recursive>:
 8003e24:	4770      	bx	lr

08003e26 <strcpy>:
 8003e26:	4603      	mov	r3, r0
 8003e28:	f811 2b01 	ldrb.w	r2, [r1], #1
 8003e2c:	f803 2b01 	strb.w	r2, [r3], #1
 8003e30:	2a00      	cmp	r2, #0
 8003e32:	d1f9      	bne.n	8003e28 <strcpy+0x2>
 8003e34:	4770      	bx	lr

08003e36 <quorem>:
 8003e36:	e92d 4ff7 	stmdb	sp!, {r0, r1, r2, r4, r5, r6, r7, r8, r9, sl, fp, lr}
 8003e3a:	6903      	ldr	r3, [r0, #16]
 8003e3c:	690c      	ldr	r4, [r1, #16]
 8003e3e:	42a3      	cmp	r3, r4
 8003e40:	4607      	mov	r7, r0
 8003e42:	db7e      	blt.n	8003f42 <quorem+0x10c>
 8003e44:	3c01      	subs	r4, #1
 8003e46:	f101 0814 	add.w	r8, r1, #20
 8003e4a:	00a3      	lsls	r3, r4, #2
 8003e4c:	f100 0514 	add.w	r5, r0, #20
 8003e50:	9300      	str	r3, [sp, #0]
 8003e52:	eb05 0384 	add.w	r3, r5, r4, lsl #2
 8003e56:	9301      	str	r3, [sp, #4]
 8003e58:	f858 3024 	ldr.w	r3, [r8, r4, lsl #2]
 8003e5c:	f855 2024 	ldr.w	r2, [r5, r4, lsl #2]
 8003e60:	3301      	adds	r3, #1
 8003e62:	429a      	cmp	r2, r3
 8003e64:	eb08 0984 	add.w	r9, r8, r4, lsl #2
 8003e68:	fbb2 f6f3 	udiv	r6, r2, r3
 8003e6c:	d32e      	bcc.n	8003ecc <quorem+0x96>
 8003e6e:	f04f 0a00 	mov.w	sl, #0
 8003e72:	46c4      	mov	ip, r8
 8003e74:	46ae      	mov	lr, r5
 8003e76:	46d3      	mov	fp, sl
 8003e78:	f85c 3b04 	ldr.w	r3, [ip], #4
 8003e7c:	b298      	uxth	r0, r3
 8003e7e:	fb06 a000 	mla	r0, r6, r0, sl
 8003e82:	0c02      	lsrs	r2, r0, #16
 8003e84:	0c1b      	lsrs	r3, r3, #16
 8003e86:	fb06 2303 	mla	r3, r6, r3, r2
 8003e8a:	f8de 2000 	ldr.w	r2, [lr]
 8003e8e:	b280      	uxth	r0, r0
 8003e90:	b292      	uxth	r2, r2
 8003e92:	1a12      	subs	r2, r2, r0
 8003e94:	445a      	add	r2, fp
 8003e96:	f8de 0000 	ldr.w	r0, [lr]
 8003e9a:	ea4f 4a13 	mov.w	sl, r3, lsr #16
 8003e9e:	b29b      	uxth	r3, r3
 8003ea0:	ebc3 4322 	rsb	r3, r3, r2, asr #16
 8003ea4:	eb03 4310 	add.w	r3, r3, r0, lsr #16
 8003ea8:	b292      	uxth	r2, r2
 8003eaa:	ea42 4203 	orr.w	r2, r2, r3, lsl #16
 8003eae:	45e1      	cmp	r9, ip
 8003eb0:	f84e 2b04 	str.w	r2, [lr], #4
 8003eb4:	ea4f 4b23 	mov.w	fp, r3, asr #16
 8003eb8:	d2de      	bcs.n	8003e78 <quorem+0x42>
 8003eba:	9b00      	ldr	r3, [sp, #0]
 8003ebc:	58eb      	ldr	r3, [r5, r3]
 8003ebe:	b92b      	cbnz	r3, 8003ecc <quorem+0x96>
 8003ec0:	9b01      	ldr	r3, [sp, #4]
 8003ec2:	3b04      	subs	r3, #4
 8003ec4:	429d      	cmp	r5, r3
 8003ec6:	461a      	mov	r2, r3
 8003ec8:	d32f      	bcc.n	8003f2a <quorem+0xf4>
 8003eca:	613c      	str	r4, [r7, #16]
 8003ecc:	4638      	mov	r0, r7
 8003ece:	f001 f979 	bl	80051c4 <__mcmp>
 8003ed2:	2800      	cmp	r0, #0
 8003ed4:	db25      	blt.n	8003f22 <quorem+0xec>
 8003ed6:	4629      	mov	r1, r5
 8003ed8:	2000      	movs	r0, #0
 8003eda:	f858 2b04 	ldr.w	r2, [r8], #4
 8003ede:	f8d1 c000 	ldr.w	ip, [r1]
 8003ee2:	fa1f fe82 	uxth.w	lr, r2
 8003ee6:	fa1f f38c 	uxth.w	r3, ip
 8003eea:	eba3 030e 	sub.w	r3, r3, lr
 8003eee:	4403      	add	r3, r0
 8003ef0:	0c12      	lsrs	r2, r2, #16
 8003ef2:	ebc2 4223 	rsb	r2, r2, r3, asr #16
 8003ef6:	eb02 421c 	add.w	r2, r2, ip, lsr #16
 8003efa:	b29b      	uxth	r3, r3
 8003efc:	ea43 4302 	orr.w	r3, r3, r2, lsl #16
 8003f00:	45c1      	cmp	r9, r8
 8003f02:	f841 3b04 	str.w	r3, [r1], #4
 8003f06:	ea4f 4022 	mov.w	r0, r2, asr #16
 8003f0a:	d2e6      	bcs.n	8003eda <quorem+0xa4>
 8003f0c:	f855 2024 	ldr.w	r2, [r5, r4, lsl #2]
 8003f10:	eb05 0384 	add.w	r3, r5, r4, lsl #2
 8003f14:	b922      	cbnz	r2, 8003f20 <quorem+0xea>
 8003f16:	3b04      	subs	r3, #4
 8003f18:	429d      	cmp	r5, r3
 8003f1a:	461a      	mov	r2, r3
 8003f1c:	d30b      	bcc.n	8003f36 <quorem+0x100>
 8003f1e:	613c      	str	r4, [r7, #16]
 8003f20:	3601      	adds	r6, #1
 8003f22:	4630      	mov	r0, r6
 8003f24:	b003      	add	sp, #12
 8003f26:	e8bd 8ff0 	ldmia.w	sp!, {r4, r5, r6, r7, r8, r9, sl, fp, pc}
 8003f2a:	6812      	ldr	r2, [r2, #0]
 8003f2c:	3b04      	subs	r3, #4
 8003f2e:	2a00      	cmp	r2, #0
 8003f30:	d1cb      	bne.n	8003eca <quorem+0x94>
 8003f32:	3c01      	subs	r4, #1
 8003f34:	e7c6      	b.n	8003ec4 <quorem+0x8e>
 8003f36:	6812      	ldr	r2, [r2, #0]
 8003f38:	3b04      	subs	r3, #4
 8003f3a:	2a00      	cmp	r2, #0
 8003f3c:	d1ef      	bne.n	8003f1e <quorem+0xe8>
 8003f3e:	3c01      	subs	r4, #1
 8003f40:	e7ea      	b.n	8003f18 <quorem+0xe2>
 8003f42:	2000      	movs	r0, #0
 8003f44:	e7ee      	b.n	8003f24 <quorem+0xee>
	...

08003f48 <_dtoa_r>:
 8003f48:	e92d 4ff0 	stmdb	sp!, {r4, r5, r6, r7, r8, r9, sl, fp, lr}
 8003f4c:	69c7      	ldr	r7, [r0, #28]
 8003f4e:	b099      	sub	sp, #100	@ 0x64
 8003f50:	ed8d 0b02 	vstr	d0, [sp, #8]
 8003f54:	ec55 4b10 	vmov	r4, r5, d0
 8003f58:	9e22      	ldr	r6, [sp, #136]	@ 0x88
 8003f5a:	9109      	str	r1, [sp, #36]	@ 0x24
 8003f5c:	4683      	mov	fp, r0
 8003f5e:	920e      	str	r2, [sp, #56]	@ 0x38
 8003f60:	9313      	str	r3, [sp, #76]	@ 0x4c
 8003f62:	b97f      	cbnz	r7, 8003f84 <_dtoa_r+0x3c>
 8003f64:	2010      	movs	r0, #16
 8003f66:	f000 fdfd 	bl	8004b64 <malloc>
 8003f6a:	4602      	mov	r2, r0
 8003f6c:	f8cb 001c 	str.w	r0, [fp, #28]
 8003f70:	b920      	cbnz	r0, 8003f7c <_dtoa_r+0x34>
 8003f72:	4ba7      	ldr	r3, [pc, #668]	@ (8004210 <_dtoa_r+0x2c8>)
 8003f74:	21ef      	movs	r1, #239	@ 0xef
 8003f76:	48a7      	ldr	r0, [pc, #668]	@ (8004214 <_dtoa_r+0x2cc>)
 8003f78:	f001 fc68 	bl	800584c <__assert_func>
 8003f7c:	e9c0 7701 	strd	r7, r7, [r0, #4]
 8003f80:	6007      	str	r7, [r0, #0]
 8003f82:	60c7      	str	r7, [r0, #12]
 8003f84:	f8db 301c 	ldr.w	r3, [fp, #28]
 8003f88:	6819      	ldr	r1, [r3, #0]
 8003f8a:	b159      	cbz	r1, 8003fa4 <_dtoa_r+0x5c>
 8003f8c:	685a      	ldr	r2, [r3, #4]
 8003f8e:	604a      	str	r2, [r1, #4]
 8003f90:	2301      	movs	r3, #1
 8003f92:	4093      	lsls	r3, r2
 8003f94:	608b      	str	r3, [r1, #8]
 8003f96:	4658      	mov	r0, fp
 8003f98:	f000 feda 	bl	8004d50 <_Bfree>
 8003f9c:	f8db 301c 	ldr.w	r3, [fp, #28]
 8003fa0:	2200      	movs	r2, #0
 8003fa2:	601a      	str	r2, [r3, #0]
 8003fa4:	1e2b      	subs	r3, r5, #0
 8003fa6:	bfb9      	ittee	lt
 8003fa8:	f023 4300 	biclt.w	r3, r3, #2147483648	@ 0x80000000
 8003fac:	9303      	strlt	r3, [sp, #12]
 8003fae:	2300      	movge	r3, #0
 8003fb0:	6033      	strge	r3, [r6, #0]
 8003fb2:	9f03      	ldr	r7, [sp, #12]
 8003fb4:	4b98      	ldr	r3, [pc, #608]	@ (8004218 <_dtoa_r+0x2d0>)
 8003fb6:	bfbc      	itt	lt
 8003fb8:	2201      	movlt	r2, #1
 8003fba:	6032      	strlt	r2, [r6, #0]
 8003fbc:	43bb      	bics	r3, r7
 8003fbe:	d112      	bne.n	8003fe6 <_dtoa_r+0x9e>
 8003fc0:	9a13      	ldr	r2, [sp, #76]	@ 0x4c
 8003fc2:	f242 730f 	movw	r3, #9999	@ 0x270f
 8003fc6:	6013      	str	r3, [r2, #0]
 8003fc8:	f3c7 0313 	ubfx	r3, r7, #0, #20
 8003fcc:	4323      	orrs	r3, r4
 8003fce:	f000 854d 	beq.w	8004a6c <_dtoa_r+0xb24>
 8003fd2:	9b23      	ldr	r3, [sp, #140]	@ 0x8c
 8003fd4:	f8df a254 	ldr.w	sl, [pc, #596]	@ 800422c <_dtoa_r+0x2e4>
 8003fd8:	2b00      	cmp	r3, #0
 8003fda:	f000 854f 	beq.w	8004a7c <_dtoa_r+0xb34>
 8003fde:	f10a 0303 	add.w	r3, sl, #3
 8003fe2:	f000 bd49 	b.w	8004a78 <_dtoa_r+0xb30>
 8003fe6:	ed9d 7b02 	vldr	d7, [sp, #8]
 8003fea:	2200      	movs	r2, #0
 8003fec:	ec51 0b17 	vmov	r0, r1, d7
 8003ff0:	2300      	movs	r3, #0
 8003ff2:	ed8d 7b0c 	vstr	d7, [sp, #48]	@ 0x30
 8003ff6:	f7fc fd97 	bl	8000b28 <__aeabi_dcmpeq>
 8003ffa:	4680      	mov	r8, r0
 8003ffc:	b158      	cbz	r0, 8004016 <_dtoa_r+0xce>
 8003ffe:	9a13      	ldr	r2, [sp, #76]	@ 0x4c
 8004000:	2301      	movs	r3, #1
 8004002:	6013      	str	r3, [r2, #0]
 8004004:	9b23      	ldr	r3, [sp, #140]	@ 0x8c
 8004006:	b113      	cbz	r3, 800400e <_dtoa_r+0xc6>
 8004008:	9a23      	ldr	r2, [sp, #140]	@ 0x8c
 800400a:	4b84      	ldr	r3, [pc, #528]	@ (800421c <_dtoa_r+0x2d4>)
 800400c:	6013      	str	r3, [r2, #0]
 800400e:	f8df a220 	ldr.w	sl, [pc, #544]	@ 8004230 <_dtoa_r+0x2e8>
 8004012:	f000 bd33 	b.w	8004a7c <_dtoa_r+0xb34>
 8004016:	ed9d 0b0c 	vldr	d0, [sp, #48]	@ 0x30
 800401a:	aa16      	add	r2, sp, #88	@ 0x58
 800401c:	a917      	add	r1, sp, #92	@ 0x5c
 800401e:	4658      	mov	r0, fp
 8004020:	f001 f980 	bl	8005324 <__d2b>
 8004024:	f3c7 560a 	ubfx	r6, r7, #20, #11
 8004028:	4681      	mov	r9, r0
 800402a:	2e00      	cmp	r6, #0
 800402c:	d077      	beq.n	800411e <_dtoa_r+0x1d6>
 800402e:	9b0d      	ldr	r3, [sp, #52]	@ 0x34
 8004030:	f8cd 8050 	str.w	r8, [sp, #80]	@ 0x50
 8004034:	f3c3 0313 	ubfx	r3, r3, #0, #20
 8004038:	e9dd 010c 	ldrd	r0, r1, [sp, #48]	@ 0x30
 800403c:	f043 537f 	orr.w	r3, r3, #1069547520	@ 0x3fc00000
 8004040:	f443 1340 	orr.w	r3, r3, #3145728	@ 0x300000
 8004044:	f2a6 36ff 	subw	r6, r6, #1023	@ 0x3ff
 8004048:	4619      	mov	r1, r3
 800404a:	2200      	movs	r2, #0
 800404c:	4b74      	ldr	r3, [pc, #464]	@ (8004220 <_dtoa_r+0x2d8>)
 800404e:	f7fc f94b 	bl	80002e8 <__aeabi_dsub>
 8004052:	a369      	add	r3, pc, #420	@ (adr r3, 80041f8 <_dtoa_r+0x2b0>)
 8004054:	e9d3 2300 	ldrd	r2, r3, [r3]
 8004058:	f7fc fafe 	bl	8000658 <__aeabi_dmul>
 800405c:	a368      	add	r3, pc, #416	@ (adr r3, 8004200 <_dtoa_r+0x2b8>)
 800405e:	e9d3 2300 	ldrd	r2, r3, [r3]
 8004062:	f7fc f943 	bl	80002ec <__adddf3>
 8004066:	4604      	mov	r4, r0
 8004068:	4630      	mov	r0, r6
 800406a:	460d      	mov	r5, r1
 800406c:	f7fc fa8a 	bl	8000584 <__aeabi_i2d>
 8004070:	a365      	add	r3, pc, #404	@ (adr r3, 8004208 <_dtoa_r+0x2c0>)
 8004072:	e9d3 2300 	ldrd	r2, r3, [r3]
 8004076:	f7fc faef 	bl	8000658 <__aeabi_dmul>
 800407a:	4602      	mov	r2, r0
 800407c:	460b      	mov	r3, r1
 800407e:	4620      	mov	r0, r4
 8004080:	4629      	mov	r1, r5
 8004082:	f7fc f933 	bl	80002ec <__adddf3>
 8004086:	4604      	mov	r4, r0
 8004088:	460d      	mov	r5, r1
 800408a:	f7fc fd95 	bl	8000bb8 <__aeabi_d2iz>
 800408e:	2200      	movs	r2, #0
 8004090:	4607      	mov	r7, r0
 8004092:	2300      	movs	r3, #0
 8004094:	4620      	mov	r0, r4
 8004096:	4629      	mov	r1, r5
 8004098:	f7fc fd50 	bl	8000b3c <__aeabi_dcmplt>
 800409c:	b140      	cbz	r0, 80040b0 <_dtoa_r+0x168>
 800409e:	4638      	mov	r0, r7
 80040a0:	f7fc fa70 	bl	8000584 <__aeabi_i2d>
 80040a4:	4622      	mov	r2, r4
 80040a6:	462b      	mov	r3, r5
 80040a8:	f7fc fd3e 	bl	8000b28 <__aeabi_dcmpeq>
 80040ac:	b900      	cbnz	r0, 80040b0 <_dtoa_r+0x168>
 80040ae:	3f01      	subs	r7, #1
 80040b0:	2f16      	cmp	r7, #22
 80040b2:	d851      	bhi.n	8004158 <_dtoa_r+0x210>
 80040b4:	4b5b      	ldr	r3, [pc, #364]	@ (8004224 <_dtoa_r+0x2dc>)
 80040b6:	eb03 03c7 	add.w	r3, r3, r7, lsl #3
 80040ba:	e9d3 2300 	ldrd	r2, r3, [r3]
 80040be:	e9dd 010c 	ldrd	r0, r1, [sp, #48]	@ 0x30
 80040c2:	f7fc fd3b 	bl	8000b3c <__aeabi_dcmplt>
 80040c6:	2800      	cmp	r0, #0
 80040c8:	d048      	beq.n	800415c <_dtoa_r+0x214>
 80040ca:	3f01      	subs	r7, #1
 80040cc:	2300      	movs	r3, #0
 80040ce:	9312      	str	r3, [sp, #72]	@ 0x48
 80040d0:	9b16      	ldr	r3, [sp, #88]	@ 0x58
 80040d2:	1b9b      	subs	r3, r3, r6
 80040d4:	1e5a      	subs	r2, r3, #1
 80040d6:	bf44      	itt	mi
 80040d8:	f1c3 0801 	rsbmi	r8, r3, #1
 80040dc:	2300      	movmi	r3, #0
 80040de:	9208      	str	r2, [sp, #32]
 80040e0:	bf54      	ite	pl
 80040e2:	f04f 0800 	movpl.w	r8, #0
 80040e6:	9308      	strmi	r3, [sp, #32]
 80040e8:	2f00      	cmp	r7, #0
 80040ea:	db39      	blt.n	8004160 <_dtoa_r+0x218>
 80040ec:	9b08      	ldr	r3, [sp, #32]
 80040ee:	970f      	str	r7, [sp, #60]	@ 0x3c
 80040f0:	443b      	add	r3, r7
 80040f2:	9308      	str	r3, [sp, #32]
 80040f4:	2300      	movs	r3, #0
 80040f6:	930a      	str	r3, [sp, #40]	@ 0x28
 80040f8:	9b09      	ldr	r3, [sp, #36]	@ 0x24
 80040fa:	2b09      	cmp	r3, #9
 80040fc:	d864      	bhi.n	80041c8 <_dtoa_r+0x280>
 80040fe:	2b05      	cmp	r3, #5
 8004100:	bfc4      	itt	gt
 8004102:	3b04      	subgt	r3, #4
 8004104:	9309      	strgt	r3, [sp, #36]	@ 0x24
 8004106:	9b09      	ldr	r3, [sp, #36]	@ 0x24
 8004108:	f1a3 0302 	sub.w	r3, r3, #2
 800410c:	bfcc      	ite	gt
 800410e:	2400      	movgt	r4, #0
 8004110:	2401      	movle	r4, #1
 8004112:	2b03      	cmp	r3, #3
 8004114:	d863      	bhi.n	80041de <_dtoa_r+0x296>
 8004116:	e8df f003 	tbb	[pc, r3]
 800411a:	372a      	.short	0x372a
 800411c:	5535      	.short	0x5535
 800411e:	e9dd 6316 	ldrd	r6, r3, [sp, #88]	@ 0x58
 8004122:	441e      	add	r6, r3
 8004124:	f206 4332 	addw	r3, r6, #1074	@ 0x432
 8004128:	2b20      	cmp	r3, #32
 800412a:	bfc1      	itttt	gt
 800412c:	f1c3 0340 	rsbgt	r3, r3, #64	@ 0x40
 8004130:	409f      	lslgt	r7, r3
 8004132:	f206 4312 	addwgt	r3, r6, #1042	@ 0x412
 8004136:	fa24 f303 	lsrgt.w	r3, r4, r3
 800413a:	bfd6      	itet	le
 800413c:	f1c3 0320 	rsble	r3, r3, #32
 8004140:	ea47 0003 	orrgt.w	r0, r7, r3
 8004144:	fa04 f003 	lslle.w	r0, r4, r3
 8004148:	f7fc fa0c 	bl	8000564 <__aeabi_ui2d>
 800414c:	2201      	movs	r2, #1
 800414e:	f1a1 73f8 	sub.w	r3, r1, #32505856	@ 0x1f00000
 8004152:	3e01      	subs	r6, #1
 8004154:	9214      	str	r2, [sp, #80]	@ 0x50
 8004156:	e777      	b.n	8004048 <_dtoa_r+0x100>
 8004158:	2301      	movs	r3, #1
 800415a:	e7b8      	b.n	80040ce <_dtoa_r+0x186>
 800415c:	9012      	str	r0, [sp, #72]	@ 0x48
 800415e:	e7b7      	b.n	80040d0 <_dtoa_r+0x188>
 8004160:	427b      	negs	r3, r7
 8004162:	930a      	str	r3, [sp, #40]	@ 0x28
 8004164:	2300      	movs	r3, #0
 8004166:	eba8 0807 	sub.w	r8, r8, r7
 800416a:	930f      	str	r3, [sp, #60]	@ 0x3c
 800416c:	e7c4      	b.n	80040f8 <_dtoa_r+0x1b0>
 800416e:	2300      	movs	r3, #0
 8004170:	930b      	str	r3, [sp, #44]	@ 0x2c
 8004172:	9b0e      	ldr	r3, [sp, #56]	@ 0x38
 8004174:	2b00      	cmp	r3, #0
 8004176:	dc35      	bgt.n	80041e4 <_dtoa_r+0x29c>
 8004178:	2301      	movs	r3, #1
 800417a:	9300      	str	r3, [sp, #0]
 800417c:	9307      	str	r3, [sp, #28]
 800417e:	461a      	mov	r2, r3
 8004180:	920e      	str	r2, [sp, #56]	@ 0x38
 8004182:	e00b      	b.n	800419c <_dtoa_r+0x254>
 8004184:	2301      	movs	r3, #1
 8004186:	e7f3      	b.n	8004170 <_dtoa_r+0x228>
 8004188:	2300      	movs	r3, #0
 800418a:	930b      	str	r3, [sp, #44]	@ 0x2c
 800418c:	9b0e      	ldr	r3, [sp, #56]	@ 0x38
 800418e:	18fb      	adds	r3, r7, r3
 8004190:	9300      	str	r3, [sp, #0]
 8004192:	3301      	adds	r3, #1
 8004194:	2b01      	cmp	r3, #1
 8004196:	9307      	str	r3, [sp, #28]
 8004198:	bfb8      	it	lt
 800419a:	2301      	movlt	r3, #1
 800419c:	f8db 001c 	ldr.w	r0, [fp, #28]
 80041a0:	2100      	movs	r1, #0
 80041a2:	2204      	movs	r2, #4
 80041a4:	f102 0514 	add.w	r5, r2, #20
 80041a8:	429d      	cmp	r5, r3
 80041aa:	d91f      	bls.n	80041ec <_dtoa_r+0x2a4>
 80041ac:	6041      	str	r1, [r0, #4]
 80041ae:	4658      	mov	r0, fp
 80041b0:	f000 fd8e 	bl	8004cd0 <_Balloc>
 80041b4:	4682      	mov	sl, r0
 80041b6:	2800      	cmp	r0, #0
 80041b8:	d13c      	bne.n	8004234 <_dtoa_r+0x2ec>
 80041ba:	4b1b      	ldr	r3, [pc, #108]	@ (8004228 <_dtoa_r+0x2e0>)
 80041bc:	4602      	mov	r2, r0
 80041be:	f240 11af 	movw	r1, #431	@ 0x1af
 80041c2:	e6d8      	b.n	8003f76 <_dtoa_r+0x2e>
 80041c4:	2301      	movs	r3, #1
 80041c6:	e7e0      	b.n	800418a <_dtoa_r+0x242>
 80041c8:	2401      	movs	r4, #1
 80041ca:	2300      	movs	r3, #0
 80041cc:	9309      	str	r3, [sp, #36]	@ 0x24
 80041ce:	940b      	str	r4, [sp, #44]	@ 0x2c
 80041d0:	f04f 33ff 	mov.w	r3, #4294967295
 80041d4:	9300      	str	r3, [sp, #0]
 80041d6:	9307      	str	r3, [sp, #28]
 80041d8:	2200      	movs	r2, #0
 80041da:	2312      	movs	r3, #18
 80041dc:	e7d0      	b.n	8004180 <_dtoa_r+0x238>
 80041de:	2301      	movs	r3, #1
 80041e0:	930b      	str	r3, [sp, #44]	@ 0x2c
 80041e2:	e7f5      	b.n	80041d0 <_dtoa_r+0x288>
 80041e4:	9b0e      	ldr	r3, [sp, #56]	@ 0x38
 80041e6:	9300      	str	r3, [sp, #0]
 80041e8:	9307      	str	r3, [sp, #28]
 80041ea:	e7d7      	b.n	800419c <_dtoa_r+0x254>
 80041ec:	3101      	adds	r1, #1
 80041ee:	0052      	lsls	r2, r2, #1
 80041f0:	e7d8      	b.n	80041a4 <_dtoa_r+0x25c>
 80041f2:	bf00      	nop
 80041f4:	f3af 8000 	nop.w
 80041f8:	636f4361 	.word	0x636f4361
 80041fc:	3fd287a7 	.word	0x3fd287a7
 8004200:	8b60c8b3 	.word	0x8b60c8b3
 8004204:	3fc68a28 	.word	0x3fc68a28
 8004208:	509f79fb 	.word	0x509f79fb
 800420c:	3fd34413 	.word	0x3fd34413
 8004210:	08007062 	.word	0x08007062
 8004214:	08007079 	.word	0x08007079
 8004218:	7ff00000 	.word	0x7ff00000
 800421c:	08007032 	.word	0x08007032
 8004220:	3ff80000 	.word	0x3ff80000
 8004224:	08007170 	.word	0x08007170
 8004228:	080070d1 	.word	0x080070d1
 800422c:	0800705e 	.word	0x0800705e
 8004230:	08007031 	.word	0x08007031
 8004234:	f8db 301c 	ldr.w	r3, [fp, #28]
 8004238:	6018      	str	r0, [r3, #0]
 800423a:	9b07      	ldr	r3, [sp, #28]
 800423c:	2b0e      	cmp	r3, #14
 800423e:	f200 80a4 	bhi.w	800438a <_dtoa_r+0x442>
 8004242:	2c00      	cmp	r4, #0
 8004244:	f000 80a1 	beq.w	800438a <_dtoa_r+0x442>
 8004248:	2f00      	cmp	r7, #0
 800424a:	dd33      	ble.n	80042b4 <_dtoa_r+0x36c>
 800424c:	4bad      	ldr	r3, [pc, #692]	@ (8004504 <_dtoa_r+0x5bc>)
 800424e:	f007 020f 	and.w	r2, r7, #15
 8004252:	eb03 03c2 	add.w	r3, r3, r2, lsl #3
 8004256:	ed93 7b00 	vldr	d7, [r3]
 800425a:	05f8      	lsls	r0, r7, #23
 800425c:	ed8d 7b04 	vstr	d7, [sp, #16]
 8004260:	ea4f 1427 	mov.w	r4, r7, asr #4
 8004264:	d516      	bpl.n	8004294 <_dtoa_r+0x34c>
 8004266:	4ba8      	ldr	r3, [pc, #672]	@ (8004508 <_dtoa_r+0x5c0>)
 8004268:	e9dd 010c 	ldrd	r0, r1, [sp, #48]	@ 0x30
 800426c:	e9d3 2308 	ldrd	r2, r3, [r3, #32]
 8004270:	f7fc fb1c 	bl	80008ac <__aeabi_ddiv>
 8004274:	e9cd 0102 	strd	r0, r1, [sp, #8]
 8004278:	f004 040f 	and.w	r4, r4, #15
 800427c:	2603      	movs	r6, #3
 800427e:	4da2      	ldr	r5, [pc, #648]	@ (8004508 <_dtoa_r+0x5c0>)
 8004280:	b954      	cbnz	r4, 8004298 <_dtoa_r+0x350>
 8004282:	e9dd 2304 	ldrd	r2, r3, [sp, #16]
 8004286:	e9dd 0102 	ldrd	r0, r1, [sp, #8]
 800428a:	f7fc fb0f 	bl	80008ac <__aeabi_ddiv>
 800428e:	e9cd 0102 	strd	r0, r1, [sp, #8]
 8004292:	e028      	b.n	80042e6 <_dtoa_r+0x39e>
 8004294:	2602      	movs	r6, #2
 8004296:	e7f2      	b.n	800427e <_dtoa_r+0x336>
 8004298:	07e1      	lsls	r1, r4, #31
 800429a:	d508      	bpl.n	80042ae <_dtoa_r+0x366>
 800429c:	e9dd 0104 	ldrd	r0, r1, [sp, #16]
 80042a0:	e9d5 2300 	ldrd	r2, r3, [r5]
 80042a4:	f7fc f9d8 	bl	8000658 <__aeabi_dmul>
 80042a8:	e9cd 0104 	strd	r0, r1, [sp, #16]
 80042ac:	3601      	adds	r6, #1
 80042ae:	1064      	asrs	r4, r4, #1
 80042b0:	3508      	adds	r5, #8
 80042b2:	e7e5      	b.n	8004280 <_dtoa_r+0x338>
 80042b4:	f000 80d2 	beq.w	800445c <_dtoa_r+0x514>
 80042b8:	427c      	negs	r4, r7
 80042ba:	4b92      	ldr	r3, [pc, #584]	@ (8004504 <_dtoa_r+0x5bc>)
 80042bc:	4d92      	ldr	r5, [pc, #584]	@ (8004508 <_dtoa_r+0x5c0>)
 80042be:	f004 020f 	and.w	r2, r4, #15
 80042c2:	eb03 03c2 	add.w	r3, r3, r2, lsl #3
 80042c6:	e9d3 2300 	ldrd	r2, r3, [r3]
 80042ca:	e9dd 010c 	ldrd	r0, r1, [sp, #48]	@ 0x30
 80042ce:	f7fc f9c3 	bl	8000658 <__aeabi_dmul>
 80042d2:	e9cd 0102 	strd	r0, r1, [sp, #8]
 80042d6:	1124      	asrs	r4, r4, #4
 80042d8:	2300      	movs	r3, #0
 80042da:	2602      	movs	r6, #2
 80042dc:	2c00      	cmp	r4, #0
 80042de:	f040 80b2 	bne.w	8004446 <_dtoa_r+0x4fe>
 80042e2:	2b00      	cmp	r3, #0
 80042e4:	d1d3      	bne.n	800428e <_dtoa_r+0x346>
 80042e6:	9b12      	ldr	r3, [sp, #72]	@ 0x48
 80042e8:	e9dd 4502 	ldrd	r4, r5, [sp, #8]
 80042ec:	2b00      	cmp	r3, #0
 80042ee:	f000 80b7 	beq.w	8004460 <_dtoa_r+0x518>
 80042f2:	4b86      	ldr	r3, [pc, #536]	@ (800450c <_dtoa_r+0x5c4>)
 80042f4:	2200      	movs	r2, #0
 80042f6:	4620      	mov	r0, r4
 80042f8:	4629      	mov	r1, r5
 80042fa:	f7fc fc1f 	bl	8000b3c <__aeabi_dcmplt>
 80042fe:	2800      	cmp	r0, #0
 8004300:	f000 80ae 	beq.w	8004460 <_dtoa_r+0x518>
 8004304:	9b07      	ldr	r3, [sp, #28]
 8004306:	2b00      	cmp	r3, #0
 8004308:	f000 80aa 	beq.w	8004460 <_dtoa_r+0x518>
 800430c:	9b00      	ldr	r3, [sp, #0]
 800430e:	2b00      	cmp	r3, #0
 8004310:	dd37      	ble.n	8004382 <_dtoa_r+0x43a>
 8004312:	1e7b      	subs	r3, r7, #1
 8004314:	9304      	str	r3, [sp, #16]
 8004316:	4620      	mov	r0, r4
 8004318:	4b7d      	ldr	r3, [pc, #500]	@ (8004510 <_dtoa_r+0x5c8>)
 800431a:	2200      	movs	r2, #0
 800431c:	4629      	mov	r1, r5
 800431e:	f7fc f99b 	bl	8000658 <__aeabi_dmul>
 8004322:	e9cd 0102 	strd	r0, r1, [sp, #8]
 8004326:	9c00      	ldr	r4, [sp, #0]
 8004328:	3601      	adds	r6, #1
 800432a:	4630      	mov	r0, r6
 800432c:	f7fc f92a 	bl	8000584 <__aeabi_i2d>
 8004330:	e9dd 2302 	ldrd	r2, r3, [sp, #8]
 8004334:	f7fc f990 	bl	8000658 <__aeabi_dmul>
 8004338:	4b76      	ldr	r3, [pc, #472]	@ (8004514 <_dtoa_r+0x5cc>)
 800433a:	2200      	movs	r2, #0
 800433c:	f7fb ffd6 	bl	80002ec <__adddf3>
 8004340:	4605      	mov	r5, r0
 8004342:	f1a1 7650 	sub.w	r6, r1, #54525952	@ 0x3400000
 8004346:	2c00      	cmp	r4, #0
 8004348:	f040 808d 	bne.w	8004466 <_dtoa_r+0x51e>
 800434c:	e9dd 0102 	ldrd	r0, r1, [sp, #8]
 8004350:	4b71      	ldr	r3, [pc, #452]	@ (8004518 <_dtoa_r+0x5d0>)
 8004352:	2200      	movs	r2, #0
 8004354:	f7fb ffc8 	bl	80002e8 <__aeabi_dsub>
 8004358:	4602      	mov	r2, r0
 800435a:	460b      	mov	r3, r1
 800435c:	e9cd 2302 	strd	r2, r3, [sp, #8]
 8004360:	462a      	mov	r2, r5
 8004362:	4633      	mov	r3, r6
 8004364:	f7fc fc08 	bl	8000b78 <__aeabi_dcmpgt>
 8004368:	2800      	cmp	r0, #0
 800436a:	f040 828b 	bne.w	8004884 <_dtoa_r+0x93c>
 800436e:	e9dd 0102 	ldrd	r0, r1, [sp, #8]
 8004372:	462a      	mov	r2, r5
 8004374:	f106 4300 	add.w	r3, r6, #2147483648	@ 0x80000000
 8004378:	f7fc fbe0 	bl	8000b3c <__aeabi_dcmplt>
 800437c:	2800      	cmp	r0, #0
 800437e:	f040 8128 	bne.w	80045d2 <_dtoa_r+0x68a>
 8004382:	e9dd 340c 	ldrd	r3, r4, [sp, #48]	@ 0x30
 8004386:	e9cd 3402 	strd	r3, r4, [sp, #8]
 800438a:	9b17      	ldr	r3, [sp, #92]	@ 0x5c
 800438c:	2b00      	cmp	r3, #0
 800438e:	f2c0 815a 	blt.w	8004646 <_dtoa_r+0x6fe>
 8004392:	2f0e      	cmp	r7, #14
 8004394:	f300 8157 	bgt.w	8004646 <_dtoa_r+0x6fe>
 8004398:	4b5a      	ldr	r3, [pc, #360]	@ (8004504 <_dtoa_r+0x5bc>)
 800439a:	eb03 03c7 	add.w	r3, r3, r7, lsl #3
 800439e:	ed93 7b00 	vldr	d7, [r3]
 80043a2:	9b0e      	ldr	r3, [sp, #56]	@ 0x38
 80043a4:	2b00      	cmp	r3, #0
 80043a6:	ed8d 7b00 	vstr	d7, [sp]
 80043aa:	da03      	bge.n	80043b4 <_dtoa_r+0x46c>
 80043ac:	9b07      	ldr	r3, [sp, #28]
 80043ae:	2b00      	cmp	r3, #0
 80043b0:	f340 8101 	ble.w	80045b6 <_dtoa_r+0x66e>
 80043b4:	e9dd 4502 	ldrd	r4, r5, [sp, #8]
 80043b8:	4656      	mov	r6, sl
 80043ba:	e9dd 2300 	ldrd	r2, r3, [sp]
 80043be:	4620      	mov	r0, r4
 80043c0:	4629      	mov	r1, r5
 80043c2:	f7fc fa73 	bl	80008ac <__aeabi_ddiv>
 80043c6:	f7fc fbf7 	bl	8000bb8 <__aeabi_d2iz>
 80043ca:	4680      	mov	r8, r0
 80043cc:	f7fc f8da 	bl	8000584 <__aeabi_i2d>
 80043d0:	e9dd 2300 	ldrd	r2, r3, [sp]
 80043d4:	f7fc f940 	bl	8000658 <__aeabi_dmul>
 80043d8:	4602      	mov	r2, r0
 80043da:	460b      	mov	r3, r1
 80043dc:	4620      	mov	r0, r4
 80043de:	4629      	mov	r1, r5
 80043e0:	f108 0430 	add.w	r4, r8, #48	@ 0x30
 80043e4:	f7fb ff80 	bl	80002e8 <__aeabi_dsub>
 80043e8:	f806 4b01 	strb.w	r4, [r6], #1
 80043ec:	9d07      	ldr	r5, [sp, #28]
 80043ee:	eba6 040a 	sub.w	r4, r6, sl
 80043f2:	42a5      	cmp	r5, r4
 80043f4:	4602      	mov	r2, r0
 80043f6:	460b      	mov	r3, r1
 80043f8:	f040 8117 	bne.w	800462a <_dtoa_r+0x6e2>
 80043fc:	f7fb ff76 	bl	80002ec <__adddf3>
 8004400:	e9dd 2300 	ldrd	r2, r3, [sp]
 8004404:	4604      	mov	r4, r0
 8004406:	460d      	mov	r5, r1
 8004408:	f7fc fbb6 	bl	8000b78 <__aeabi_dcmpgt>
 800440c:	2800      	cmp	r0, #0
 800440e:	f040 80f9 	bne.w	8004604 <_dtoa_r+0x6bc>
 8004412:	e9dd 2300 	ldrd	r2, r3, [sp]
 8004416:	4620      	mov	r0, r4
 8004418:	4629      	mov	r1, r5
 800441a:	f7fc fb85 	bl	8000b28 <__aeabi_dcmpeq>
 800441e:	b118      	cbz	r0, 8004428 <_dtoa_r+0x4e0>
 8004420:	f018 0f01 	tst.w	r8, #1
 8004424:	f040 80ee 	bne.w	8004604 <_dtoa_r+0x6bc>
 8004428:	4649      	mov	r1, r9
 800442a:	4658      	mov	r0, fp
 800442c:	f000 fc90 	bl	8004d50 <_Bfree>
 8004430:	2300      	movs	r3, #0
 8004432:	7033      	strb	r3, [r6, #0]
 8004434:	9b13      	ldr	r3, [sp, #76]	@ 0x4c
 8004436:	3701      	adds	r7, #1
 8004438:	601f      	str	r7, [r3, #0]
 800443a:	9b23      	ldr	r3, [sp, #140]	@ 0x8c
 800443c:	2b00      	cmp	r3, #0
 800443e:	f000 831d 	beq.w	8004a7c <_dtoa_r+0xb34>
 8004442:	601e      	str	r6, [r3, #0]
 8004444:	e31a      	b.n	8004a7c <_dtoa_r+0xb34>
 8004446:	07e2      	lsls	r2, r4, #31
 8004448:	d505      	bpl.n	8004456 <_dtoa_r+0x50e>
 800444a:	e9d5 2300 	ldrd	r2, r3, [r5]
 800444e:	f7fc f903 	bl	8000658 <__aeabi_dmul>
 8004452:	3601      	adds	r6, #1
 8004454:	2301      	movs	r3, #1
 8004456:	1064      	asrs	r4, r4, #1
 8004458:	3508      	adds	r5, #8
 800445a:	e73f      	b.n	80042dc <_dtoa_r+0x394>
 800445c:	2602      	movs	r6, #2
 800445e:	e742      	b.n	80042e6 <_dtoa_r+0x39e>
 8004460:	9c07      	ldr	r4, [sp, #28]
 8004462:	9704      	str	r7, [sp, #16]
 8004464:	e761      	b.n	800432a <_dtoa_r+0x3e2>
 8004466:	4b27      	ldr	r3, [pc, #156]	@ (8004504 <_dtoa_r+0x5bc>)
 8004468:	990b      	ldr	r1, [sp, #44]	@ 0x2c
 800446a:	eb03 03c4 	add.w	r3, r3, r4, lsl #3
 800446e:	e953 2302 	ldrd	r2, r3, [r3, #-8]
 8004472:	4454      	add	r4, sl
 8004474:	2900      	cmp	r1, #0
 8004476:	d053      	beq.n	8004520 <_dtoa_r+0x5d8>
 8004478:	4928      	ldr	r1, [pc, #160]	@ (800451c <_dtoa_r+0x5d4>)
 800447a:	2000      	movs	r0, #0
 800447c:	f7fc fa16 	bl	80008ac <__aeabi_ddiv>
 8004480:	4633      	mov	r3, r6
 8004482:	462a      	mov	r2, r5
 8004484:	f7fb ff30 	bl	80002e8 <__aeabi_dsub>
 8004488:	e9cd 0110 	strd	r0, r1, [sp, #64]	@ 0x40
 800448c:	4656      	mov	r6, sl
 800448e:	e9dd 0102 	ldrd	r0, r1, [sp, #8]
 8004492:	f7fc fb91 	bl	8000bb8 <__aeabi_d2iz>
 8004496:	4605      	mov	r5, r0
 8004498:	f7fc f874 	bl	8000584 <__aeabi_i2d>
 800449c:	4602      	mov	r2, r0
 800449e:	460b      	mov	r3, r1
 80044a0:	e9dd 0102 	ldrd	r0, r1, [sp, #8]
 80044a4:	f7fb ff20 	bl	80002e8 <__aeabi_dsub>
 80044a8:	3530      	adds	r5, #48	@ 0x30
 80044aa:	4602      	mov	r2, r0
 80044ac:	460b      	mov	r3, r1
 80044ae:	e9cd 2302 	strd	r2, r3, [sp, #8]
 80044b2:	f806 5b01 	strb.w	r5, [r6], #1
 80044b6:	e9dd 2310 	ldrd	r2, r3, [sp, #64]	@ 0x40
 80044ba:	f7fc fb3f 	bl	8000b3c <__aeabi_dcmplt>
 80044be:	2800      	cmp	r0, #0
 80044c0:	d171      	bne.n	80045a6 <_dtoa_r+0x65e>
 80044c2:	e9dd 2302 	ldrd	r2, r3, [sp, #8]
 80044c6:	4911      	ldr	r1, [pc, #68]	@ (800450c <_dtoa_r+0x5c4>)
 80044c8:	2000      	movs	r0, #0
 80044ca:	f7fb ff0d 	bl	80002e8 <__aeabi_dsub>
 80044ce:	e9dd 2310 	ldrd	r2, r3, [sp, #64]	@ 0x40
 80044d2:	f7fc fb33 	bl	8000b3c <__aeabi_dcmplt>
 80044d6:	2800      	cmp	r0, #0
 80044d8:	f040 8095 	bne.w	8004606 <_dtoa_r+0x6be>
 80044dc:	42a6      	cmp	r6, r4
 80044de:	f43f af50 	beq.w	8004382 <_dtoa_r+0x43a>
 80044e2:	e9dd 0110 	ldrd	r0, r1, [sp, #64]	@ 0x40
 80044e6:	4b0a      	ldr	r3, [pc, #40]	@ (8004510 <_dtoa_r+0x5c8>)
 80044e8:	2200      	movs	r2, #0
 80044ea:	f7fc f8b5 	bl	8000658 <__aeabi_dmul>
 80044ee:	4b08      	ldr	r3, [pc, #32]	@ (8004510 <_dtoa_r+0x5c8>)
 80044f0:	e9cd 0110 	strd	r0, r1, [sp, #64]	@ 0x40
 80044f4:	2200      	movs	r2, #0
 80044f6:	e9dd 0102 	ldrd	r0, r1, [sp, #8]
 80044fa:	f7fc f8ad 	bl	8000658 <__aeabi_dmul>
 80044fe:	e9cd 0102 	strd	r0, r1, [sp, #8]
 8004502:	e7c4      	b.n	800448e <_dtoa_r+0x546>
 8004504:	08007170 	.word	0x08007170
 8004508:	08007148 	.word	0x08007148
 800450c:	3ff00000 	.word	0x3ff00000
 8004510:	40240000 	.word	0x40240000
 8004514:	401c0000 	.word	0x401c0000
 8004518:	40140000 	.word	0x40140000
 800451c:	3fe00000 	.word	0x3fe00000
 8004520:	4631      	mov	r1, r6
 8004522:	4628      	mov	r0, r5
 8004524:	f7fc f898 	bl	8000658 <__aeabi_dmul>
 8004528:	e9cd 0110 	strd	r0, r1, [sp, #64]	@ 0x40
 800452c:	9415      	str	r4, [sp, #84]	@ 0x54
 800452e:	4656      	mov	r6, sl
 8004530:	e9dd 0102 	ldrd	r0, r1, [sp, #8]
 8004534:	f7fc fb40 	bl	8000bb8 <__aeabi_d2iz>
 8004538:	4605      	mov	r5, r0
 800453a:	f7fc f823 	bl	8000584 <__aeabi_i2d>
 800453e:	4602      	mov	r2, r0
 8004540:	460b      	mov	r3, r1
 8004542:	e9dd 0102 	ldrd	r0, r1, [sp, #8]
 8004546:	f7fb fecf 	bl	80002e8 <__aeabi_dsub>
 800454a:	3530      	adds	r5, #48	@ 0x30
 800454c:	f806 5b01 	strb.w	r5, [r6], #1
 8004550:	4602      	mov	r2, r0
 8004552:	460b      	mov	r3, r1
 8004554:	42a6      	cmp	r6, r4
 8004556:	e9cd 2302 	strd	r2, r3, [sp, #8]
 800455a:	f04f 0200 	mov.w	r2, #0
 800455e:	d124      	bne.n	80045aa <_dtoa_r+0x662>
 8004560:	4bac      	ldr	r3, [pc, #688]	@ (8004814 <_dtoa_r+0x8cc>)
 8004562:	e9dd 0110 	ldrd	r0, r1, [sp, #64]	@ 0x40
 8004566:	f7fb fec1 	bl	80002ec <__adddf3>
 800456a:	4602      	mov	r2, r0
 800456c:	460b      	mov	r3, r1
 800456e:	e9dd 0102 	ldrd	r0, r1, [sp, #8]
 8004572:	f7fc fb01 	bl	8000b78 <__aeabi_dcmpgt>
 8004576:	2800      	cmp	r0, #0
 8004578:	d145      	bne.n	8004606 <_dtoa_r+0x6be>
 800457a:	e9dd 2310 	ldrd	r2, r3, [sp, #64]	@ 0x40
 800457e:	49a5      	ldr	r1, [pc, #660]	@ (8004814 <_dtoa_r+0x8cc>)
 8004580:	2000      	movs	r0, #0
 8004582:	f7fb feb1 	bl	80002e8 <__aeabi_dsub>
 8004586:	4602      	mov	r2, r0
 8004588:	460b      	mov	r3, r1
 800458a:	e9dd 0102 	ldrd	r0, r1, [sp, #8]
 800458e:	f7fc fad5 	bl	8000b3c <__aeabi_dcmplt>
 8004592:	2800      	cmp	r0, #0
 8004594:	f43f aef5 	beq.w	8004382 <_dtoa_r+0x43a>
 8004598:	9e15      	ldr	r6, [sp, #84]	@ 0x54
 800459a:	1e73      	subs	r3, r6, #1
 800459c:	9315      	str	r3, [sp, #84]	@ 0x54
 800459e:	f816 3c01 	ldrb.w	r3, [r6, #-1]
 80045a2:	2b30      	cmp	r3, #48	@ 0x30
 80045a4:	d0f8      	beq.n	8004598 <_dtoa_r+0x650>
 80045a6:	9f04      	ldr	r7, [sp, #16]
 80045a8:	e73e      	b.n	8004428 <_dtoa_r+0x4e0>
 80045aa:	4b9b      	ldr	r3, [pc, #620]	@ (8004818 <_dtoa_r+0x8d0>)
 80045ac:	f7fc f854 	bl	8000658 <__aeabi_dmul>
 80045b0:	e9cd 0102 	strd	r0, r1, [sp, #8]
 80045b4:	e7bc      	b.n	8004530 <_dtoa_r+0x5e8>
 80045b6:	d10c      	bne.n	80045d2 <_dtoa_r+0x68a>
 80045b8:	4b98      	ldr	r3, [pc, #608]	@ (800481c <_dtoa_r+0x8d4>)
 80045ba:	2200      	movs	r2, #0
 80045bc:	e9dd 0100 	ldrd	r0, r1, [sp]
 80045c0:	f7fc f84a 	bl	8000658 <__aeabi_dmul>
 80045c4:	e9dd 2302 	ldrd	r2, r3, [sp, #8]
 80045c8:	f7fc facc 	bl	8000b64 <__aeabi_dcmpge>
 80045cc:	2800      	cmp	r0, #0
 80045ce:	f000 8157 	beq.w	8004880 <_dtoa_r+0x938>
 80045d2:	2400      	movs	r4, #0
 80045d4:	4625      	mov	r5, r4
 80045d6:	9b0e      	ldr	r3, [sp, #56]	@ 0x38
 80045d8:	43db      	mvns	r3, r3
 80045da:	9304      	str	r3, [sp, #16]
 80045dc:	4656      	mov	r6, sl
 80045de:	2700      	movs	r7, #0
 80045e0:	4621      	mov	r1, r4
 80045e2:	4658      	mov	r0, fp
 80045e4:	f000 fbb4 	bl	8004d50 <_Bfree>
 80045e8:	2d00      	cmp	r5, #0
 80045ea:	d0dc      	beq.n	80045a6 <_dtoa_r+0x65e>
 80045ec:	b12f      	cbz	r7, 80045fa <_dtoa_r+0x6b2>
 80045ee:	42af      	cmp	r7, r5
 80045f0:	d003      	beq.n	80045fa <_dtoa_r+0x6b2>
 80045f2:	4639      	mov	r1, r7
 80045f4:	4658      	mov	r0, fp
 80045f6:	f000 fbab 	bl	8004d50 <_Bfree>
 80045fa:	4629      	mov	r1, r5
 80045fc:	4658      	mov	r0, fp
 80045fe:	f000 fba7 	bl	8004d50 <_Bfree>
 8004602:	e7d0      	b.n	80045a6 <_dtoa_r+0x65e>
 8004604:	9704      	str	r7, [sp, #16]
 8004606:	4633      	mov	r3, r6
 8004608:	461e      	mov	r6, r3
 800460a:	f813 2d01 	ldrb.w	r2, [r3, #-1]!
 800460e:	2a39      	cmp	r2, #57	@ 0x39
 8004610:	d107      	bne.n	8004622 <_dtoa_r+0x6da>
 8004612:	459a      	cmp	sl, r3
 8004614:	d1f8      	bne.n	8004608 <_dtoa_r+0x6c0>
 8004616:	9a04      	ldr	r2, [sp, #16]
 8004618:	3201      	adds	r2, #1
 800461a:	9204      	str	r2, [sp, #16]
 800461c:	2230      	movs	r2, #48	@ 0x30
 800461e:	f88a 2000 	strb.w	r2, [sl]
 8004622:	781a      	ldrb	r2, [r3, #0]
 8004624:	3201      	adds	r2, #1
 8004626:	701a      	strb	r2, [r3, #0]
 8004628:	e7bd      	b.n	80045a6 <_dtoa_r+0x65e>
 800462a:	4b7b      	ldr	r3, [pc, #492]	@ (8004818 <_dtoa_r+0x8d0>)
 800462c:	2200      	movs	r2, #0
 800462e:	f7fc f813 	bl	8000658 <__aeabi_dmul>
 8004632:	2200      	movs	r2, #0
 8004634:	2300      	movs	r3, #0
 8004636:	4604      	mov	r4, r0
 8004638:	460d      	mov	r5, r1
 800463a:	f7fc fa75 	bl	8000b28 <__aeabi_dcmpeq>
 800463e:	2800      	cmp	r0, #0
 8004640:	f43f aebb 	beq.w	80043ba <_dtoa_r+0x472>
 8004644:	e6f0      	b.n	8004428 <_dtoa_r+0x4e0>
 8004646:	9a0b      	ldr	r2, [sp, #44]	@ 0x2c
 8004648:	2a00      	cmp	r2, #0
 800464a:	f000 80db 	beq.w	8004804 <_dtoa_r+0x8bc>
 800464e:	9a09      	ldr	r2, [sp, #36]	@ 0x24
 8004650:	2a01      	cmp	r2, #1
 8004652:	f300 80bf 	bgt.w	80047d4 <_dtoa_r+0x88c>
 8004656:	9a14      	ldr	r2, [sp, #80]	@ 0x50
 8004658:	2a00      	cmp	r2, #0
 800465a:	f000 80b7 	beq.w	80047cc <_dtoa_r+0x884>
 800465e:	f203 4333 	addw	r3, r3, #1075	@ 0x433
 8004662:	9c0a      	ldr	r4, [sp, #40]	@ 0x28
 8004664:	4646      	mov	r6, r8
 8004666:	9a08      	ldr	r2, [sp, #32]
 8004668:	2101      	movs	r1, #1
 800466a:	441a      	add	r2, r3
 800466c:	4658      	mov	r0, fp
 800466e:	4498      	add	r8, r3
 8004670:	9208      	str	r2, [sp, #32]
 8004672:	f000 fc21 	bl	8004eb8 <__i2b>
 8004676:	4605      	mov	r5, r0
 8004678:	b15e      	cbz	r6, 8004692 <_dtoa_r+0x74a>
 800467a:	9b08      	ldr	r3, [sp, #32]
 800467c:	2b00      	cmp	r3, #0
 800467e:	dd08      	ble.n	8004692 <_dtoa_r+0x74a>
 8004680:	42b3      	cmp	r3, r6
 8004682:	9a08      	ldr	r2, [sp, #32]
 8004684:	bfa8      	it	ge
 8004686:	4633      	movge	r3, r6
 8004688:	eba8 0803 	sub.w	r8, r8, r3
 800468c:	1af6      	subs	r6, r6, r3
 800468e:	1ad3      	subs	r3, r2, r3
 8004690:	9308      	str	r3, [sp, #32]
 8004692:	9b0a      	ldr	r3, [sp, #40]	@ 0x28
 8004694:	b1f3      	cbz	r3, 80046d4 <_dtoa_r+0x78c>
 8004696:	9b0b      	ldr	r3, [sp, #44]	@ 0x2c
 8004698:	2b00      	cmp	r3, #0
 800469a:	f000 80b7 	beq.w	800480c <_dtoa_r+0x8c4>
 800469e:	b18c      	cbz	r4, 80046c4 <_dtoa_r+0x77c>
 80046a0:	4629      	mov	r1, r5
 80046a2:	4622      	mov	r2, r4
 80046a4:	4658      	mov	r0, fp
 80046a6:	f000 fcc7 	bl	8005038 <__pow5mult>
 80046aa:	464a      	mov	r2, r9
 80046ac:	4601      	mov	r1, r0
 80046ae:	4605      	mov	r5, r0
 80046b0:	4658      	mov	r0, fp
 80046b2:	f000 fc17 	bl	8004ee4 <__multiply>
 80046b6:	4649      	mov	r1, r9
 80046b8:	9004      	str	r0, [sp, #16]
 80046ba:	4658      	mov	r0, fp
 80046bc:	f000 fb48 	bl	8004d50 <_Bfree>
 80046c0:	9b04      	ldr	r3, [sp, #16]
 80046c2:	4699      	mov	r9, r3
 80046c4:	9b0a      	ldr	r3, [sp, #40]	@ 0x28
 80046c6:	1b1a      	subs	r2, r3, r4
 80046c8:	d004      	beq.n	80046d4 <_dtoa_r+0x78c>
 80046ca:	4649      	mov	r1, r9
 80046cc:	4658      	mov	r0, fp
 80046ce:	f000 fcb3 	bl	8005038 <__pow5mult>
 80046d2:	4681      	mov	r9, r0
 80046d4:	2101      	movs	r1, #1
 80046d6:	4658      	mov	r0, fp
 80046d8:	f000 fbee 	bl	8004eb8 <__i2b>
 80046dc:	9b0f      	ldr	r3, [sp, #60]	@ 0x3c
 80046de:	4604      	mov	r4, r0
 80046e0:	2b00      	cmp	r3, #0
 80046e2:	f000 81cf 	beq.w	8004a84 <_dtoa_r+0xb3c>
 80046e6:	461a      	mov	r2, r3
 80046e8:	4601      	mov	r1, r0
 80046ea:	4658      	mov	r0, fp
 80046ec:	f000 fca4 	bl	8005038 <__pow5mult>
 80046f0:	9b09      	ldr	r3, [sp, #36]	@ 0x24
 80046f2:	2b01      	cmp	r3, #1
 80046f4:	4604      	mov	r4, r0
 80046f6:	f300 8095 	bgt.w	8004824 <_dtoa_r+0x8dc>
 80046fa:	9b02      	ldr	r3, [sp, #8]
 80046fc:	2b00      	cmp	r3, #0
 80046fe:	f040 8087 	bne.w	8004810 <_dtoa_r+0x8c8>
 8004702:	9b03      	ldr	r3, [sp, #12]
 8004704:	f3c3 0313 	ubfx	r3, r3, #0, #20
 8004708:	2b00      	cmp	r3, #0
 800470a:	f040 8089 	bne.w	8004820 <_dtoa_r+0x8d8>
 800470e:	9b03      	ldr	r3, [sp, #12]
 8004710:	f023 4300 	bic.w	r3, r3, #2147483648	@ 0x80000000
 8004714:	0d1b      	lsrs	r3, r3, #20
 8004716:	051b      	lsls	r3, r3, #20
 8004718:	b12b      	cbz	r3, 8004726 <_dtoa_r+0x7de>
 800471a:	9b08      	ldr	r3, [sp, #32]
 800471c:	3301      	adds	r3, #1
 800471e:	9308      	str	r3, [sp, #32]
 8004720:	f108 0801 	add.w	r8, r8, #1
 8004724:	2301      	movs	r3, #1
 8004726:	930a      	str	r3, [sp, #40]	@ 0x28
 8004728:	9b0f      	ldr	r3, [sp, #60]	@ 0x3c
 800472a:	2b00      	cmp	r3, #0
 800472c:	f000 81b0 	beq.w	8004a90 <_dtoa_r+0xb48>
 8004730:	6923      	ldr	r3, [r4, #16]
 8004732:	eb04 0383 	add.w	r3, r4, r3, lsl #2
 8004736:	6918      	ldr	r0, [r3, #16]
 8004738:	f000 fb72 	bl	8004e20 <__hi0bits>
 800473c:	f1c0 0020 	rsb	r0, r0, #32
 8004740:	9b08      	ldr	r3, [sp, #32]
 8004742:	4418      	add	r0, r3
 8004744:	f010 001f 	ands.w	r0, r0, #31
 8004748:	d077      	beq.n	800483a <_dtoa_r+0x8f2>
 800474a:	f1c0 0320 	rsb	r3, r0, #32
 800474e:	2b04      	cmp	r3, #4
 8004750:	dd6b      	ble.n	800482a <_dtoa_r+0x8e2>
 8004752:	9b08      	ldr	r3, [sp, #32]
 8004754:	f1c0 001c 	rsb	r0, r0, #28
 8004758:	4403      	add	r3, r0
 800475a:	4480      	add	r8, r0
 800475c:	4406      	add	r6, r0
 800475e:	9308      	str	r3, [sp, #32]
 8004760:	f1b8 0f00 	cmp.w	r8, #0
 8004764:	dd05      	ble.n	8004772 <_dtoa_r+0x82a>
 8004766:	4649      	mov	r1, r9
 8004768:	4642      	mov	r2, r8
 800476a:	4658      	mov	r0, fp
 800476c:	f000 fcbe 	bl	80050ec <__lshift>
 8004770:	4681      	mov	r9, r0
 8004772:	9b08      	ldr	r3, [sp, #32]
 8004774:	2b00      	cmp	r3, #0
 8004776:	dd05      	ble.n	8004784 <_dtoa_r+0x83c>
 8004778:	4621      	mov	r1, r4
 800477a:	461a      	mov	r2, r3
 800477c:	4658      	mov	r0, fp
 800477e:	f000 fcb5 	bl	80050ec <__lshift>
 8004782:	4604      	mov	r4, r0
 8004784:	9b12      	ldr	r3, [sp, #72]	@ 0x48
 8004786:	2b00      	cmp	r3, #0
 8004788:	d059      	beq.n	800483e <_dtoa_r+0x8f6>
 800478a:	4621      	mov	r1, r4
 800478c:	4648      	mov	r0, r9
 800478e:	f000 fd19 	bl	80051c4 <__mcmp>
 8004792:	2800      	cmp	r0, #0
 8004794:	da53      	bge.n	800483e <_dtoa_r+0x8f6>
 8004796:	1e7b      	subs	r3, r7, #1
 8004798:	9304      	str	r3, [sp, #16]
 800479a:	4649      	mov	r1, r9
 800479c:	2300      	movs	r3, #0
 800479e:	220a      	movs	r2, #10
 80047a0:	4658      	mov	r0, fp
 80047a2:	f000 faf7 	bl	8004d94 <__multadd>
 80047a6:	9b0b      	ldr	r3, [sp, #44]	@ 0x2c
 80047a8:	4681      	mov	r9, r0
 80047aa:	2b00      	cmp	r3, #0
 80047ac:	f000 8172 	beq.w	8004a94 <_dtoa_r+0xb4c>
 80047b0:	2300      	movs	r3, #0
 80047b2:	4629      	mov	r1, r5
 80047b4:	220a      	movs	r2, #10
 80047b6:	4658      	mov	r0, fp
 80047b8:	f000 faec 	bl	8004d94 <__multadd>
 80047bc:	9b00      	ldr	r3, [sp, #0]
 80047be:	2b00      	cmp	r3, #0
 80047c0:	4605      	mov	r5, r0
 80047c2:	dc67      	bgt.n	8004894 <_dtoa_r+0x94c>
 80047c4:	9b09      	ldr	r3, [sp, #36]	@ 0x24
 80047c6:	2b02      	cmp	r3, #2
 80047c8:	dc41      	bgt.n	800484e <_dtoa_r+0x906>
 80047ca:	e063      	b.n	8004894 <_dtoa_r+0x94c>
 80047cc:	9b16      	ldr	r3, [sp, #88]	@ 0x58
 80047ce:	f1c3 0336 	rsb	r3, r3, #54	@ 0x36
 80047d2:	e746      	b.n	8004662 <_dtoa_r+0x71a>
 80047d4:	9b07      	ldr	r3, [sp, #28]
 80047d6:	1e5c      	subs	r4, r3, #1
 80047d8:	9b0a      	ldr	r3, [sp, #40]	@ 0x28
 80047da:	42a3      	cmp	r3, r4
 80047dc:	bfbf      	itttt	lt
 80047de:	9b0a      	ldrlt	r3, [sp, #40]	@ 0x28
 80047e0:	9a0f      	ldrlt	r2, [sp, #60]	@ 0x3c
 80047e2:	940a      	strlt	r4, [sp, #40]	@ 0x28
 80047e4:	1ae3      	sublt	r3, r4, r3
 80047e6:	bfb4      	ite	lt
 80047e8:	18d2      	addlt	r2, r2, r3
 80047ea:	1b1c      	subge	r4, r3, r4
 80047ec:	9b07      	ldr	r3, [sp, #28]
 80047ee:	bfbc      	itt	lt
 80047f0:	920f      	strlt	r2, [sp, #60]	@ 0x3c
 80047f2:	2400      	movlt	r4, #0
 80047f4:	2b00      	cmp	r3, #0
 80047f6:	bfb5      	itete	lt
 80047f8:	eba8 0603 	sublt.w	r6, r8, r3
 80047fc:	9b07      	ldrge	r3, [sp, #28]
 80047fe:	2300      	movlt	r3, #0
 8004800:	4646      	movge	r6, r8
 8004802:	e730      	b.n	8004666 <_dtoa_r+0x71e>
 8004804:	9c0a      	ldr	r4, [sp, #40]	@ 0x28
 8004806:	9d0b      	ldr	r5, [sp, #44]	@ 0x2c
 8004808:	4646      	mov	r6, r8
 800480a:	e735      	b.n	8004678 <_dtoa_r+0x730>
 800480c:	9a0a      	ldr	r2, [sp, #40]	@ 0x28
 800480e:	e75c      	b.n	80046ca <_dtoa_r+0x782>
 8004810:	2300      	movs	r3, #0
 8004812:	e788      	b.n	8004726 <_dtoa_r+0x7de>
 8004814:	3fe00000 	.word	0x3fe00000
 8004818:	40240000 	.word	0x40240000
 800481c:	40140000 	.word	0x40140000
 8004820:	9b02      	ldr	r3, [sp, #8]
 8004822:	e780      	b.n	8004726 <_dtoa_r+0x7de>
 8004824:	2300      	movs	r3, #0
 8004826:	930a      	str	r3, [sp, #40]	@ 0x28
 8004828:	e782      	b.n	8004730 <_dtoa_r+0x7e8>
 800482a:	d099      	beq.n	8004760 <_dtoa_r+0x818>
 800482c:	9a08      	ldr	r2, [sp, #32]
 800482e:	331c      	adds	r3, #28
 8004830:	441a      	add	r2, r3
 8004832:	4498      	add	r8, r3
 8004834:	441e      	add	r6, r3
 8004836:	9208      	str	r2, [sp, #32]
 8004838:	e792      	b.n	8004760 <_dtoa_r+0x818>
 800483a:	4603      	mov	r3, r0
 800483c:	e7f6      	b.n	800482c <_dtoa_r+0x8e4>
 800483e:	9b07      	ldr	r3, [sp, #28]
 8004840:	9704      	str	r7, [sp, #16]
 8004842:	2b00      	cmp	r3, #0
 8004844:	dc20      	bgt.n	8004888 <_dtoa_r+0x940>
 8004846:	9300      	str	r3, [sp, #0]
 8004848:	9b09      	ldr	r3, [sp, #36]	@ 0x24
 800484a:	2b02      	cmp	r3, #2
 800484c:	dd1e      	ble.n	800488c <_dtoa_r+0x944>
 800484e:	9b00      	ldr	r3, [sp, #0]
 8004850:	2b00      	cmp	r3, #0
 8004852:	f47f aec0 	bne.w	80045d6 <_dtoa_r+0x68e>
 8004856:	4621      	mov	r1, r4
 8004858:	2205      	movs	r2, #5
 800485a:	4658      	mov	r0, fp
 800485c:	f000 fa9a 	bl	8004d94 <__multadd>
 8004860:	4601      	mov	r1, r0
 8004862:	4604      	mov	r4, r0
 8004864:	4648      	mov	r0, r9
 8004866:	f000 fcad 	bl	80051c4 <__mcmp>
 800486a:	2800      	cmp	r0, #0
 800486c:	f77f aeb3 	ble.w	80045d6 <_dtoa_r+0x68e>
 8004870:	4656      	mov	r6, sl
 8004872:	2331      	movs	r3, #49	@ 0x31
 8004874:	f806 3b01 	strb.w	r3, [r6], #1
 8004878:	9b04      	ldr	r3, [sp, #16]
 800487a:	3301      	adds	r3, #1
 800487c:	9304      	str	r3, [sp, #16]
 800487e:	e6ae      	b.n	80045de <_dtoa_r+0x696>
 8004880:	9c07      	ldr	r4, [sp, #28]
 8004882:	9704      	str	r7, [sp, #16]
 8004884:	4625      	mov	r5, r4
 8004886:	e7f3      	b.n	8004870 <_dtoa_r+0x928>
 8004888:	9b07      	ldr	r3, [sp, #28]
 800488a:	9300      	str	r3, [sp, #0]
 800488c:	9b0b      	ldr	r3, [sp, #44]	@ 0x2c
 800488e:	2b00      	cmp	r3, #0
 8004890:	f000 8104 	beq.w	8004a9c <_dtoa_r+0xb54>
 8004894:	2e00      	cmp	r6, #0
 8004896:	dd05      	ble.n	80048a4 <_dtoa_r+0x95c>
 8004898:	4629      	mov	r1, r5
 800489a:	4632      	mov	r2, r6
 800489c:	4658      	mov	r0, fp
 800489e:	f000 fc25 	bl	80050ec <__lshift>
 80048a2:	4605      	mov	r5, r0
 80048a4:	9b0a      	ldr	r3, [sp, #40]	@ 0x28
 80048a6:	2b00      	cmp	r3, #0
 80048a8:	d05a      	beq.n	8004960 <_dtoa_r+0xa18>
 80048aa:	6869      	ldr	r1, [r5, #4]
 80048ac:	4658      	mov	r0, fp
 80048ae:	f000 fa0f 	bl	8004cd0 <_Balloc>
 80048b2:	4606      	mov	r6, r0
 80048b4:	b928      	cbnz	r0, 80048c2 <_dtoa_r+0x97a>
 80048b6:	4b84      	ldr	r3, [pc, #528]	@ (8004ac8 <_dtoa_r+0xb80>)
 80048b8:	4602      	mov	r2, r0
 80048ba:	f240 21ef 	movw	r1, #751	@ 0x2ef
 80048be:	f7ff bb5a 	b.w	8003f76 <_dtoa_r+0x2e>
 80048c2:	692a      	ldr	r2, [r5, #16]
 80048c4:	3202      	adds	r2, #2
 80048c6:	0092      	lsls	r2, r2, #2
 80048c8:	f105 010c 	add.w	r1, r5, #12
 80048cc:	300c      	adds	r0, #12
 80048ce:	f000 ffaf 	bl	8005830 <memcpy>
 80048d2:	2201      	movs	r2, #1
 80048d4:	4631      	mov	r1, r6
 80048d6:	4658      	mov	r0, fp
 80048d8:	f000 fc08 	bl	80050ec <__lshift>
 80048dc:	f10a 0301 	add.w	r3, sl, #1
 80048e0:	9307      	str	r3, [sp, #28]
 80048e2:	9b00      	ldr	r3, [sp, #0]
 80048e4:	4453      	add	r3, sl
 80048e6:	930b      	str	r3, [sp, #44]	@ 0x2c
 80048e8:	9b02      	ldr	r3, [sp, #8]
 80048ea:	f003 0301 	and.w	r3, r3, #1
 80048ee:	462f      	mov	r7, r5
 80048f0:	930a      	str	r3, [sp, #40]	@ 0x28
 80048f2:	4605      	mov	r5, r0
 80048f4:	9b07      	ldr	r3, [sp, #28]
 80048f6:	4621      	mov	r1, r4
 80048f8:	3b01      	subs	r3, #1
 80048fa:	4648      	mov	r0, r9
 80048fc:	9300      	str	r3, [sp, #0]
 80048fe:	f7ff fa9a 	bl	8003e36 <quorem>
 8004902:	4639      	mov	r1, r7
 8004904:	9002      	str	r0, [sp, #8]
 8004906:	f100 0830 	add.w	r8, r0, #48	@ 0x30
 800490a:	4648      	mov	r0, r9
 800490c:	f000 fc5a 	bl	80051c4 <__mcmp>
 8004910:	462a      	mov	r2, r5
 8004912:	9008      	str	r0, [sp, #32]
 8004914:	4621      	mov	r1, r4
 8004916:	4658      	mov	r0, fp
 8004918:	f000 fc70 	bl	80051fc <__mdiff>
 800491c:	68c2      	ldr	r2, [r0, #12]
 800491e:	4606      	mov	r6, r0
 8004920:	bb02      	cbnz	r2, 8004964 <_dtoa_r+0xa1c>
 8004922:	4601      	mov	r1, r0
 8004924:	4648      	mov	r0, r9
 8004926:	f000 fc4d 	bl	80051c4 <__mcmp>
 800492a:	4602      	mov	r2, r0
 800492c:	4631      	mov	r1, r6
 800492e:	4658      	mov	r0, fp
 8004930:	920e      	str	r2, [sp, #56]	@ 0x38
 8004932:	f000 fa0d 	bl	8004d50 <_Bfree>
 8004936:	9b09      	ldr	r3, [sp, #36]	@ 0x24
 8004938:	9a0e      	ldr	r2, [sp, #56]	@ 0x38
 800493a:	9e07      	ldr	r6, [sp, #28]
 800493c:	ea43 0102 	orr.w	r1, r3, r2
 8004940:	9b0a      	ldr	r3, [sp, #40]	@ 0x28
 8004942:	4319      	orrs	r1, r3
 8004944:	d110      	bne.n	8004968 <_dtoa_r+0xa20>
 8004946:	f1b8 0f39 	cmp.w	r8, #57	@ 0x39
 800494a:	d029      	beq.n	80049a0 <_dtoa_r+0xa58>
 800494c:	9b08      	ldr	r3, [sp, #32]
 800494e:	2b00      	cmp	r3, #0
 8004950:	dd02      	ble.n	8004958 <_dtoa_r+0xa10>
 8004952:	9b02      	ldr	r3, [sp, #8]
 8004954:	f103 0831 	add.w	r8, r3, #49	@ 0x31
 8004958:	9b00      	ldr	r3, [sp, #0]
 800495a:	f883 8000 	strb.w	r8, [r3]
 800495e:	e63f      	b.n	80045e0 <_dtoa_r+0x698>
 8004960:	4628      	mov	r0, r5
 8004962:	e7bb      	b.n	80048dc <_dtoa_r+0x994>
 8004964:	2201      	movs	r2, #1
 8004966:	e7e1      	b.n	800492c <_dtoa_r+0x9e4>
 8004968:	9b08      	ldr	r3, [sp, #32]
 800496a:	2b00      	cmp	r3, #0
 800496c:	db04      	blt.n	8004978 <_dtoa_r+0xa30>
 800496e:	9909      	ldr	r1, [sp, #36]	@ 0x24
 8004970:	430b      	orrs	r3, r1
 8004972:	990a      	ldr	r1, [sp, #40]	@ 0x28
 8004974:	430b      	orrs	r3, r1
 8004976:	d120      	bne.n	80049ba <_dtoa_r+0xa72>
 8004978:	2a00      	cmp	r2, #0
 800497a:	dded      	ble.n	8004958 <_dtoa_r+0xa10>
 800497c:	4649      	mov	r1, r9
 800497e:	2201      	movs	r2, #1
 8004980:	4658      	mov	r0, fp
 8004982:	f000 fbb3 	bl	80050ec <__lshift>
 8004986:	4621      	mov	r1, r4
 8004988:	4681      	mov	r9, r0
 800498a:	f000 fc1b 	bl	80051c4 <__mcmp>
 800498e:	2800      	cmp	r0, #0
 8004990:	dc03      	bgt.n	800499a <_dtoa_r+0xa52>
 8004992:	d1e1      	bne.n	8004958 <_dtoa_r+0xa10>
 8004994:	f018 0f01 	tst.w	r8, #1
 8004998:	d0de      	beq.n	8004958 <_dtoa_r+0xa10>
 800499a:	f1b8 0f39 	cmp.w	r8, #57	@ 0x39
 800499e:	d1d8      	bne.n	8004952 <_dtoa_r+0xa0a>
 80049a0:	9a00      	ldr	r2, [sp, #0]
 80049a2:	2339      	movs	r3, #57	@ 0x39
 80049a4:	7013      	strb	r3, [r2, #0]
 80049a6:	4633      	mov	r3, r6
 80049a8:	461e      	mov	r6, r3
 80049aa:	3b01      	subs	r3, #1
 80049ac:	f816 2c01 	ldrb.w	r2, [r6, #-1]
 80049b0:	2a39      	cmp	r2, #57	@ 0x39
 80049b2:	d052      	beq.n	8004a5a <_dtoa_r+0xb12>
 80049b4:	3201      	adds	r2, #1
 80049b6:	701a      	strb	r2, [r3, #0]
 80049b8:	e612      	b.n	80045e0 <_dtoa_r+0x698>
 80049ba:	2a00      	cmp	r2, #0
 80049bc:	dd07      	ble.n	80049ce <_dtoa_r+0xa86>
 80049be:	f1b8 0f39 	cmp.w	r8, #57	@ 0x39
 80049c2:	d0ed      	beq.n	80049a0 <_dtoa_r+0xa58>
 80049c4:	9a00      	ldr	r2, [sp, #0]
 80049c6:	f108 0301 	add.w	r3, r8, #1
 80049ca:	7013      	strb	r3, [r2, #0]
 80049cc:	e608      	b.n	80045e0 <_dtoa_r+0x698>
 80049ce:	9b07      	ldr	r3, [sp, #28]
 80049d0:	9a07      	ldr	r2, [sp, #28]
 80049d2:	f803 8c01 	strb.w	r8, [r3, #-1]
 80049d6:	9b0b      	ldr	r3, [sp, #44]	@ 0x2c
 80049d8:	4293      	cmp	r3, r2
 80049da:	d028      	beq.n	8004a2e <_dtoa_r+0xae6>
 80049dc:	4649      	mov	r1, r9
 80049de:	2300      	movs	r3, #0
 80049e0:	220a      	movs	r2, #10
 80049e2:	4658      	mov	r0, fp
 80049e4:	f000 f9d6 	bl	8004d94 <__multadd>
 80049e8:	42af      	cmp	r7, r5
 80049ea:	4681      	mov	r9, r0
 80049ec:	f04f 0300 	mov.w	r3, #0
 80049f0:	f04f 020a 	mov.w	r2, #10
 80049f4:	4639      	mov	r1, r7
 80049f6:	4658      	mov	r0, fp
 80049f8:	d107      	bne.n	8004a0a <_dtoa_r+0xac2>
 80049fa:	f000 f9cb 	bl	8004d94 <__multadd>
 80049fe:	4607      	mov	r7, r0
 8004a00:	4605      	mov	r5, r0
 8004a02:	9b07      	ldr	r3, [sp, #28]
 8004a04:	3301      	adds	r3, #1
 8004a06:	9307      	str	r3, [sp, #28]
 8004a08:	e774      	b.n	80048f4 <_dtoa_r+0x9ac>
 8004a0a:	f000 f9c3 	bl	8004d94 <__multadd>
 8004a0e:	4629      	mov	r1, r5
 8004a10:	4607      	mov	r7, r0
 8004a12:	2300      	movs	r3, #0
 8004a14:	220a      	movs	r2, #10
 8004a16:	4658      	mov	r0, fp
 8004a18:	f000 f9bc 	bl	8004d94 <__multadd>
 8004a1c:	4605      	mov	r5, r0
 8004a1e:	e7f0      	b.n	8004a02 <_dtoa_r+0xaba>
 8004a20:	9b00      	ldr	r3, [sp, #0]
 8004a22:	2b00      	cmp	r3, #0
 8004a24:	bfcc      	ite	gt
 8004a26:	461e      	movgt	r6, r3
 8004a28:	2601      	movle	r6, #1
 8004a2a:	4456      	add	r6, sl
 8004a2c:	2700      	movs	r7, #0
 8004a2e:	4649      	mov	r1, r9
 8004a30:	2201      	movs	r2, #1
 8004a32:	4658      	mov	r0, fp
 8004a34:	f000 fb5a 	bl	80050ec <__lshift>
 8004a38:	4621      	mov	r1, r4
 8004a3a:	4681      	mov	r9, r0
 8004a3c:	f000 fbc2 	bl	80051c4 <__mcmp>
 8004a40:	2800      	cmp	r0, #0
 8004a42:	dcb0      	bgt.n	80049a6 <_dtoa_r+0xa5e>
 8004a44:	d102      	bne.n	8004a4c <_dtoa_r+0xb04>
 8004a46:	f018 0f01 	tst.w	r8, #1
 8004a4a:	d1ac      	bne.n	80049a6 <_dtoa_r+0xa5e>
 8004a4c:	4633      	mov	r3, r6
 8004a4e:	461e      	mov	r6, r3
 8004a50:	f813 2d01 	ldrb.w	r2, [r3, #-1]!
 8004a54:	2a30      	cmp	r2, #48	@ 0x30
 8004a56:	d0fa      	beq.n	8004a4e <_dtoa_r+0xb06>
 8004a58:	e5c2      	b.n	80045e0 <_dtoa_r+0x698>
 8004a5a:	459a      	cmp	sl, r3
 8004a5c:	d1a4      	bne.n	80049a8 <_dtoa_r+0xa60>
 8004a5e:	9b04      	ldr	r3, [sp, #16]
 8004a60:	3301      	adds	r3, #1
 8004a62:	9304      	str	r3, [sp, #16]
 8004a64:	2331      	movs	r3, #49	@ 0x31
 8004a66:	f88a 3000 	strb.w	r3, [sl]
 8004a6a:	e5b9      	b.n	80045e0 <_dtoa_r+0x698>
 8004a6c:	9b23      	ldr	r3, [sp, #140]	@ 0x8c
 8004a6e:	f8df a05c 	ldr.w	sl, [pc, #92]	@ 8004acc <_dtoa_r+0xb84>
 8004a72:	b11b      	cbz	r3, 8004a7c <_dtoa_r+0xb34>
 8004a74:	f10a 0308 	add.w	r3, sl, #8
 8004a78:	9a23      	ldr	r2, [sp, #140]	@ 0x8c
 8004a7a:	6013      	str	r3, [r2, #0]
 8004a7c:	4650      	mov	r0, sl
 8004a7e:	b019      	add	sp, #100	@ 0x64
 8004a80:	e8bd 8ff0 	ldmia.w	sp!, {r4, r5, r6, r7, r8, r9, sl, fp, pc}
 8004a84:	9b09      	ldr	r3, [sp, #36]	@ 0x24
 8004a86:	2b01      	cmp	r3, #1
 8004a88:	f77f ae37 	ble.w	80046fa <_dtoa_r+0x7b2>
 8004a8c:	9b0f      	ldr	r3, [sp, #60]	@ 0x3c
 8004a8e:	930a      	str	r3, [sp, #40]	@ 0x28
 8004a90:	2001      	movs	r0, #1
 8004a92:	e655      	b.n	8004740 <_dtoa_r+0x7f8>
 8004a94:	9b00      	ldr	r3, [sp, #0]
 8004a96:	2b00      	cmp	r3, #0
 8004a98:	f77f aed6 	ble.w	8004848 <_dtoa_r+0x900>
 8004a9c:	4656      	mov	r6, sl
 8004a9e:	4621      	mov	r1, r4
 8004aa0:	4648      	mov	r0, r9
 8004aa2:	f7ff f9c8 	bl	8003e36 <quorem>
 8004aa6:	f100 0830 	add.w	r8, r0, #48	@ 0x30
 8004aaa:	f806 8b01 	strb.w	r8, [r6], #1
 8004aae:	9b00      	ldr	r3, [sp, #0]
 8004ab0:	eba6 020a 	sub.w	r2, r6, sl
 8004ab4:	4293      	cmp	r3, r2
 8004ab6:	ddb3      	ble.n	8004a20 <_dtoa_r+0xad8>
 8004ab8:	4649      	mov	r1, r9
 8004aba:	2300      	movs	r3, #0
 8004abc:	220a      	movs	r2, #10
 8004abe:	4658      	mov	r0, fp
 8004ac0:	f000 f968 	bl	8004d94 <__multadd>
 8004ac4:	4681      	mov	r9, r0
 8004ac6:	e7ea      	b.n	8004a9e <_dtoa_r+0xb56>
 8004ac8:	080070d1 	.word	0x080070d1
 8004acc:	08007055 	.word	0x08007055

08004ad0 <_free_r>:
 8004ad0:	b538      	push	{r3, r4, r5, lr}
 8004ad2:	4605      	mov	r5, r0
 8004ad4:	2900      	cmp	r1, #0
 8004ad6:	d041      	beq.n	8004b5c <_free_r+0x8c>
 8004ad8:	f851 3c04 	ldr.w	r3, [r1, #-4]
 8004adc:	1f0c      	subs	r4, r1, #4
 8004ade:	2b00      	cmp	r3, #0
 8004ae0:	bfb8      	it	lt
 8004ae2:	18e4      	addlt	r4, r4, r3
 8004ae4:	f000 f8e8 	bl	8004cb8 <__malloc_lock>
 8004ae8:	4a1d      	ldr	r2, [pc, #116]	@ (8004b60 <_free_r+0x90>)
 8004aea:	6813      	ldr	r3, [r2, #0]
 8004aec:	b933      	cbnz	r3, 8004afc <_free_r+0x2c>
 8004aee:	6063      	str	r3, [r4, #4]
 8004af0:	6014      	str	r4, [r2, #0]
 8004af2:	4628      	mov	r0, r5
 8004af4:	e8bd 4038 	ldmia.w	sp!, {r3, r4, r5, lr}
 8004af8:	f000 b8e4 	b.w	8004cc4 <__malloc_unlock>
 8004afc:	42a3      	cmp	r3, r4
 8004afe:	d908      	bls.n	8004b12 <_free_r+0x42>
 8004b00:	6820      	ldr	r0, [r4, #0]
 8004b02:	1821      	adds	r1, r4, r0
 8004b04:	428b      	cmp	r3, r1
 8004b06:	bf01      	itttt	eq
 8004b08:	6819      	ldreq	r1, [r3, #0]
 8004b0a:	685b      	ldreq	r3, [r3, #4]
 8004b0c:	1809      	addeq	r1, r1, r0
 8004b0e:	6021      	streq	r1, [r4, #0]
 8004b10:	e7ed      	b.n	8004aee <_free_r+0x1e>
 8004b12:	461a      	mov	r2, r3
 8004b14:	685b      	ldr	r3, [r3, #4]
 8004b16:	b10b      	cbz	r3, 8004b1c <_free_r+0x4c>
 8004b18:	42a3      	cmp	r3, r4
 8004b1a:	d9fa      	bls.n	8004b12 <_free_r+0x42>
 8004b1c:	6811      	ldr	r1, [r2, #0]
 8004b1e:	1850      	adds	r0, r2, r1
 8004b20:	42a0      	cmp	r0, r4
 8004b22:	d10b      	bne.n	8004b3c <_free_r+0x6c>
 8004b24:	6820      	ldr	r0, [r4, #0]
 8004b26:	4401      	add	r1, r0
 8004b28:	1850      	adds	r0, r2, r1
 8004b2a:	4283      	cmp	r3, r0
 8004b2c:	6011      	str	r1, [r2, #0]
 8004b2e:	d1e0      	bne.n	8004af2 <_free_r+0x22>
 8004b30:	6818      	ldr	r0, [r3, #0]
 8004b32:	685b      	ldr	r3, [r3, #4]
 8004b34:	6053      	str	r3, [r2, #4]
 8004b36:	4408      	add	r0, r1
 8004b38:	6010      	str	r0, [r2, #0]
 8004b3a:	e7da      	b.n	8004af2 <_free_r+0x22>
 8004b3c:	d902      	bls.n	8004b44 <_free_r+0x74>
 8004b3e:	230c      	movs	r3, #12
 8004b40:	602b      	str	r3, [r5, #0]
 8004b42:	e7d6      	b.n	8004af2 <_free_r+0x22>
 8004b44:	6820      	ldr	r0, [r4, #0]
 8004b46:	1821      	adds	r1, r4, r0
 8004b48:	428b      	cmp	r3, r1
 8004b4a:	bf04      	itt	eq
 8004b4c:	6819      	ldreq	r1, [r3, #0]
 8004b4e:	685b      	ldreq	r3, [r3, #4]
 8004b50:	6063      	str	r3, [r4, #4]
 8004b52:	bf04      	itt	eq
 8004b54:	1809      	addeq	r1, r1, r0
 8004b56:	6021      	streq	r1, [r4, #0]
 8004b58:	6054      	str	r4, [r2, #4]
 8004b5a:	e7ca      	b.n	8004af2 <_free_r+0x22>
 8004b5c:	bd38      	pop	{r3, r4, r5, pc}
 8004b5e:	bf00      	nop
 8004b60:	200006f8 	.word	0x200006f8

08004b64 <malloc>:
 8004b64:	4b02      	ldr	r3, [pc, #8]	@ (8004b70 <malloc+0xc>)
 8004b66:	4601      	mov	r1, r0
 8004b68:	6818      	ldr	r0, [r3, #0]
 8004b6a:	f000 b825 	b.w	8004bb8 <_malloc_r>
 8004b6e:	bf00      	nop
 8004b70:	20000040 	.word	0x20000040

08004b74 <sbrk_aligned>:
 8004b74:	b570      	push	{r4, r5, r6, lr}
 8004b76:	4e0f      	ldr	r6, [pc, #60]	@ (8004bb4 <sbrk_aligned+0x40>)
 8004b78:	460c      	mov	r4, r1
 8004b7a:	6831      	ldr	r1, [r6, #0]
 8004b7c:	4605      	mov	r5, r0
 8004b7e:	b911      	cbnz	r1, 8004b86 <sbrk_aligned+0x12>
 8004b80:	f000 fe46 	bl	8005810 <_sbrk_r>
 8004b84:	6030      	str	r0, [r6, #0]
 8004b86:	4621      	mov	r1, r4
 8004b88:	4628      	mov	r0, r5
 8004b8a:	f000 fe41 	bl	8005810 <_sbrk_r>
 8004b8e:	1c43      	adds	r3, r0, #1
 8004b90:	d103      	bne.n	8004b9a <sbrk_aligned+0x26>
 8004b92:	f04f 34ff 	mov.w	r4, #4294967295
 8004b96:	4620      	mov	r0, r4
 8004b98:	bd70      	pop	{r4, r5, r6, pc}
 8004b9a:	1cc4      	adds	r4, r0, #3
 8004b9c:	f024 0403 	bic.w	r4, r4, #3
 8004ba0:	42a0      	cmp	r0, r4
 8004ba2:	d0f8      	beq.n	8004b96 <sbrk_aligned+0x22>
 8004ba4:	1a21      	subs	r1, r4, r0
 8004ba6:	4628      	mov	r0, r5
 8004ba8:	f000 fe32 	bl	8005810 <_sbrk_r>
 8004bac:	3001      	adds	r0, #1
 8004bae:	d1f2      	bne.n	8004b96 <sbrk_aligned+0x22>
 8004bb0:	e7ef      	b.n	8004b92 <sbrk_aligned+0x1e>
 8004bb2:	bf00      	nop
 8004bb4:	200006f4 	.word	0x200006f4

08004bb8 <_malloc_r>:
 8004bb8:	e92d 43f8 	stmdb	sp!, {r3, r4, r5, r6, r7, r8, r9, lr}
 8004bbc:	1ccd      	adds	r5, r1, #3
 8004bbe:	f025 0503 	bic.w	r5, r5, #3
 8004bc2:	3508      	adds	r5, #8
 8004bc4:	2d0c      	cmp	r5, #12
 8004bc6:	bf38      	it	cc
 8004bc8:	250c      	movcc	r5, #12
 8004bca:	2d00      	cmp	r5, #0
 8004bcc:	4606      	mov	r6, r0
 8004bce:	db01      	blt.n	8004bd4 <_malloc_r+0x1c>
 8004bd0:	42a9      	cmp	r1, r5
 8004bd2:	d904      	bls.n	8004bde <_malloc_r+0x26>
 8004bd4:	230c      	movs	r3, #12
 8004bd6:	6033      	str	r3, [r6, #0]
 8004bd8:	2000      	movs	r0, #0
 8004bda:	e8bd 83f8 	ldmia.w	sp!, {r3, r4, r5, r6, r7, r8, r9, pc}
 8004bde:	f8df 80d4 	ldr.w	r8, [pc, #212]	@ 8004cb4 <_malloc_r+0xfc>
 8004be2:	f000 f869 	bl	8004cb8 <__malloc_lock>
 8004be6:	f8d8 3000 	ldr.w	r3, [r8]
 8004bea:	461c      	mov	r4, r3
 8004bec:	bb44      	cbnz	r4, 8004c40 <_malloc_r+0x88>
 8004bee:	4629      	mov	r1, r5
 8004bf0:	4630      	mov	r0, r6
 8004bf2:	f7ff ffbf 	bl	8004b74 <sbrk_aligned>
 8004bf6:	1c43      	adds	r3, r0, #1
 8004bf8:	4604      	mov	r4, r0
 8004bfa:	d158      	bne.n	8004cae <_malloc_r+0xf6>
 8004bfc:	f8d8 4000 	ldr.w	r4, [r8]
 8004c00:	4627      	mov	r7, r4
 8004c02:	2f00      	cmp	r7, #0
 8004c04:	d143      	bne.n	8004c8e <_malloc_r+0xd6>
 8004c06:	2c00      	cmp	r4, #0
 8004c08:	d04b      	beq.n	8004ca2 <_malloc_r+0xea>
 8004c0a:	6823      	ldr	r3, [r4, #0]
 8004c0c:	4639      	mov	r1, r7
 8004c0e:	4630      	mov	r0, r6
 8004c10:	eb04 0903 	add.w	r9, r4, r3
 8004c14:	f000 fdfc 	bl	8005810 <_sbrk_r>
 8004c18:	4581      	cmp	r9, r0
 8004c1a:	d142      	bne.n	8004ca2 <_malloc_r+0xea>
 8004c1c:	6821      	ldr	r1, [r4, #0]
 8004c1e:	1a6d      	subs	r5, r5, r1
 8004c20:	4629      	mov	r1, r5
 8004c22:	4630      	mov	r0, r6
 8004c24:	f7ff ffa6 	bl	8004b74 <sbrk_aligned>
 8004c28:	3001      	adds	r0, #1
 8004c2a:	d03a      	beq.n	8004ca2 <_malloc_r+0xea>
 8004c2c:	6823      	ldr	r3, [r4, #0]
 8004c2e:	442b      	add	r3, r5
 8004c30:	6023      	str	r3, [r4, #0]
 8004c32:	f8d8 3000 	ldr.w	r3, [r8]
 8004c36:	685a      	ldr	r2, [r3, #4]
 8004c38:	bb62      	cbnz	r2, 8004c94 <_malloc_r+0xdc>
 8004c3a:	f8c8 7000 	str.w	r7, [r8]
 8004c3e:	e00f      	b.n	8004c60 <_malloc_r+0xa8>
 8004c40:	6822      	ldr	r2, [r4, #0]
 8004c42:	1b52      	subs	r2, r2, r5
 8004c44:	d420      	bmi.n	8004c88 <_malloc_r+0xd0>
 8004c46:	2a0b      	cmp	r2, #11
 8004c48:	d917      	bls.n	8004c7a <_malloc_r+0xc2>
 8004c4a:	1961      	adds	r1, r4, r5
 8004c4c:	42a3      	cmp	r3, r4
 8004c4e:	6025      	str	r5, [r4, #0]
 8004c50:	bf18      	it	ne
 8004c52:	6059      	strne	r1, [r3, #4]
 8004c54:	6863      	ldr	r3, [r4, #4]
 8004c56:	bf08      	it	eq
 8004c58:	f8c8 1000 	streq.w	r1, [r8]
 8004c5c:	5162      	str	r2, [r4, r5]
 8004c5e:	604b      	str	r3, [r1, #4]
 8004c60:	4630      	mov	r0, r6
 8004c62:	f000 f82f 	bl	8004cc4 <__malloc_unlock>
 8004c66:	f104 000b 	add.w	r0, r4, #11
 8004c6a:	1d23      	adds	r3, r4, #4
 8004c6c:	f020 0007 	bic.w	r0, r0, #7
 8004c70:	1ac2      	subs	r2, r0, r3
 8004c72:	bf1c      	itt	ne
 8004c74:	1a1b      	subne	r3, r3, r0
 8004c76:	50a3      	strne	r3, [r4, r2]
 8004c78:	e7af      	b.n	8004bda <_malloc_r+0x22>
 8004c7a:	6862      	ldr	r2, [r4, #4]
 8004c7c:	42a3      	cmp	r3, r4
 8004c7e:	bf0c      	ite	eq
 8004c80:	f8c8 2000 	streq.w	r2, [r8]
 8004c84:	605a      	strne	r2, [r3, #4]
 8004c86:	e7eb      	b.n	8004c60 <_malloc_r+0xa8>
 8004c88:	4623      	mov	r3, r4
 8004c8a:	6864      	ldr	r4, [r4, #4]
 8004c8c:	e7ae      	b.n	8004bec <_malloc_r+0x34>
 8004c8e:	463c      	mov	r4, r7
 8004c90:	687f      	ldr	r7, [r7, #4]
 8004c92:	e7b6      	b.n	8004c02 <_malloc_r+0x4a>
 8004c94:	461a      	mov	r2, r3
 8004c96:	685b      	ldr	r3, [r3, #4]
 8004c98:	42a3      	cmp	r3, r4
 8004c9a:	d1fb      	bne.n	8004c94 <_malloc_r+0xdc>
 8004c9c:	2300      	movs	r3, #0
 8004c9e:	6053      	str	r3, [r2, #4]
 8004ca0:	e7de      	b.n	8004c60 <_malloc_r+0xa8>
 8004ca2:	230c      	movs	r3, #12
 8004ca4:	6033      	str	r3, [r6, #0]
 8004ca6:	4630      	mov	r0, r6
 8004ca8:	f000 f80c 	bl	8004cc4 <__malloc_unlock>
 8004cac:	e794      	b.n	8004bd8 <_malloc_r+0x20>
 8004cae:	6005      	str	r5, [r0, #0]
 8004cb0:	e7d6      	b.n	8004c60 <_malloc_r+0xa8>
 8004cb2:	bf00      	nop
 8004cb4:	200006f8 	.word	0x200006f8

08004cb8 <__malloc_lock>:
 8004cb8:	4801      	ldr	r0, [pc, #4]	@ (8004cc0 <__malloc_lock+0x8>)
 8004cba:	f7ff b8b2 	b.w	8003e22 <__retarget_lock_acquire_recursive>
 8004cbe:	bf00      	nop
 8004cc0:	200006f0 	.word	0x200006f0

08004cc4 <__malloc_unlock>:
 8004cc4:	4801      	ldr	r0, [pc, #4]	@ (8004ccc <__malloc_unlock+0x8>)
 8004cc6:	f7ff b8ad 	b.w	8003e24 <__retarget_lock_release_recursive>
 8004cca:	bf00      	nop
 8004ccc:	200006f0 	.word	0x200006f0

08004cd0 <_Balloc>:
 8004cd0:	b570      	push	{r4, r5, r6, lr}
 8004cd2:	69c6      	ldr	r6, [r0, #28]
 8004cd4:	4604      	mov	r4, r0
 8004cd6:	460d      	mov	r5, r1
 8004cd8:	b976      	cbnz	r6, 8004cf8 <_Balloc+0x28>
 8004cda:	2010      	movs	r0, #16
 8004cdc:	f7ff ff42 	bl	8004b64 <malloc>
 8004ce0:	4602      	mov	r2, r0
 8004ce2:	61e0      	str	r0, [r4, #28]
 8004ce4:	b920      	cbnz	r0, 8004cf0 <_Balloc+0x20>
 8004ce6:	4b18      	ldr	r3, [pc, #96]	@ (8004d48 <_Balloc+0x78>)
 8004ce8:	4818      	ldr	r0, [pc, #96]	@ (8004d4c <_Balloc+0x7c>)
 8004cea:	216b      	movs	r1, #107	@ 0x6b
 8004cec:	f000 fdae 	bl	800584c <__assert_func>
 8004cf0:	e9c0 6601 	strd	r6, r6, [r0, #4]
 8004cf4:	6006      	str	r6, [r0, #0]
 8004cf6:	60c6      	str	r6, [r0, #12]
 8004cf8:	69e6      	ldr	r6, [r4, #28]
 8004cfa:	68f3      	ldr	r3, [r6, #12]
 8004cfc:	b183      	cbz	r3, 8004d20 <_Balloc+0x50>
 8004cfe:	69e3      	ldr	r3, [r4, #28]
 8004d00:	68db      	ldr	r3, [r3, #12]
 8004d02:	f853 0025 	ldr.w	r0, [r3, r5, lsl #2]
 8004d06:	b9b8      	cbnz	r0, 8004d38 <_Balloc+0x68>
 8004d08:	2101      	movs	r1, #1
 8004d0a:	fa01 f605 	lsl.w	r6, r1, r5
 8004d0e:	1d72      	adds	r2, r6, #5
 8004d10:	0092      	lsls	r2, r2, #2
 8004d12:	4620      	mov	r0, r4
 8004d14:	f000 fdb8 	bl	8005888 <_calloc_r>
 8004d18:	b160      	cbz	r0, 8004d34 <_Balloc+0x64>
 8004d1a:	e9c0 5601 	strd	r5, r6, [r0, #4]
 8004d1e:	e00e      	b.n	8004d3e <_Balloc+0x6e>
 8004d20:	2221      	movs	r2, #33	@ 0x21
 8004d22:	2104      	movs	r1, #4
 8004d24:	4620      	mov	r0, r4
 8004d26:	f000 fdaf 	bl	8005888 <_calloc_r>
 8004d2a:	69e3      	ldr	r3, [r4, #28]
 8004d2c:	60f0      	str	r0, [r6, #12]
 8004d2e:	68db      	ldr	r3, [r3, #12]
 8004d30:	2b00      	cmp	r3, #0
 8004d32:	d1e4      	bne.n	8004cfe <_Balloc+0x2e>
 8004d34:	2000      	movs	r0, #0
 8004d36:	bd70      	pop	{r4, r5, r6, pc}
 8004d38:	6802      	ldr	r2, [r0, #0]
 8004d3a:	f843 2025 	str.w	r2, [r3, r5, lsl #2]
 8004d3e:	2300      	movs	r3, #0
 8004d40:	e9c0 3303 	strd	r3, r3, [r0, #12]
 8004d44:	e7f7      	b.n	8004d36 <_Balloc+0x66>
 8004d46:	bf00      	nop
 8004d48:	08007062 	.word	0x08007062
 8004d4c:	080070e2 	.word	0x080070e2

08004d50 <_Bfree>:
 8004d50:	b570      	push	{r4, r5, r6, lr}
 8004d52:	69c6      	ldr	r6, [r0, #28]
 8004d54:	4605      	mov	r5, r0
 8004d56:	460c      	mov	r4, r1
 8004d58:	b976      	cbnz	r6, 8004d78 <_Bfree+0x28>
 8004d5a:	2010      	movs	r0, #16
 8004d5c:	f7ff ff02 	bl	8004b64 <malloc>
 8004d60:	4602      	mov	r2, r0
 8004d62:	61e8      	str	r0, [r5, #28]
 8004d64:	b920      	cbnz	r0, 8004d70 <_Bfree+0x20>
 8004d66:	4b09      	ldr	r3, [pc, #36]	@ (8004d8c <_Bfree+0x3c>)
 8004d68:	4809      	ldr	r0, [pc, #36]	@ (8004d90 <_Bfree+0x40>)
 8004d6a:	218f      	movs	r1, #143	@ 0x8f
 8004d6c:	f000 fd6e 	bl	800584c <__assert_func>
 8004d70:	e9c0 6601 	strd	r6, r6, [r0, #4]
 8004d74:	6006      	str	r6, [r0, #0]
 8004d76:	60c6      	str	r6, [r0, #12]
 8004d78:	b13c      	cbz	r4, 8004d8a <_Bfree+0x3a>
 8004d7a:	69eb      	ldr	r3, [r5, #28]
 8004d7c:	6862      	ldr	r2, [r4, #4]
 8004d7e:	68db      	ldr	r3, [r3, #12]
 8004d80:	f853 1022 	ldr.w	r1, [r3, r2, lsl #2]
 8004d84:	6021      	str	r1, [r4, #0]
 8004d86:	f843 4022 	str.w	r4, [r3, r2, lsl #2]
 8004d8a:	bd70      	pop	{r4, r5, r6, pc}
 8004d8c:	08007062 	.word	0x08007062
 8004d90:	080070e2 	.word	0x080070e2

08004d94 <__multadd>:
 8004d94:	e92d 41f0 	stmdb	sp!, {r4, r5, r6, r7, r8, lr}
 8004d98:	690d      	ldr	r5, [r1, #16]
 8004d9a:	4607      	mov	r7, r0
 8004d9c:	460c      	mov	r4, r1
 8004d9e:	461e      	mov	r6, r3
 8004da0:	f101 0c14 	add.w	ip, r1, #20
 8004da4:	2000      	movs	r0, #0
 8004da6:	f8dc 3000 	ldr.w	r3, [ip]
 8004daa:	b299      	uxth	r1, r3
 8004dac:	fb02 6101 	mla	r1, r2, r1, r6
 8004db0:	0c1e      	lsrs	r6, r3, #16
 8004db2:	0c0b      	lsrs	r3, r1, #16
 8004db4:	fb02 3306 	mla	r3, r2, r6, r3
 8004db8:	b289      	uxth	r1, r1
 8004dba:	3001      	adds	r0, #1
 8004dbc:	eb01 4103 	add.w	r1, r1, r3, lsl #16
 8004dc0:	4285      	cmp	r5, r0
 8004dc2:	f84c 1b04 	str.w	r1, [ip], #4
 8004dc6:	ea4f 4613 	mov.w	r6, r3, lsr #16
 8004dca:	dcec      	bgt.n	8004da6 <__multadd+0x12>
 8004dcc:	b30e      	cbz	r6, 8004e12 <__multadd+0x7e>
 8004dce:	68a3      	ldr	r3, [r4, #8]
 8004dd0:	42ab      	cmp	r3, r5
 8004dd2:	dc19      	bgt.n	8004e08 <__multadd+0x74>
 8004dd4:	6861      	ldr	r1, [r4, #4]
 8004dd6:	4638      	mov	r0, r7
 8004dd8:	3101      	adds	r1, #1
 8004dda:	f7ff ff79 	bl	8004cd0 <_Balloc>
 8004dde:	4680      	mov	r8, r0
 8004de0:	b928      	cbnz	r0, 8004dee <__multadd+0x5a>
 8004de2:	4602      	mov	r2, r0
 8004de4:	4b0c      	ldr	r3, [pc, #48]	@ (8004e18 <__multadd+0x84>)
 8004de6:	480d      	ldr	r0, [pc, #52]	@ (8004e1c <__multadd+0x88>)
 8004de8:	21ba      	movs	r1, #186	@ 0xba
 8004dea:	f000 fd2f 	bl	800584c <__assert_func>
 8004dee:	6922      	ldr	r2, [r4, #16]
 8004df0:	3202      	adds	r2, #2
 8004df2:	f104 010c 	add.w	r1, r4, #12
 8004df6:	0092      	lsls	r2, r2, #2
 8004df8:	300c      	adds	r0, #12
 8004dfa:	f000 fd19 	bl	8005830 <memcpy>
 8004dfe:	4621      	mov	r1, r4
 8004e00:	4638      	mov	r0, r7
 8004e02:	f7ff ffa5 	bl	8004d50 <_Bfree>
 8004e06:	4644      	mov	r4, r8
 8004e08:	eb04 0385 	add.w	r3, r4, r5, lsl #2
 8004e0c:	3501      	adds	r5, #1
 8004e0e:	615e      	str	r6, [r3, #20]
 8004e10:	6125      	str	r5, [r4, #16]
 8004e12:	4620      	mov	r0, r4
 8004e14:	e8bd 81f0 	ldmia.w	sp!, {r4, r5, r6, r7, r8, pc}
 8004e18:	080070d1 	.word	0x080070d1
 8004e1c:	080070e2 	.word	0x080070e2

08004e20 <__hi0bits>:
 8004e20:	f5b0 3f80 	cmp.w	r0, #65536	@ 0x10000
 8004e24:	4603      	mov	r3, r0
 8004e26:	bf36      	itet	cc
 8004e28:	0403      	lslcc	r3, r0, #16
 8004e2a:	2000      	movcs	r0, #0
 8004e2c:	2010      	movcc	r0, #16
 8004e2e:	f1b3 7f80 	cmp.w	r3, #16777216	@ 0x1000000
 8004e32:	bf3c      	itt	cc
 8004e34:	021b      	lslcc	r3, r3, #8
 8004e36:	3008      	addcc	r0, #8
 8004e38:	f1b3 5f80 	cmp.w	r3, #268435456	@ 0x10000000
 8004e3c:	bf3c      	itt	cc
 8004e3e:	011b      	lslcc	r3, r3, #4
 8004e40:	3004      	addcc	r0, #4
 8004e42:	f1b3 4f80 	cmp.w	r3, #1073741824	@ 0x40000000
 8004e46:	bf3c      	itt	cc
 8004e48:	009b      	lslcc	r3, r3, #2
 8004e4a:	3002      	addcc	r0, #2
 8004e4c:	2b00      	cmp	r3, #0
 8004e4e:	db05      	blt.n	8004e5c <__hi0bits+0x3c>
 8004e50:	f013 4f80 	tst.w	r3, #1073741824	@ 0x40000000
 8004e54:	f100 0001 	add.w	r0, r0, #1
 8004e58:	bf08      	it	eq
 8004e5a:	2020      	moveq	r0, #32
 8004e5c:	4770      	bx	lr

08004e5e <__lo0bits>:
 8004e5e:	6803      	ldr	r3, [r0, #0]
 8004e60:	4602      	mov	r2, r0
 8004e62:	f013 0007 	ands.w	r0, r3, #7
 8004e66:	d00b      	beq.n	8004e80 <__lo0bits+0x22>
 8004e68:	07d9      	lsls	r1, r3, #31
 8004e6a:	d421      	bmi.n	8004eb0 <__lo0bits+0x52>
 8004e6c:	0798      	lsls	r0, r3, #30
 8004e6e:	bf49      	itett	mi
 8004e70:	085b      	lsrmi	r3, r3, #1
 8004e72:	089b      	lsrpl	r3, r3, #2
 8004e74:	2001      	movmi	r0, #1
 8004e76:	6013      	strmi	r3, [r2, #0]
 8004e78:	bf5c      	itt	pl
 8004e7a:	6013      	strpl	r3, [r2, #0]
 8004e7c:	2002      	movpl	r0, #2
 8004e7e:	4770      	bx	lr
 8004e80:	b299      	uxth	r1, r3
 8004e82:	b909      	cbnz	r1, 8004e88 <__lo0bits+0x2a>
 8004e84:	0c1b      	lsrs	r3, r3, #16
 8004e86:	2010      	movs	r0, #16
 8004e88:	b2d9      	uxtb	r1, r3
 8004e8a:	b909      	cbnz	r1, 8004e90 <__lo0bits+0x32>
 8004e8c:	3008      	adds	r0, #8
 8004e8e:	0a1b      	lsrs	r3, r3, #8
 8004e90:	0719      	lsls	r1, r3, #28
 8004e92:	bf04      	itt	eq
 8004e94:	091b      	lsreq	r3, r3, #4
 8004e96:	3004      	addeq	r0, #4
 8004e98:	0799      	lsls	r1, r3, #30
 8004e9a:	bf04      	itt	eq
 8004e9c:	089b      	lsreq	r3, r3, #2
 8004e9e:	3002      	addeq	r0, #2
 8004ea0:	07d9      	lsls	r1, r3, #31
 8004ea2:	d403      	bmi.n	8004eac <__lo0bits+0x4e>
 8004ea4:	085b      	lsrs	r3, r3, #1
 8004ea6:	f100 0001 	add.w	r0, r0, #1
 8004eaa:	d003      	beq.n	8004eb4 <__lo0bits+0x56>
 8004eac:	6013      	str	r3, [r2, #0]
 8004eae:	4770      	bx	lr
 8004eb0:	2000      	movs	r0, #0
 8004eb2:	4770      	bx	lr
 8004eb4:	2020      	movs	r0, #32
 8004eb6:	4770      	bx	lr

08004eb8 <__i2b>:
 8004eb8:	b510      	push	{r4, lr}
 8004eba:	460c      	mov	r4, r1
 8004ebc:	2101      	movs	r1, #1
 8004ebe:	f7ff ff07 	bl	8004cd0 <_Balloc>
 8004ec2:	4602      	mov	r2, r0
 8004ec4:	b928      	cbnz	r0, 8004ed2 <__i2b+0x1a>
 8004ec6:	4b05      	ldr	r3, [pc, #20]	@ (8004edc <__i2b+0x24>)
 8004ec8:	4805      	ldr	r0, [pc, #20]	@ (8004ee0 <__i2b+0x28>)
 8004eca:	f240 1145 	movw	r1, #325	@ 0x145
 8004ece:	f000 fcbd 	bl	800584c <__assert_func>
 8004ed2:	2301      	movs	r3, #1
 8004ed4:	6144      	str	r4, [r0, #20]
 8004ed6:	6103      	str	r3, [r0, #16]
 8004ed8:	bd10      	pop	{r4, pc}
 8004eda:	bf00      	nop
 8004edc:	080070d1 	.word	0x080070d1
 8004ee0:	080070e2 	.word	0x080070e2

08004ee4 <__multiply>:
 8004ee4:	e92d 4ff0 	stmdb	sp!, {r4, r5, r6, r7, r8, r9, sl, fp, lr}
 8004ee8:	4614      	mov	r4, r2
 8004eea:	690a      	ldr	r2, [r1, #16]
 8004eec:	6923      	ldr	r3, [r4, #16]
 8004eee:	429a      	cmp	r2, r3
 8004ef0:	bfa8      	it	ge
 8004ef2:	4623      	movge	r3, r4
 8004ef4:	460f      	mov	r7, r1
 8004ef6:	bfa4      	itt	ge
 8004ef8:	460c      	movge	r4, r1
 8004efa:	461f      	movge	r7, r3
 8004efc:	f8d4 a010 	ldr.w	sl, [r4, #16]
 8004f00:	f8d7 9010 	ldr.w	r9, [r7, #16]
 8004f04:	68a3      	ldr	r3, [r4, #8]
 8004f06:	6861      	ldr	r1, [r4, #4]
 8004f08:	eb0a 0609 	add.w	r6, sl, r9
 8004f0c:	42b3      	cmp	r3, r6
 8004f0e:	b085      	sub	sp, #20
 8004f10:	bfb8      	it	lt
 8004f12:	3101      	addlt	r1, #1
 8004f14:	f7ff fedc 	bl	8004cd0 <_Balloc>
 8004f18:	b930      	cbnz	r0, 8004f28 <__multiply+0x44>
 8004f1a:	4602      	mov	r2, r0
 8004f1c:	4b44      	ldr	r3, [pc, #272]	@ (8005030 <__multiply+0x14c>)
 8004f1e:	4845      	ldr	r0, [pc, #276]	@ (8005034 <__multiply+0x150>)
 8004f20:	f44f 71b1 	mov.w	r1, #354	@ 0x162
 8004f24:	f000 fc92 	bl	800584c <__assert_func>
 8004f28:	f100 0514 	add.w	r5, r0, #20
 8004f2c:	eb05 0886 	add.w	r8, r5, r6, lsl #2
 8004f30:	462b      	mov	r3, r5
 8004f32:	2200      	movs	r2, #0
 8004f34:	4543      	cmp	r3, r8
 8004f36:	d321      	bcc.n	8004f7c <__multiply+0x98>
 8004f38:	f107 0114 	add.w	r1, r7, #20
 8004f3c:	f104 0214 	add.w	r2, r4, #20
 8004f40:	eb02 028a 	add.w	r2, r2, sl, lsl #2
 8004f44:	eb01 0389 	add.w	r3, r1, r9, lsl #2
 8004f48:	9302      	str	r3, [sp, #8]
 8004f4a:	1b13      	subs	r3, r2, r4
 8004f4c:	3b15      	subs	r3, #21
 8004f4e:	f023 0303 	bic.w	r3, r3, #3
 8004f52:	3304      	adds	r3, #4
 8004f54:	f104 0715 	add.w	r7, r4, #21
 8004f58:	42ba      	cmp	r2, r7
 8004f5a:	bf38      	it	cc
 8004f5c:	2304      	movcc	r3, #4
 8004f5e:	9301      	str	r3, [sp, #4]
 8004f60:	9b02      	ldr	r3, [sp, #8]
 8004f62:	9103      	str	r1, [sp, #12]
 8004f64:	428b      	cmp	r3, r1
 8004f66:	d80c      	bhi.n	8004f82 <__multiply+0x9e>
 8004f68:	2e00      	cmp	r6, #0
 8004f6a:	dd03      	ble.n	8004f74 <__multiply+0x90>
 8004f6c:	f858 3d04 	ldr.w	r3, [r8, #-4]!
 8004f70:	2b00      	cmp	r3, #0
 8004f72:	d05b      	beq.n	800502c <__multiply+0x148>
 8004f74:	6106      	str	r6, [r0, #16]
 8004f76:	b005      	add	sp, #20
 8004f78:	e8bd 8ff0 	ldmia.w	sp!, {r4, r5, r6, r7, r8, r9, sl, fp, pc}
 8004f7c:	f843 2b04 	str.w	r2, [r3], #4
 8004f80:	e7d8      	b.n	8004f34 <__multiply+0x50>
 8004f82:	f8b1 a000 	ldrh.w	sl, [r1]
 8004f86:	f1ba 0f00 	cmp.w	sl, #0
 8004f8a:	d024      	beq.n	8004fd6 <__multiply+0xf2>
 8004f8c:	f104 0e14 	add.w	lr, r4, #20
 8004f90:	46a9      	mov	r9, r5
 8004f92:	f04f 0c00 	mov.w	ip, #0
 8004f96:	f85e 7b04 	ldr.w	r7, [lr], #4
 8004f9a:	f8d9 3000 	ldr.w	r3, [r9]
 8004f9e:	fa1f fb87 	uxth.w	fp, r7
 8004fa2:	b29b      	uxth	r3, r3
 8004fa4:	fb0a 330b 	mla	r3, sl, fp, r3
 8004fa8:	ea4f 4b17 	mov.w	fp, r7, lsr #16
 8004fac:	f8d9 7000 	ldr.w	r7, [r9]
 8004fb0:	4463      	add	r3, ip
 8004fb2:	ea4f 4c17 	mov.w	ip, r7, lsr #16
 8004fb6:	fb0a c70b 	mla	r7, sl, fp, ip
 8004fba:	eb07 4713 	add.w	r7, r7, r3, lsr #16
 8004fbe:	b29b      	uxth	r3, r3
 8004fc0:	ea43 4307 	orr.w	r3, r3, r7, lsl #16
 8004fc4:	4572      	cmp	r2, lr
 8004fc6:	f849 3b04 	str.w	r3, [r9], #4
 8004fca:	ea4f 4c17 	mov.w	ip, r7, lsr #16
 8004fce:	d8e2      	bhi.n	8004f96 <__multiply+0xb2>
 8004fd0:	9b01      	ldr	r3, [sp, #4]
 8004fd2:	f845 c003 	str.w	ip, [r5, r3]
 8004fd6:	9b03      	ldr	r3, [sp, #12]
 8004fd8:	f8b3 9002 	ldrh.w	r9, [r3, #2]
 8004fdc:	3104      	adds	r1, #4
 8004fde:	f1b9 0f00 	cmp.w	r9, #0
 8004fe2:	d021      	beq.n	8005028 <__multiply+0x144>
 8004fe4:	682b      	ldr	r3, [r5, #0]
 8004fe6:	f104 0c14 	add.w	ip, r4, #20
 8004fea:	46ae      	mov	lr, r5
 8004fec:	f04f 0a00 	mov.w	sl, #0
 8004ff0:	f8bc b000 	ldrh.w	fp, [ip]
 8004ff4:	f8be 7002 	ldrh.w	r7, [lr, #2]
 8004ff8:	fb09 770b 	mla	r7, r9, fp, r7
 8004ffc:	4457      	add	r7, sl
 8004ffe:	b29b      	uxth	r3, r3
 8005000:	ea43 4307 	orr.w	r3, r3, r7, lsl #16
 8005004:	f84e 3b04 	str.w	r3, [lr], #4
 8005008:	f85c 3b04 	ldr.w	r3, [ip], #4
 800500c:	ea4f 4a13 	mov.w	sl, r3, lsr #16
 8005010:	f8be 3000 	ldrh.w	r3, [lr]
 8005014:	fb09 330a 	mla	r3, r9, sl, r3
 8005018:	eb03 4317 	add.w	r3, r3, r7, lsr #16
 800501c:	4562      	cmp	r2, ip
 800501e:	ea4f 4a13 	mov.w	sl, r3, lsr #16
 8005022:	d8e5      	bhi.n	8004ff0 <__multiply+0x10c>
 8005024:	9f01      	ldr	r7, [sp, #4]
 8005026:	51eb      	str	r3, [r5, r7]
 8005028:	3504      	adds	r5, #4
 800502a:	e799      	b.n	8004f60 <__multiply+0x7c>
 800502c:	3e01      	subs	r6, #1
 800502e:	e79b      	b.n	8004f68 <__multiply+0x84>
 8005030:	080070d1 	.word	0x080070d1
 8005034:	080070e2 	.word	0x080070e2

08005038 <__pow5mult>:
 8005038:	e92d 43f8 	stmdb	sp!, {r3, r4, r5, r6, r7, r8, r9, lr}
 800503c:	4615      	mov	r5, r2
 800503e:	f012 0203 	ands.w	r2, r2, #3
 8005042:	4607      	mov	r7, r0
 8005044:	460e      	mov	r6, r1
 8005046:	d007      	beq.n	8005058 <__pow5mult+0x20>
 8005048:	4c25      	ldr	r4, [pc, #148]	@ (80050e0 <__pow5mult+0xa8>)
 800504a:	3a01      	subs	r2, #1
 800504c:	2300      	movs	r3, #0
 800504e:	f854 2022 	ldr.w	r2, [r4, r2, lsl #2]
 8005052:	f7ff fe9f 	bl	8004d94 <__multadd>
 8005056:	4606      	mov	r6, r0
 8005058:	10ad      	asrs	r5, r5, #2
 800505a:	d03d      	beq.n	80050d8 <__pow5mult+0xa0>
 800505c:	69fc      	ldr	r4, [r7, #28]
 800505e:	b97c      	cbnz	r4, 8005080 <__pow5mult+0x48>
 8005060:	2010      	movs	r0, #16
 8005062:	f7ff fd7f 	bl	8004b64 <malloc>
 8005066:	4602      	mov	r2, r0
 8005068:	61f8      	str	r0, [r7, #28]
 800506a:	b928      	cbnz	r0, 8005078 <__pow5mult+0x40>
 800506c:	4b1d      	ldr	r3, [pc, #116]	@ (80050e4 <__pow5mult+0xac>)
 800506e:	481e      	ldr	r0, [pc, #120]	@ (80050e8 <__pow5mult+0xb0>)
 8005070:	f240 11b3 	movw	r1, #435	@ 0x1b3
 8005074:	f000 fbea 	bl	800584c <__assert_func>
 8005078:	e9c0 4401 	strd	r4, r4, [r0, #4]
 800507c:	6004      	str	r4, [r0, #0]
 800507e:	60c4      	str	r4, [r0, #12]
 8005080:	f8d7 801c 	ldr.w	r8, [r7, #28]
 8005084:	f8d8 4008 	ldr.w	r4, [r8, #8]
 8005088:	b94c      	cbnz	r4, 800509e <__pow5mult+0x66>
 800508a:	f240 2171 	movw	r1, #625	@ 0x271
 800508e:	4638      	mov	r0, r7
 8005090:	f7ff ff12 	bl	8004eb8 <__i2b>
 8005094:	2300      	movs	r3, #0
 8005096:	f8c8 0008 	str.w	r0, [r8, #8]
 800509a:	4604      	mov	r4, r0
 800509c:	6003      	str	r3, [r0, #0]
 800509e:	f04f 0900 	mov.w	r9, #0
 80050a2:	07eb      	lsls	r3, r5, #31
 80050a4:	d50a      	bpl.n	80050bc <__pow5mult+0x84>
 80050a6:	4631      	mov	r1, r6
 80050a8:	4622      	mov	r2, r4
 80050aa:	4638      	mov	r0, r7
 80050ac:	f7ff ff1a 	bl	8004ee4 <__multiply>
 80050b0:	4631      	mov	r1, r6
 80050b2:	4680      	mov	r8, r0
 80050b4:	4638      	mov	r0, r7
 80050b6:	f7ff fe4b 	bl	8004d50 <_Bfree>
 80050ba:	4646      	mov	r6, r8
 80050bc:	106d      	asrs	r5, r5, #1
 80050be:	d00b      	beq.n	80050d8 <__pow5mult+0xa0>
 80050c0:	6820      	ldr	r0, [r4, #0]
 80050c2:	b938      	cbnz	r0, 80050d4 <__pow5mult+0x9c>
 80050c4:	4622      	mov	r2, r4
 80050c6:	4621      	mov	r1, r4
 80050c8:	4638      	mov	r0, r7
 80050ca:	f7ff ff0b 	bl	8004ee4 <__multiply>
 80050ce:	6020      	str	r0, [r4, #0]
 80050d0:	f8c0 9000 	str.w	r9, [r0]
 80050d4:	4604      	mov	r4, r0
 80050d6:	e7e4      	b.n	80050a2 <__pow5mult+0x6a>
 80050d8:	4630      	mov	r0, r6
 80050da:	e8bd 83f8 	ldmia.w	sp!, {r3, r4, r5, r6, r7, r8, r9, pc}
 80050de:	bf00      	nop
 80050e0:	0800713c 	.word	0x0800713c
 80050e4:	08007062 	.word	0x08007062
 80050e8:	080070e2 	.word	0x080070e2

080050ec <__lshift>:
 80050ec:	e92d 47f0 	stmdb	sp!, {r4, r5, r6, r7, r8, r9, sl, lr}
 80050f0:	460c      	mov	r4, r1
 80050f2:	6849      	ldr	r1, [r1, #4]
 80050f4:	6923      	ldr	r3, [r4, #16]
 80050f6:	eb03 1862 	add.w	r8, r3, r2, asr #5
 80050fa:	68a3      	ldr	r3, [r4, #8]
 80050fc:	4607      	mov	r7, r0
 80050fe:	4691      	mov	r9, r2
 8005100:	ea4f 1a62 	mov.w	sl, r2, asr #5
 8005104:	f108 0601 	add.w	r6, r8, #1
 8005108:	42b3      	cmp	r3, r6
 800510a:	db0b      	blt.n	8005124 <__lshift+0x38>
 800510c:	4638      	mov	r0, r7
 800510e:	f7ff fddf 	bl	8004cd0 <_Balloc>
 8005112:	4605      	mov	r5, r0
 8005114:	b948      	cbnz	r0, 800512a <__lshift+0x3e>
 8005116:	4602      	mov	r2, r0
 8005118:	4b28      	ldr	r3, [pc, #160]	@ (80051bc <__lshift+0xd0>)
 800511a:	4829      	ldr	r0, [pc, #164]	@ (80051c0 <__lshift+0xd4>)
 800511c:	f44f 71ef 	mov.w	r1, #478	@ 0x1de
 8005120:	f000 fb94 	bl	800584c <__assert_func>
 8005124:	3101      	adds	r1, #1
 8005126:	005b      	lsls	r3, r3, #1
 8005128:	e7ee      	b.n	8005108 <__lshift+0x1c>
 800512a:	2300      	movs	r3, #0
 800512c:	f100 0114 	add.w	r1, r0, #20
 8005130:	f100 0210 	add.w	r2, r0, #16
 8005134:	4618      	mov	r0, r3
 8005136:	4553      	cmp	r3, sl
 8005138:	db33      	blt.n	80051a2 <__lshift+0xb6>
 800513a:	6920      	ldr	r0, [r4, #16]
 800513c:	ea2a 7aea 	bic.w	sl, sl, sl, asr #31
 8005140:	f104 0314 	add.w	r3, r4, #20
 8005144:	f019 091f 	ands.w	r9, r9, #31
 8005148:	eb01 018a 	add.w	r1, r1, sl, lsl #2
 800514c:	eb03 0c80 	add.w	ip, r3, r0, lsl #2
 8005150:	d02b      	beq.n	80051aa <__lshift+0xbe>
 8005152:	f1c9 0e20 	rsb	lr, r9, #32
 8005156:	468a      	mov	sl, r1
 8005158:	2200      	movs	r2, #0
 800515a:	6818      	ldr	r0, [r3, #0]
 800515c:	fa00 f009 	lsl.w	r0, r0, r9
 8005160:	4310      	orrs	r0, r2
 8005162:	f84a 0b04 	str.w	r0, [sl], #4
 8005166:	f853 2b04 	ldr.w	r2, [r3], #4
 800516a:	459c      	cmp	ip, r3
 800516c:	fa22 f20e 	lsr.w	r2, r2, lr
 8005170:	d8f3      	bhi.n	800515a <__lshift+0x6e>
 8005172:	ebac 0304 	sub.w	r3, ip, r4
 8005176:	3b15      	subs	r3, #21
 8005178:	f023 0303 	bic.w	r3, r3, #3
 800517c:	3304      	adds	r3, #4
 800517e:	f104 0015 	add.w	r0, r4, #21
 8005182:	4584      	cmp	ip, r0
 8005184:	bf38      	it	cc
 8005186:	2304      	movcc	r3, #4
 8005188:	50ca      	str	r2, [r1, r3]
 800518a:	b10a      	cbz	r2, 8005190 <__lshift+0xa4>
 800518c:	f108 0602 	add.w	r6, r8, #2
 8005190:	3e01      	subs	r6, #1
 8005192:	4638      	mov	r0, r7
 8005194:	612e      	str	r6, [r5, #16]
 8005196:	4621      	mov	r1, r4
 8005198:	f7ff fdda 	bl	8004d50 <_Bfree>
 800519c:	4628      	mov	r0, r5
 800519e:	e8bd 87f0 	ldmia.w	sp!, {r4, r5, r6, r7, r8, r9, sl, pc}
 80051a2:	f842 0f04 	str.w	r0, [r2, #4]!
 80051a6:	3301      	adds	r3, #1
 80051a8:	e7c5      	b.n	8005136 <__lshift+0x4a>
 80051aa:	3904      	subs	r1, #4
 80051ac:	f853 2b04 	ldr.w	r2, [r3], #4
 80051b0:	f841 2f04 	str.w	r2, [r1, #4]!
 80051b4:	459c      	cmp	ip, r3
 80051b6:	d8f9      	bhi.n	80051ac <__lshift+0xc0>
 80051b8:	e7ea      	b.n	8005190 <__lshift+0xa4>
 80051ba:	bf00      	nop
 80051bc:	080070d1 	.word	0x080070d1
 80051c0:	080070e2 	.word	0x080070e2

080051c4 <__mcmp>:
 80051c4:	690a      	ldr	r2, [r1, #16]
 80051c6:	4603      	mov	r3, r0
 80051c8:	6900      	ldr	r0, [r0, #16]
 80051ca:	1a80      	subs	r0, r0, r2
 80051cc:	b530      	push	{r4, r5, lr}
 80051ce:	d10e      	bne.n	80051ee <__mcmp+0x2a>
 80051d0:	3314      	adds	r3, #20
 80051d2:	3114      	adds	r1, #20
 80051d4:	eb03 0482 	add.w	r4, r3, r2, lsl #2
 80051d8:	eb01 0182 	add.w	r1, r1, r2, lsl #2
 80051dc:	f854 5d04 	ldr.w	r5, [r4, #-4]!
 80051e0:	f851 2d04 	ldr.w	r2, [r1, #-4]!
 80051e4:	4295      	cmp	r5, r2
 80051e6:	d003      	beq.n	80051f0 <__mcmp+0x2c>
 80051e8:	d205      	bcs.n	80051f6 <__mcmp+0x32>
 80051ea:	f04f 30ff 	mov.w	r0, #4294967295
 80051ee:	bd30      	pop	{r4, r5, pc}
 80051f0:	42a3      	cmp	r3, r4
 80051f2:	d3f3      	bcc.n	80051dc <__mcmp+0x18>
 80051f4:	e7fb      	b.n	80051ee <__mcmp+0x2a>
 80051f6:	2001      	movs	r0, #1
 80051f8:	e7f9      	b.n	80051ee <__mcmp+0x2a>
	...

080051fc <__mdiff>:
 80051fc:	e92d 4ff7 	stmdb	sp!, {r0, r1, r2, r4, r5, r6, r7, r8, r9, sl, fp, lr}
 8005200:	4689      	mov	r9, r1
 8005202:	4606      	mov	r6, r0
 8005204:	4611      	mov	r1, r2
 8005206:	4648      	mov	r0, r9
 8005208:	4614      	mov	r4, r2
 800520a:	f7ff ffdb 	bl	80051c4 <__mcmp>
 800520e:	1e05      	subs	r5, r0, #0
 8005210:	d112      	bne.n	8005238 <__mdiff+0x3c>
 8005212:	4629      	mov	r1, r5
 8005214:	4630      	mov	r0, r6
 8005216:	f7ff fd5b 	bl	8004cd0 <_Balloc>
 800521a:	4602      	mov	r2, r0
 800521c:	b928      	cbnz	r0, 800522a <__mdiff+0x2e>
 800521e:	4b3f      	ldr	r3, [pc, #252]	@ (800531c <__mdiff+0x120>)
 8005220:	f240 2137 	movw	r1, #567	@ 0x237
 8005224:	483e      	ldr	r0, [pc, #248]	@ (8005320 <__mdiff+0x124>)
 8005226:	f000 fb11 	bl	800584c <__assert_func>
 800522a:	2301      	movs	r3, #1
 800522c:	e9c0 3504 	strd	r3, r5, [r0, #16]
 8005230:	4610      	mov	r0, r2
 8005232:	b003      	add	sp, #12
 8005234:	e8bd 8ff0 	ldmia.w	sp!, {r4, r5, r6, r7, r8, r9, sl, fp, pc}
 8005238:	bfbc      	itt	lt
 800523a:	464b      	movlt	r3, r9
 800523c:	46a1      	movlt	r9, r4
 800523e:	4630      	mov	r0, r6
 8005240:	f8d9 1004 	ldr.w	r1, [r9, #4]
 8005244:	bfba      	itte	lt
 8005246:	461c      	movlt	r4, r3
 8005248:	2501      	movlt	r5, #1
 800524a:	2500      	movge	r5, #0
 800524c:	f7ff fd40 	bl	8004cd0 <_Balloc>
 8005250:	4602      	mov	r2, r0
 8005252:	b918      	cbnz	r0, 800525c <__mdiff+0x60>
 8005254:	4b31      	ldr	r3, [pc, #196]	@ (800531c <__mdiff+0x120>)
 8005256:	f240 2145 	movw	r1, #581	@ 0x245
 800525a:	e7e3      	b.n	8005224 <__mdiff+0x28>
 800525c:	f8d9 7010 	ldr.w	r7, [r9, #16]
 8005260:	6926      	ldr	r6, [r4, #16]
 8005262:	60c5      	str	r5, [r0, #12]
 8005264:	f109 0310 	add.w	r3, r9, #16
 8005268:	f109 0514 	add.w	r5, r9, #20
 800526c:	f104 0e14 	add.w	lr, r4, #20
 8005270:	f100 0b14 	add.w	fp, r0, #20
 8005274:	eb05 0887 	add.w	r8, r5, r7, lsl #2
 8005278:	eb0e 0686 	add.w	r6, lr, r6, lsl #2
 800527c:	9301      	str	r3, [sp, #4]
 800527e:	46d9      	mov	r9, fp
 8005280:	f04f 0c00 	mov.w	ip, #0
 8005284:	9b01      	ldr	r3, [sp, #4]
 8005286:	f85e 0b04 	ldr.w	r0, [lr], #4
 800528a:	f853 af04 	ldr.w	sl, [r3, #4]!
 800528e:	9301      	str	r3, [sp, #4]
 8005290:	fa1f f38a 	uxth.w	r3, sl
 8005294:	4619      	mov	r1, r3
 8005296:	b283      	uxth	r3, r0
 8005298:	1acb      	subs	r3, r1, r3
 800529a:	0c00      	lsrs	r0, r0, #16
 800529c:	4463      	add	r3, ip
 800529e:	ebc0 401a 	rsb	r0, r0, sl, lsr #16
 80052a2:	eb00 4023 	add.w	r0, r0, r3, asr #16
 80052a6:	b29b      	uxth	r3, r3
 80052a8:	ea43 4300 	orr.w	r3, r3, r0, lsl #16
 80052ac:	4576      	cmp	r6, lr
 80052ae:	f849 3b04 	str.w	r3, [r9], #4
 80052b2:	ea4f 4c20 	mov.w	ip, r0, asr #16
 80052b6:	d8e5      	bhi.n	8005284 <__mdiff+0x88>
 80052b8:	1b33      	subs	r3, r6, r4
 80052ba:	3b15      	subs	r3, #21
 80052bc:	f023 0303 	bic.w	r3, r3, #3
 80052c0:	3415      	adds	r4, #21
 80052c2:	3304      	adds	r3, #4
 80052c4:	42a6      	cmp	r6, r4
 80052c6:	bf38      	it	cc
 80052c8:	2304      	movcc	r3, #4
 80052ca:	441d      	add	r5, r3
 80052cc:	445b      	add	r3, fp
 80052ce:	461e      	mov	r6, r3
 80052d0:	462c      	mov	r4, r5
 80052d2:	4544      	cmp	r4, r8
 80052d4:	d30e      	bcc.n	80052f4 <__mdiff+0xf8>
 80052d6:	f108 0103 	add.w	r1, r8, #3
 80052da:	1b49      	subs	r1, r1, r5
 80052dc:	f021 0103 	bic.w	r1, r1, #3
 80052e0:	3d03      	subs	r5, #3
 80052e2:	45a8      	cmp	r8, r5
 80052e4:	bf38      	it	cc
 80052e6:	2100      	movcc	r1, #0
 80052e8:	440b      	add	r3, r1
 80052ea:	f853 1d04 	ldr.w	r1, [r3, #-4]!
 80052ee:	b191      	cbz	r1, 8005316 <__mdiff+0x11a>
 80052f0:	6117      	str	r7, [r2, #16]
 80052f2:	e79d      	b.n	8005230 <__mdiff+0x34>
 80052f4:	f854 1b04 	ldr.w	r1, [r4], #4
 80052f8:	46e6      	mov	lr, ip
 80052fa:	0c08      	lsrs	r0, r1, #16
 80052fc:	fa1c fc81 	uxtah	ip, ip, r1
 8005300:	4471      	add	r1, lr
 8005302:	eb00 402c 	add.w	r0, r0, ip, asr #16
 8005306:	b289      	uxth	r1, r1
 8005308:	ea41 4100 	orr.w	r1, r1, r0, lsl #16
 800530c:	f846 1b04 	str.w	r1, [r6], #4
 8005310:	ea4f 4c20 	mov.w	ip, r0, asr #16
 8005314:	e7dd      	b.n	80052d2 <__mdiff+0xd6>
 8005316:	3f01      	subs	r7, #1
 8005318:	e7e7      	b.n	80052ea <__mdiff+0xee>
 800531a:	bf00      	nop
 800531c:	080070d1 	.word	0x080070d1
 8005320:	080070e2 	.word	0x080070e2

08005324 <__d2b>:
 8005324:	e92d 43f7 	stmdb	sp!, {r0, r1, r2, r4, r5, r6, r7, r8, r9, lr}
 8005328:	460f      	mov	r7, r1
 800532a:	2101      	movs	r1, #1
 800532c:	ec59 8b10 	vmov	r8, r9, d0
 8005330:	4616      	mov	r6, r2
 8005332:	f7ff fccd 	bl	8004cd0 <_Balloc>
 8005336:	4604      	mov	r4, r0
 8005338:	b930      	cbnz	r0, 8005348 <__d2b+0x24>
 800533a:	4602      	mov	r2, r0
 800533c:	4b23      	ldr	r3, [pc, #140]	@ (80053cc <__d2b+0xa8>)
 800533e:	4824      	ldr	r0, [pc, #144]	@ (80053d0 <__d2b+0xac>)
 8005340:	f240 310f 	movw	r1, #783	@ 0x30f
 8005344:	f000 fa82 	bl	800584c <__assert_func>
 8005348:	f3c9 550a 	ubfx	r5, r9, #20, #11
 800534c:	f3c9 0313 	ubfx	r3, r9, #0, #20
 8005350:	b10d      	cbz	r5, 8005356 <__d2b+0x32>
 8005352:	f443 1380 	orr.w	r3, r3, #1048576	@ 0x100000
 8005356:	9301      	str	r3, [sp, #4]
 8005358:	f1b8 0300 	subs.w	r3, r8, #0
 800535c:	d023      	beq.n	80053a6 <__d2b+0x82>
 800535e:	4668      	mov	r0, sp
 8005360:	9300      	str	r3, [sp, #0]
 8005362:	f7ff fd7c 	bl	8004e5e <__lo0bits>
 8005366:	e9dd 1200 	ldrd	r1, r2, [sp]
 800536a:	b1d0      	cbz	r0, 80053a2 <__d2b+0x7e>
 800536c:	f1c0 0320 	rsb	r3, r0, #32
 8005370:	fa02 f303 	lsl.w	r3, r2, r3
 8005374:	430b      	orrs	r3, r1
 8005376:	40c2      	lsrs	r2, r0
 8005378:	6163      	str	r3, [r4, #20]
 800537a:	9201      	str	r2, [sp, #4]
 800537c:	9b01      	ldr	r3, [sp, #4]
 800537e:	61a3      	str	r3, [r4, #24]
 8005380:	2b00      	cmp	r3, #0
 8005382:	bf0c      	ite	eq
 8005384:	2201      	moveq	r2, #1
 8005386:	2202      	movne	r2, #2
 8005388:	6122      	str	r2, [r4, #16]
 800538a:	b1a5      	cbz	r5, 80053b6 <__d2b+0x92>
 800538c:	f2a5 4533 	subw	r5, r5, #1075	@ 0x433
 8005390:	4405      	add	r5, r0
 8005392:	603d      	str	r5, [r7, #0]
 8005394:	f1c0 0035 	rsb	r0, r0, #53	@ 0x35
 8005398:	6030      	str	r0, [r6, #0]
 800539a:	4620      	mov	r0, r4
 800539c:	b003      	add	sp, #12
 800539e:	e8bd 83f0 	ldmia.w	sp!, {r4, r5, r6, r7, r8, r9, pc}
 80053a2:	6161      	str	r1, [r4, #20]
 80053a4:	e7ea      	b.n	800537c <__d2b+0x58>
 80053a6:	a801      	add	r0, sp, #4
 80053a8:	f7ff fd59 	bl	8004e5e <__lo0bits>
 80053ac:	9b01      	ldr	r3, [sp, #4]
 80053ae:	6163      	str	r3, [r4, #20]
 80053b0:	3020      	adds	r0, #32
 80053b2:	2201      	movs	r2, #1
 80053b4:	e7e8      	b.n	8005388 <__d2b+0x64>
 80053b6:	eb04 0382 	add.w	r3, r4, r2, lsl #2
 80053ba:	f2a0 4032 	subw	r0, r0, #1074	@ 0x432
 80053be:	6038      	str	r0, [r7, #0]
 80053c0:	6918      	ldr	r0, [r3, #16]
 80053c2:	f7ff fd2d 	bl	8004e20 <__hi0bits>
 80053c6:	ebc0 1042 	rsb	r0, r0, r2, lsl #5
 80053ca:	e7e5      	b.n	8005398 <__d2b+0x74>
 80053cc:	080070d1 	.word	0x080070d1
 80053d0:	080070e2 	.word	0x080070e2

080053d4 <__ssputs_r>:
 80053d4:	e92d 47f0 	stmdb	sp!, {r4, r5, r6, r7, r8, r9, sl, lr}
 80053d8:	688e      	ldr	r6, [r1, #8]
 80053da:	461f      	mov	r7, r3
 80053dc:	42be      	cmp	r6, r7
 80053de:	680b      	ldr	r3, [r1, #0]
 80053e0:	4682      	mov	sl, r0
 80053e2:	460c      	mov	r4, r1
 80053e4:	4690      	mov	r8, r2
 80053e6:	d82d      	bhi.n	8005444 <__ssputs_r+0x70>
 80053e8:	f9b1 200c 	ldrsh.w	r2, [r1, #12]
 80053ec:	f412 6f90 	tst.w	r2, #1152	@ 0x480
 80053f0:	d026      	beq.n	8005440 <__ssputs_r+0x6c>
 80053f2:	6965      	ldr	r5, [r4, #20]
 80053f4:	6909      	ldr	r1, [r1, #16]
 80053f6:	eb05 0545 	add.w	r5, r5, r5, lsl #1
 80053fa:	eba3 0901 	sub.w	r9, r3, r1
 80053fe:	eb05 75d5 	add.w	r5, r5, r5, lsr #31
 8005402:	1c7b      	adds	r3, r7, #1
 8005404:	444b      	add	r3, r9
 8005406:	106d      	asrs	r5, r5, #1
 8005408:	429d      	cmp	r5, r3
 800540a:	bf38      	it	cc
 800540c:	461d      	movcc	r5, r3
 800540e:	0553      	lsls	r3, r2, #21
 8005410:	d527      	bpl.n	8005462 <__ssputs_r+0x8e>
 8005412:	4629      	mov	r1, r5
 8005414:	f7ff fbd0 	bl	8004bb8 <_malloc_r>
 8005418:	4606      	mov	r6, r0
 800541a:	b360      	cbz	r0, 8005476 <__ssputs_r+0xa2>
 800541c:	6921      	ldr	r1, [r4, #16]
 800541e:	464a      	mov	r2, r9
 8005420:	f000 fa06 	bl	8005830 <memcpy>
 8005424:	89a3      	ldrh	r3, [r4, #12]
 8005426:	f423 6390 	bic.w	r3, r3, #1152	@ 0x480
 800542a:	f043 0380 	orr.w	r3, r3, #128	@ 0x80
 800542e:	81a3      	strh	r3, [r4, #12]
 8005430:	6126      	str	r6, [r4, #16]
 8005432:	6165      	str	r5, [r4, #20]
 8005434:	444e      	add	r6, r9
 8005436:	eba5 0509 	sub.w	r5, r5, r9
 800543a:	6026      	str	r6, [r4, #0]
 800543c:	60a5      	str	r5, [r4, #8]
 800543e:	463e      	mov	r6, r7
 8005440:	42be      	cmp	r6, r7
 8005442:	d900      	bls.n	8005446 <__ssputs_r+0x72>
 8005444:	463e      	mov	r6, r7
 8005446:	6820      	ldr	r0, [r4, #0]
 8005448:	4632      	mov	r2, r6
 800544a:	4641      	mov	r1, r8
 800544c:	f000 f9c6 	bl	80057dc <memmove>
 8005450:	68a3      	ldr	r3, [r4, #8]
 8005452:	1b9b      	subs	r3, r3, r6
 8005454:	60a3      	str	r3, [r4, #8]
 8005456:	6823      	ldr	r3, [r4, #0]
 8005458:	4433      	add	r3, r6
 800545a:	6023      	str	r3, [r4, #0]
 800545c:	2000      	movs	r0, #0
 800545e:	e8bd 87f0 	ldmia.w	sp!, {r4, r5, r6, r7, r8, r9, sl, pc}
 8005462:	462a      	mov	r2, r5
 8005464:	f000 fa36 	bl	80058d4 <_realloc_r>
 8005468:	4606      	mov	r6, r0
 800546a:	2800      	cmp	r0, #0
 800546c:	d1e0      	bne.n	8005430 <__ssputs_r+0x5c>
 800546e:	6921      	ldr	r1, [r4, #16]
 8005470:	4650      	mov	r0, sl
 8005472:	f7ff fb2d 	bl	8004ad0 <_free_r>
 8005476:	230c      	movs	r3, #12
 8005478:	f8ca 3000 	str.w	r3, [sl]
 800547c:	89a3      	ldrh	r3, [r4, #12]
 800547e:	f043 0340 	orr.w	r3, r3, #64	@ 0x40
 8005482:	81a3      	strh	r3, [r4, #12]
 8005484:	f04f 30ff 	mov.w	r0, #4294967295
 8005488:	e7e9      	b.n	800545e <__ssputs_r+0x8a>
	...

0800548c <_svfiprintf_r>:
 800548c:	e92d 4ff0 	stmdb	sp!, {r4, r5, r6, r7, r8, r9, sl, fp, lr}
 8005490:	4698      	mov	r8, r3
 8005492:	898b      	ldrh	r3, [r1, #12]
 8005494:	061b      	lsls	r3, r3, #24
 8005496:	b09d      	sub	sp, #116	@ 0x74
 8005498:	4607      	mov	r7, r0
 800549a:	460d      	mov	r5, r1
 800549c:	4614      	mov	r4, r2
 800549e:	d510      	bpl.n	80054c2 <_svfiprintf_r+0x36>
 80054a0:	690b      	ldr	r3, [r1, #16]
 80054a2:	b973      	cbnz	r3, 80054c2 <_svfiprintf_r+0x36>
 80054a4:	2140      	movs	r1, #64	@ 0x40
 80054a6:	f7ff fb87 	bl	8004bb8 <_malloc_r>
 80054aa:	6028      	str	r0, [r5, #0]
 80054ac:	6128      	str	r0, [r5, #16]
 80054ae:	b930      	cbnz	r0, 80054be <_svfiprintf_r+0x32>
 80054b0:	230c      	movs	r3, #12
 80054b2:	603b      	str	r3, [r7, #0]
 80054b4:	f04f 30ff 	mov.w	r0, #4294967295
 80054b8:	b01d      	add	sp, #116	@ 0x74
 80054ba:	e8bd 8ff0 	ldmia.w	sp!, {r4, r5, r6, r7, r8, r9, sl, fp, pc}
 80054be:	2340      	movs	r3, #64	@ 0x40
 80054c0:	616b      	str	r3, [r5, #20]
 80054c2:	2300      	movs	r3, #0
 80054c4:	9309      	str	r3, [sp, #36]	@ 0x24
 80054c6:	2320      	movs	r3, #32
 80054c8:	f88d 3029 	strb.w	r3, [sp, #41]	@ 0x29
 80054cc:	f8cd 800c 	str.w	r8, [sp, #12]
 80054d0:	2330      	movs	r3, #48	@ 0x30
 80054d2:	f8df 819c 	ldr.w	r8, [pc, #412]	@ 8005670 <_svfiprintf_r+0x1e4>
 80054d6:	f88d 302a 	strb.w	r3, [sp, #42]	@ 0x2a
 80054da:	f04f 0901 	mov.w	r9, #1
 80054de:	4623      	mov	r3, r4
 80054e0:	469a      	mov	sl, r3
 80054e2:	f813 2b01 	ldrb.w	r2, [r3], #1
 80054e6:	b10a      	cbz	r2, 80054ec <_svfiprintf_r+0x60>
 80054e8:	2a25      	cmp	r2, #37	@ 0x25
 80054ea:	d1f9      	bne.n	80054e0 <_svfiprintf_r+0x54>
 80054ec:	ebba 0b04 	subs.w	fp, sl, r4
 80054f0:	d00b      	beq.n	800550a <_svfiprintf_r+0x7e>
 80054f2:	465b      	mov	r3, fp
 80054f4:	4622      	mov	r2, r4
 80054f6:	4629      	mov	r1, r5
 80054f8:	4638      	mov	r0, r7
 80054fa:	f7ff ff6b 	bl	80053d4 <__ssputs_r>
 80054fe:	3001      	adds	r0, #1
 8005500:	f000 80a7 	beq.w	8005652 <_svfiprintf_r+0x1c6>
 8005504:	9a09      	ldr	r2, [sp, #36]	@ 0x24
 8005506:	445a      	add	r2, fp
 8005508:	9209      	str	r2, [sp, #36]	@ 0x24
 800550a:	f89a 3000 	ldrb.w	r3, [sl]
 800550e:	2b00      	cmp	r3, #0
 8005510:	f000 809f 	beq.w	8005652 <_svfiprintf_r+0x1c6>
 8005514:	2300      	movs	r3, #0
 8005516:	f04f 32ff 	mov.w	r2, #4294967295
 800551a:	e9cd 2305 	strd	r2, r3, [sp, #20]
 800551e:	f10a 0a01 	add.w	sl, sl, #1
 8005522:	9304      	str	r3, [sp, #16]
 8005524:	9307      	str	r3, [sp, #28]
 8005526:	f88d 3053 	strb.w	r3, [sp, #83]	@ 0x53
 800552a:	931a      	str	r3, [sp, #104]	@ 0x68
 800552c:	4654      	mov	r4, sl
 800552e:	2205      	movs	r2, #5
 8005530:	f814 1b01 	ldrb.w	r1, [r4], #1
 8005534:	484e      	ldr	r0, [pc, #312]	@ (8005670 <_svfiprintf_r+0x1e4>)
 8005536:	f7fa fe7b 	bl	8000230 <memchr>
 800553a:	9a04      	ldr	r2, [sp, #16]
 800553c:	b9d8      	cbnz	r0, 8005576 <_svfiprintf_r+0xea>
 800553e:	06d0      	lsls	r0, r2, #27
 8005540:	bf44      	itt	mi
 8005542:	2320      	movmi	r3, #32
 8005544:	f88d 3053 	strbmi.w	r3, [sp, #83]	@ 0x53
 8005548:	0711      	lsls	r1, r2, #28
 800554a:	bf44      	itt	mi
 800554c:	232b      	movmi	r3, #43	@ 0x2b
 800554e:	f88d 3053 	strbmi.w	r3, [sp, #83]	@ 0x53
 8005552:	f89a 3000 	ldrb.w	r3, [sl]
 8005556:	2b2a      	cmp	r3, #42	@ 0x2a
 8005558:	d015      	beq.n	8005586 <_svfiprintf_r+0xfa>
 800555a:	9a07      	ldr	r2, [sp, #28]
 800555c:	4654      	mov	r4, sl
 800555e:	2000      	movs	r0, #0
 8005560:	f04f 0c0a 	mov.w	ip, #10
 8005564:	4621      	mov	r1, r4
 8005566:	f811 3b01 	ldrb.w	r3, [r1], #1
 800556a:	3b30      	subs	r3, #48	@ 0x30
 800556c:	2b09      	cmp	r3, #9
 800556e:	d94b      	bls.n	8005608 <_svfiprintf_r+0x17c>
 8005570:	b1b0      	cbz	r0, 80055a0 <_svfiprintf_r+0x114>
 8005572:	9207      	str	r2, [sp, #28]
 8005574:	e014      	b.n	80055a0 <_svfiprintf_r+0x114>
 8005576:	eba0 0308 	sub.w	r3, r0, r8
 800557a:	fa09 f303 	lsl.w	r3, r9, r3
 800557e:	4313      	orrs	r3, r2
 8005580:	9304      	str	r3, [sp, #16]
 8005582:	46a2      	mov	sl, r4
 8005584:	e7d2      	b.n	800552c <_svfiprintf_r+0xa0>
 8005586:	9b03      	ldr	r3, [sp, #12]
 8005588:	1d19      	adds	r1, r3, #4
 800558a:	681b      	ldr	r3, [r3, #0]
 800558c:	9103      	str	r1, [sp, #12]
 800558e:	2b00      	cmp	r3, #0
 8005590:	bfbb      	ittet	lt
 8005592:	425b      	neglt	r3, r3
 8005594:	f042 0202 	orrlt.w	r2, r2, #2
 8005598:	9307      	strge	r3, [sp, #28]
 800559a:	9307      	strlt	r3, [sp, #28]
 800559c:	bfb8      	it	lt
 800559e:	9204      	strlt	r2, [sp, #16]
 80055a0:	7823      	ldrb	r3, [r4, #0]
 80055a2:	2b2e      	cmp	r3, #46	@ 0x2e
 80055a4:	d10a      	bne.n	80055bc <_svfiprintf_r+0x130>
 80055a6:	7863      	ldrb	r3, [r4, #1]
 80055a8:	2b2a      	cmp	r3, #42	@ 0x2a
 80055aa:	d132      	bne.n	8005612 <_svfiprintf_r+0x186>
 80055ac:	9b03      	ldr	r3, [sp, #12]
 80055ae:	1d1a      	adds	r2, r3, #4
 80055b0:	681b      	ldr	r3, [r3, #0]
 80055b2:	9203      	str	r2, [sp, #12]
 80055b4:	ea43 73e3 	orr.w	r3, r3, r3, asr #31
 80055b8:	3402      	adds	r4, #2
 80055ba:	9305      	str	r3, [sp, #20]
 80055bc:	f8df a0c0 	ldr.w	sl, [pc, #192]	@ 8005680 <_svfiprintf_r+0x1f4>
 80055c0:	7821      	ldrb	r1, [r4, #0]
 80055c2:	2203      	movs	r2, #3
 80055c4:	4650      	mov	r0, sl
 80055c6:	f7fa fe33 	bl	8000230 <memchr>
 80055ca:	b138      	cbz	r0, 80055dc <_svfiprintf_r+0x150>
 80055cc:	9b04      	ldr	r3, [sp, #16]
 80055ce:	eba0 000a 	sub.w	r0, r0, sl
 80055d2:	2240      	movs	r2, #64	@ 0x40
 80055d4:	4082      	lsls	r2, r0
 80055d6:	4313      	orrs	r3, r2
 80055d8:	3401      	adds	r4, #1
 80055da:	9304      	str	r3, [sp, #16]
 80055dc:	f814 1b01 	ldrb.w	r1, [r4], #1
 80055e0:	4824      	ldr	r0, [pc, #144]	@ (8005674 <_svfiprintf_r+0x1e8>)
 80055e2:	f88d 1028 	strb.w	r1, [sp, #40]	@ 0x28
 80055e6:	2206      	movs	r2, #6
 80055e8:	f7fa fe22 	bl	8000230 <memchr>
 80055ec:	2800      	cmp	r0, #0
 80055ee:	d036      	beq.n	800565e <_svfiprintf_r+0x1d2>
 80055f0:	4b21      	ldr	r3, [pc, #132]	@ (8005678 <_svfiprintf_r+0x1ec>)
 80055f2:	bb1b      	cbnz	r3, 800563c <_svfiprintf_r+0x1b0>
 80055f4:	9b03      	ldr	r3, [sp, #12]
 80055f6:	3307      	adds	r3, #7
 80055f8:	f023 0307 	bic.w	r3, r3, #7
 80055fc:	3308      	adds	r3, #8
 80055fe:	9303      	str	r3, [sp, #12]
 8005600:	9b09      	ldr	r3, [sp, #36]	@ 0x24
 8005602:	4433      	add	r3, r6
 8005604:	9309      	str	r3, [sp, #36]	@ 0x24
 8005606:	e76a      	b.n	80054de <_svfiprintf_r+0x52>
 8005608:	fb0c 3202 	mla	r2, ip, r2, r3
 800560c:	460c      	mov	r4, r1
 800560e:	2001      	movs	r0, #1
 8005610:	e7a8      	b.n	8005564 <_svfiprintf_r+0xd8>
 8005612:	2300      	movs	r3, #0
 8005614:	3401      	adds	r4, #1
 8005616:	9305      	str	r3, [sp, #20]
 8005618:	4619      	mov	r1, r3
 800561a:	f04f 0c0a 	mov.w	ip, #10
 800561e:	4620      	mov	r0, r4
 8005620:	f810 2b01 	ldrb.w	r2, [r0], #1
 8005624:	3a30      	subs	r2, #48	@ 0x30
 8005626:	2a09      	cmp	r2, #9
 8005628:	d903      	bls.n	8005632 <_svfiprintf_r+0x1a6>
 800562a:	2b00      	cmp	r3, #0
 800562c:	d0c6      	beq.n	80055bc <_svfiprintf_r+0x130>
 800562e:	9105      	str	r1, [sp, #20]
 8005630:	e7c4      	b.n	80055bc <_svfiprintf_r+0x130>
 8005632:	fb0c 2101 	mla	r1, ip, r1, r2
 8005636:	4604      	mov	r4, r0
 8005638:	2301      	movs	r3, #1
 800563a:	e7f0      	b.n	800561e <_svfiprintf_r+0x192>
 800563c:	ab03      	add	r3, sp, #12
 800563e:	9300      	str	r3, [sp, #0]
 8005640:	462a      	mov	r2, r5
 8005642:	4b0e      	ldr	r3, [pc, #56]	@ (800567c <_svfiprintf_r+0x1f0>)
 8005644:	a904      	add	r1, sp, #16
 8005646:	4638      	mov	r0, r7
 8005648:	f7fd fe26 	bl	8003298 <_printf_float>
 800564c:	1c42      	adds	r2, r0, #1
 800564e:	4606      	mov	r6, r0
 8005650:	d1d6      	bne.n	8005600 <_svfiprintf_r+0x174>
 8005652:	89ab      	ldrh	r3, [r5, #12]
 8005654:	065b      	lsls	r3, r3, #25
 8005656:	f53f af2d 	bmi.w	80054b4 <_svfiprintf_r+0x28>
 800565a:	9809      	ldr	r0, [sp, #36]	@ 0x24
 800565c:	e72c      	b.n	80054b8 <_svfiprintf_r+0x2c>
 800565e:	ab03      	add	r3, sp, #12
 8005660:	9300      	str	r3, [sp, #0]
 8005662:	462a      	mov	r2, r5
 8005664:	4b05      	ldr	r3, [pc, #20]	@ (800567c <_svfiprintf_r+0x1f0>)
 8005666:	a904      	add	r1, sp, #16
 8005668:	4638      	mov	r0, r7
 800566a:	f7fe f8ad 	bl	80037c8 <_printf_i>
 800566e:	e7ed      	b.n	800564c <_svfiprintf_r+0x1c0>
 8005670:	08007238 	.word	0x08007238
 8005674:	08007242 	.word	0x08007242
 8005678:	08003299 	.word	0x08003299
 800567c:	080053d5 	.word	0x080053d5
 8005680:	0800723e 	.word	0x0800723e

08005684 <__sflush_r>:
 8005684:	f9b1 200c 	ldrsh.w	r2, [r1, #12]
 8005688:	e92d 41f0 	stmdb	sp!, {r4, r5, r6, r7, r8, lr}
 800568c:	0716      	lsls	r6, r2, #28
 800568e:	4605      	mov	r5, r0
 8005690:	460c      	mov	r4, r1
 8005692:	d454      	bmi.n	800573e <__sflush_r+0xba>
 8005694:	684b      	ldr	r3, [r1, #4]
 8005696:	2b00      	cmp	r3, #0
 8005698:	dc02      	bgt.n	80056a0 <__sflush_r+0x1c>
 800569a:	6c0b      	ldr	r3, [r1, #64]	@ 0x40
 800569c:	2b00      	cmp	r3, #0
 800569e:	dd48      	ble.n	8005732 <__sflush_r+0xae>
 80056a0:	6ae6      	ldr	r6, [r4, #44]	@ 0x2c
 80056a2:	2e00      	cmp	r6, #0
 80056a4:	d045      	beq.n	8005732 <__sflush_r+0xae>
 80056a6:	2300      	movs	r3, #0
 80056a8:	f412 5280 	ands.w	r2, r2, #4096	@ 0x1000
 80056ac:	682f      	ldr	r7, [r5, #0]
 80056ae:	6a21      	ldr	r1, [r4, #32]
 80056b0:	602b      	str	r3, [r5, #0]
 80056b2:	d030      	beq.n	8005716 <__sflush_r+0x92>
 80056b4:	6d62      	ldr	r2, [r4, #84]	@ 0x54
 80056b6:	89a3      	ldrh	r3, [r4, #12]
 80056b8:	0759      	lsls	r1, r3, #29
 80056ba:	d505      	bpl.n	80056c8 <__sflush_r+0x44>
 80056bc:	6863      	ldr	r3, [r4, #4]
 80056be:	1ad2      	subs	r2, r2, r3
 80056c0:	6b63      	ldr	r3, [r4, #52]	@ 0x34
 80056c2:	b10b      	cbz	r3, 80056c8 <__sflush_r+0x44>
 80056c4:	6c23      	ldr	r3, [r4, #64]	@ 0x40
 80056c6:	1ad2      	subs	r2, r2, r3
 80056c8:	2300      	movs	r3, #0
 80056ca:	6ae6      	ldr	r6, [r4, #44]	@ 0x2c
 80056cc:	6a21      	ldr	r1, [r4, #32]
 80056ce:	4628      	mov	r0, r5
 80056d0:	47b0      	blx	r6
 80056d2:	1c43      	adds	r3, r0, #1
 80056d4:	89a3      	ldrh	r3, [r4, #12]
 80056d6:	d106      	bne.n	80056e6 <__sflush_r+0x62>
 80056d8:	6829      	ldr	r1, [r5, #0]
 80056da:	291d      	cmp	r1, #29
 80056dc:	d82b      	bhi.n	8005736 <__sflush_r+0xb2>
 80056de:	4a2a      	ldr	r2, [pc, #168]	@ (8005788 <__sflush_r+0x104>)
 80056e0:	410a      	asrs	r2, r1
 80056e2:	07d6      	lsls	r6, r2, #31
 80056e4:	d427      	bmi.n	8005736 <__sflush_r+0xb2>
 80056e6:	2200      	movs	r2, #0
 80056e8:	6062      	str	r2, [r4, #4]
 80056ea:	04d9      	lsls	r1, r3, #19
 80056ec:	6922      	ldr	r2, [r4, #16]
 80056ee:	6022      	str	r2, [r4, #0]
 80056f0:	d504      	bpl.n	80056fc <__sflush_r+0x78>
 80056f2:	1c42      	adds	r2, r0, #1
 80056f4:	d101      	bne.n	80056fa <__sflush_r+0x76>
 80056f6:	682b      	ldr	r3, [r5, #0]
 80056f8:	b903      	cbnz	r3, 80056fc <__sflush_r+0x78>
 80056fa:	6560      	str	r0, [r4, #84]	@ 0x54
 80056fc:	6b61      	ldr	r1, [r4, #52]	@ 0x34
 80056fe:	602f      	str	r7, [r5, #0]
 8005700:	b1b9      	cbz	r1, 8005732 <__sflush_r+0xae>
 8005702:	f104 0344 	add.w	r3, r4, #68	@ 0x44
 8005706:	4299      	cmp	r1, r3
 8005708:	d002      	beq.n	8005710 <__sflush_r+0x8c>
 800570a:	4628      	mov	r0, r5
 800570c:	f7ff f9e0 	bl	8004ad0 <_free_r>
 8005710:	2300      	movs	r3, #0
 8005712:	6363      	str	r3, [r4, #52]	@ 0x34
 8005714:	e00d      	b.n	8005732 <__sflush_r+0xae>
 8005716:	2301      	movs	r3, #1
 8005718:	4628      	mov	r0, r5
 800571a:	47b0      	blx	r6
 800571c:	4602      	mov	r2, r0
 800571e:	1c50      	adds	r0, r2, #1
 8005720:	d1c9      	bne.n	80056b6 <__sflush_r+0x32>
 8005722:	682b      	ldr	r3, [r5, #0]
 8005724:	2b00      	cmp	r3, #0
 8005726:	d0c6      	beq.n	80056b6 <__sflush_r+0x32>
 8005728:	2b1d      	cmp	r3, #29
 800572a:	d001      	beq.n	8005730 <__sflush_r+0xac>
 800572c:	2b16      	cmp	r3, #22
 800572e:	d11e      	bne.n	800576e <__sflush_r+0xea>
 8005730:	602f      	str	r7, [r5, #0]
 8005732:	2000      	movs	r0, #0
 8005734:	e022      	b.n	800577c <__sflush_r+0xf8>
 8005736:	f043 0340 	orr.w	r3, r3, #64	@ 0x40
 800573a:	b21b      	sxth	r3, r3
 800573c:	e01b      	b.n	8005776 <__sflush_r+0xf2>
 800573e:	690f      	ldr	r7, [r1, #16]
 8005740:	2f00      	cmp	r7, #0
 8005742:	d0f6      	beq.n	8005732 <__sflush_r+0xae>
 8005744:	0793      	lsls	r3, r2, #30
 8005746:	680e      	ldr	r6, [r1, #0]
 8005748:	bf08      	it	eq
 800574a:	694b      	ldreq	r3, [r1, #20]
 800574c:	600f      	str	r7, [r1, #0]
 800574e:	bf18      	it	ne
 8005750:	2300      	movne	r3, #0
 8005752:	eba6 0807 	sub.w	r8, r6, r7
 8005756:	608b      	str	r3, [r1, #8]
 8005758:	f1b8 0f00 	cmp.w	r8, #0
 800575c:	dde9      	ble.n	8005732 <__sflush_r+0xae>
 800575e:	6a21      	ldr	r1, [r4, #32]
 8005760:	6aa6      	ldr	r6, [r4, #40]	@ 0x28
 8005762:	4643      	mov	r3, r8
 8005764:	463a      	mov	r2, r7
 8005766:	4628      	mov	r0, r5
 8005768:	47b0      	blx	r6
 800576a:	2800      	cmp	r0, #0
 800576c:	dc08      	bgt.n	8005780 <__sflush_r+0xfc>
 800576e:	f9b4 300c 	ldrsh.w	r3, [r4, #12]
 8005772:	f043 0340 	orr.w	r3, r3, #64	@ 0x40
 8005776:	81a3      	strh	r3, [r4, #12]
 8005778:	f04f 30ff 	mov.w	r0, #4294967295
 800577c:	e8bd 81f0 	ldmia.w	sp!, {r4, r5, r6, r7, r8, pc}
 8005780:	4407      	add	r7, r0
 8005782:	eba8 0800 	sub.w	r8, r8, r0
 8005786:	e7e7      	b.n	8005758 <__sflush_r+0xd4>
 8005788:	dfbffffe 	.word	0xdfbffffe

0800578c <_fflush_r>:
 800578c:	b538      	push	{r3, r4, r5, lr}
 800578e:	690b      	ldr	r3, [r1, #16]
 8005790:	4605      	mov	r5, r0
 8005792:	460c      	mov	r4, r1
 8005794:	b913      	cbnz	r3, 800579c <_fflush_r+0x10>
 8005796:	2500      	movs	r5, #0
 8005798:	4628      	mov	r0, r5
 800579a:	bd38      	pop	{r3, r4, r5, pc}
 800579c:	b118      	cbz	r0, 80057a6 <_fflush_r+0x1a>
 800579e:	6a03      	ldr	r3, [r0, #32]
 80057a0:	b90b      	cbnz	r3, 80057a6 <_fflush_r+0x1a>
 80057a2:	f7fe f9bd 	bl	8003b20 <__sinit>
 80057a6:	f9b4 300c 	ldrsh.w	r3, [r4, #12]
 80057aa:	2b00      	cmp	r3, #0
 80057ac:	d0f3      	beq.n	8005796 <_fflush_r+0xa>
 80057ae:	6e62      	ldr	r2, [r4, #100]	@ 0x64
 80057b0:	07d0      	lsls	r0, r2, #31
 80057b2:	d404      	bmi.n	80057be <_fflush_r+0x32>
 80057b4:	0599      	lsls	r1, r3, #22
 80057b6:	d402      	bmi.n	80057be <_fflush_r+0x32>
 80057b8:	6da0      	ldr	r0, [r4, #88]	@ 0x58
 80057ba:	f7fe fb32 	bl	8003e22 <__retarget_lock_acquire_recursive>
 80057be:	4628      	mov	r0, r5
 80057c0:	4621      	mov	r1, r4
 80057c2:	f7ff ff5f 	bl	8005684 <__sflush_r>
 80057c6:	6e63      	ldr	r3, [r4, #100]	@ 0x64
 80057c8:	07da      	lsls	r2, r3, #31
 80057ca:	4605      	mov	r5, r0
 80057cc:	d4e4      	bmi.n	8005798 <_fflush_r+0xc>
 80057ce:	89a3      	ldrh	r3, [r4, #12]
 80057d0:	059b      	lsls	r3, r3, #22
 80057d2:	d4e1      	bmi.n	8005798 <_fflush_r+0xc>
 80057d4:	6da0      	ldr	r0, [r4, #88]	@ 0x58
 80057d6:	f7fe fb25 	bl	8003e24 <__retarget_lock_release_recursive>
 80057da:	e7dd      	b.n	8005798 <_fflush_r+0xc>

080057dc <memmove>:
 80057dc:	4288      	cmp	r0, r1
 80057de:	b510      	push	{r4, lr}
 80057e0:	eb01 0402 	add.w	r4, r1, r2
 80057e4:	d902      	bls.n	80057ec <memmove+0x10>
 80057e6:	4284      	cmp	r4, r0
 80057e8:	4623      	mov	r3, r4
 80057ea:	d807      	bhi.n	80057fc <memmove+0x20>
 80057ec:	1e43      	subs	r3, r0, #1
 80057ee:	42a1      	cmp	r1, r4
 80057f0:	d008      	beq.n	8005804 <memmove+0x28>
 80057f2:	f811 2b01 	ldrb.w	r2, [r1], #1
 80057f6:	f803 2f01 	strb.w	r2, [r3, #1]!
 80057fa:	e7f8      	b.n	80057ee <memmove+0x12>
 80057fc:	4402      	add	r2, r0
 80057fe:	4601      	mov	r1, r0
 8005800:	428a      	cmp	r2, r1
 8005802:	d100      	bne.n	8005806 <memmove+0x2a>
 8005804:	bd10      	pop	{r4, pc}
 8005806:	f813 4d01 	ldrb.w	r4, [r3, #-1]!
 800580a:	f802 4d01 	strb.w	r4, [r2, #-1]!
 800580e:	e7f7      	b.n	8005800 <memmove+0x24>

08005810 <_sbrk_r>:
 8005810:	b538      	push	{r3, r4, r5, lr}
 8005812:	4d06      	ldr	r5, [pc, #24]	@ (800582c <_sbrk_r+0x1c>)
 8005814:	2300      	movs	r3, #0
 8005816:	4604      	mov	r4, r0
 8005818:	4608      	mov	r0, r1
 800581a:	602b      	str	r3, [r5, #0]
 800581c:	f7fc f8f2 	bl	8001a04 <_sbrk>
 8005820:	1c43      	adds	r3, r0, #1
 8005822:	d102      	bne.n	800582a <_sbrk_r+0x1a>
 8005824:	682b      	ldr	r3, [r5, #0]
 8005826:	b103      	cbz	r3, 800582a <_sbrk_r+0x1a>
 8005828:	6023      	str	r3, [r4, #0]
 800582a:	bd38      	pop	{r3, r4, r5, pc}
 800582c:	200006ec 	.word	0x200006ec

08005830 <memcpy>:
 8005830:	440a      	add	r2, r1
 8005832:	4291      	cmp	r1, r2
 8005834:	f100 33ff 	add.w	r3, r0, #4294967295
 8005838:	d100      	bne.n	800583c <memcpy+0xc>
 800583a:	4770      	bx	lr
 800583c:	b510      	push	{r4, lr}
 800583e:	f811 4b01 	ldrb.w	r4, [r1], #1
 8005842:	f803 4f01 	strb.w	r4, [r3, #1]!
 8005846:	4291      	cmp	r1, r2
 8005848:	d1f9      	bne.n	800583e <memcpy+0xe>
 800584a:	bd10      	pop	{r4, pc}

0800584c <__assert_func>:
 800584c:	b51f      	push	{r0, r1, r2, r3, r4, lr}
 800584e:	4614      	mov	r4, r2
 8005850:	461a      	mov	r2, r3
 8005852:	4b09      	ldr	r3, [pc, #36]	@ (8005878 <__assert_func+0x2c>)
 8005854:	681b      	ldr	r3, [r3, #0]
 8005856:	4605      	mov	r5, r0
 8005858:	68d8      	ldr	r0, [r3, #12]
 800585a:	b954      	cbnz	r4, 8005872 <__assert_func+0x26>
 800585c:	4b07      	ldr	r3, [pc, #28]	@ (800587c <__assert_func+0x30>)
 800585e:	461c      	mov	r4, r3
 8005860:	e9cd 3401 	strd	r3, r4, [sp, #4]
 8005864:	9100      	str	r1, [sp, #0]
 8005866:	462b      	mov	r3, r5
 8005868:	4905      	ldr	r1, [pc, #20]	@ (8005880 <__assert_func+0x34>)
 800586a:	f000 f86f 	bl	800594c <fiprintf>
 800586e:	f000 f87f 	bl	8005970 <abort>
 8005872:	4b04      	ldr	r3, [pc, #16]	@ (8005884 <__assert_func+0x38>)
 8005874:	e7f4      	b.n	8005860 <__assert_func+0x14>
 8005876:	bf00      	nop
 8005878:	20000040 	.word	0x20000040
 800587c:	08006e1c 	.word	0x08006e1c
 8005880:	0800725e 	.word	0x0800725e
 8005884:	08007251 	.word	0x08007251

08005888 <_calloc_r>:
 8005888:	b570      	push	{r4, r5, r6, lr}
 800588a:	fba1 5402 	umull	r5, r4, r1, r2
 800588e:	b93c      	cbnz	r4, 80058a0 <_calloc_r+0x18>
 8005890:	4629      	mov	r1, r5
 8005892:	f7ff f991 	bl	8004bb8 <_malloc_r>
 8005896:	4606      	mov	r6, r0
 8005898:	b928      	cbnz	r0, 80058a6 <_calloc_r+0x1e>
 800589a:	2600      	movs	r6, #0
 800589c:	4630      	mov	r0, r6
 800589e:	bd70      	pop	{r4, r5, r6, pc}
 80058a0:	220c      	movs	r2, #12
 80058a2:	6002      	str	r2, [r0, #0]
 80058a4:	e7f9      	b.n	800589a <_calloc_r+0x12>
 80058a6:	462a      	mov	r2, r5
 80058a8:	4621      	mov	r1, r4
 80058aa:	f7fe fa06 	bl	8003cba <memset>
 80058ae:	e7f5      	b.n	800589c <_calloc_r+0x14>

080058b0 <__ascii_mbtowc>:
 80058b0:	b082      	sub	sp, #8
 80058b2:	b901      	cbnz	r1, 80058b6 <__ascii_mbtowc+0x6>
 80058b4:	a901      	add	r1, sp, #4
 80058b6:	b142      	cbz	r2, 80058ca <__ascii_mbtowc+0x1a>
 80058b8:	b14b      	cbz	r3, 80058ce <__ascii_mbtowc+0x1e>
 80058ba:	7813      	ldrb	r3, [r2, #0]
 80058bc:	600b      	str	r3, [r1, #0]
 80058be:	7812      	ldrb	r2, [r2, #0]
 80058c0:	1e10      	subs	r0, r2, #0
 80058c2:	bf18      	it	ne
 80058c4:	2001      	movne	r0, #1
 80058c6:	b002      	add	sp, #8
 80058c8:	4770      	bx	lr
 80058ca:	4610      	mov	r0, r2
 80058cc:	e7fb      	b.n	80058c6 <__ascii_mbtowc+0x16>
 80058ce:	f06f 0001 	mvn.w	r0, #1
 80058d2:	e7f8      	b.n	80058c6 <__ascii_mbtowc+0x16>

080058d4 <_realloc_r>:
 80058d4:	e92d 41f0 	stmdb	sp!, {r4, r5, r6, r7, r8, lr}
 80058d8:	4680      	mov	r8, r0
 80058da:	4615      	mov	r5, r2
 80058dc:	460c      	mov	r4, r1
 80058de:	b921      	cbnz	r1, 80058ea <_realloc_r+0x16>
 80058e0:	e8bd 41f0 	ldmia.w	sp!, {r4, r5, r6, r7, r8, lr}
 80058e4:	4611      	mov	r1, r2
 80058e6:	f7ff b967 	b.w	8004bb8 <_malloc_r>
 80058ea:	b92a      	cbnz	r2, 80058f8 <_realloc_r+0x24>
 80058ec:	f7ff f8f0 	bl	8004ad0 <_free_r>
 80058f0:	2400      	movs	r4, #0
 80058f2:	4620      	mov	r0, r4
 80058f4:	e8bd 81f0 	ldmia.w	sp!, {r4, r5, r6, r7, r8, pc}
 80058f8:	f000 f841 	bl	800597e <_malloc_usable_size_r>
 80058fc:	4285      	cmp	r5, r0
 80058fe:	4606      	mov	r6, r0
 8005900:	d802      	bhi.n	8005908 <_realloc_r+0x34>
 8005902:	ebb5 0f50 	cmp.w	r5, r0, lsr #1
 8005906:	d8f4      	bhi.n	80058f2 <_realloc_r+0x1e>
 8005908:	4629      	mov	r1, r5
 800590a:	4640      	mov	r0, r8
 800590c:	f7ff f954 	bl	8004bb8 <_malloc_r>
 8005910:	4607      	mov	r7, r0
 8005912:	2800      	cmp	r0, #0
 8005914:	d0ec      	beq.n	80058f0 <_realloc_r+0x1c>
 8005916:	42b5      	cmp	r5, r6
 8005918:	462a      	mov	r2, r5
 800591a:	4621      	mov	r1, r4
 800591c:	bf28      	it	cs
 800591e:	4632      	movcs	r2, r6
 8005920:	f7ff ff86 	bl	8005830 <memcpy>
 8005924:	4621      	mov	r1, r4
 8005926:	4640      	mov	r0, r8
 8005928:	f7ff f8d2 	bl	8004ad0 <_free_r>
 800592c:	463c      	mov	r4, r7
 800592e:	e7e0      	b.n	80058f2 <_realloc_r+0x1e>

08005930 <__ascii_wctomb>:
 8005930:	4603      	mov	r3, r0
 8005932:	4608      	mov	r0, r1
 8005934:	b141      	cbz	r1, 8005948 <__ascii_wctomb+0x18>
 8005936:	2aff      	cmp	r2, #255	@ 0xff
 8005938:	d904      	bls.n	8005944 <__ascii_wctomb+0x14>
 800593a:	228a      	movs	r2, #138	@ 0x8a
 800593c:	601a      	str	r2, [r3, #0]
 800593e:	f04f 30ff 	mov.w	r0, #4294967295
 8005942:	4770      	bx	lr
 8005944:	700a      	strb	r2, [r1, #0]
 8005946:	2001      	movs	r0, #1
 8005948:	4770      	bx	lr
	...

0800594c <fiprintf>:
 800594c:	b40e      	push	{r1, r2, r3}
 800594e:	b503      	push	{r0, r1, lr}
 8005950:	4601      	mov	r1, r0
 8005952:	ab03      	add	r3, sp, #12
 8005954:	4805      	ldr	r0, [pc, #20]	@ (800596c <fiprintf+0x20>)
 8005956:	f853 2b04 	ldr.w	r2, [r3], #4
 800595a:	6800      	ldr	r0, [r0, #0]
 800595c:	9301      	str	r3, [sp, #4]
 800595e:	f000 f83f 	bl	80059e0 <_vfiprintf_r>
 8005962:	b002      	add	sp, #8
 8005964:	f85d eb04 	ldr.w	lr, [sp], #4
 8005968:	b003      	add	sp, #12
 800596a:	4770      	bx	lr
 800596c:	20000040 	.word	0x20000040

08005970 <abort>:
 8005970:	b508      	push	{r3, lr}
 8005972:	2006      	movs	r0, #6
 8005974:	f000 fa08 	bl	8005d88 <raise>
 8005978:	2001      	movs	r0, #1
 800597a:	f7fc f815 	bl	80019a8 <_exit>

0800597e <_malloc_usable_size_r>:
 800597e:	f851 3c04 	ldr.w	r3, [r1, #-4]
 8005982:	1f18      	subs	r0, r3, #4
 8005984:	2b00      	cmp	r3, #0
 8005986:	bfbc      	itt	lt
 8005988:	580b      	ldrlt	r3, [r1, r0]
 800598a:	18c0      	addlt	r0, r0, r3
 800598c:	4770      	bx	lr

0800598e <__sfputc_r>:
 800598e:	6893      	ldr	r3, [r2, #8]
 8005990:	3b01      	subs	r3, #1
 8005992:	2b00      	cmp	r3, #0
 8005994:	b410      	push	{r4}
 8005996:	6093      	str	r3, [r2, #8]
 8005998:	da08      	bge.n	80059ac <__sfputc_r+0x1e>
 800599a:	6994      	ldr	r4, [r2, #24]
 800599c:	42a3      	cmp	r3, r4
 800599e:	db01      	blt.n	80059a4 <__sfputc_r+0x16>
 80059a0:	290a      	cmp	r1, #10
 80059a2:	d103      	bne.n	80059ac <__sfputc_r+0x1e>
 80059a4:	f85d 4b04 	ldr.w	r4, [sp], #4
 80059a8:	f000 b932 	b.w	8005c10 <__swbuf_r>
 80059ac:	6813      	ldr	r3, [r2, #0]
 80059ae:	1c58      	adds	r0, r3, #1
 80059b0:	6010      	str	r0, [r2, #0]
 80059b2:	7019      	strb	r1, [r3, #0]
 80059b4:	4608      	mov	r0, r1
 80059b6:	f85d 4b04 	ldr.w	r4, [sp], #4
 80059ba:	4770      	bx	lr

080059bc <__sfputs_r>:
 80059bc:	b5f8      	push	{r3, r4, r5, r6, r7, lr}
 80059be:	4606      	mov	r6, r0
 80059c0:	460f      	mov	r7, r1
 80059c2:	4614      	mov	r4, r2
 80059c4:	18d5      	adds	r5, r2, r3
 80059c6:	42ac      	cmp	r4, r5
 80059c8:	d101      	bne.n	80059ce <__sfputs_r+0x12>
 80059ca:	2000      	movs	r0, #0
 80059cc:	e007      	b.n	80059de <__sfputs_r+0x22>
 80059ce:	f814 1b01 	ldrb.w	r1, [r4], #1
 80059d2:	463a      	mov	r2, r7
 80059d4:	4630      	mov	r0, r6
 80059d6:	f7ff ffda 	bl	800598e <__sfputc_r>
 80059da:	1c43      	adds	r3, r0, #1
 80059dc:	d1f3      	bne.n	80059c6 <__sfputs_r+0xa>
 80059de:	bdf8      	pop	{r3, r4, r5, r6, r7, pc}

080059e0 <_vfiprintf_r>:
 80059e0:	e92d 4ff0 	stmdb	sp!, {r4, r5, r6, r7, r8, r9, sl, fp, lr}
 80059e4:	460d      	mov	r5, r1
 80059e6:	b09d      	sub	sp, #116	@ 0x74
 80059e8:	4614      	mov	r4, r2
 80059ea:	4698      	mov	r8, r3
 80059ec:	4606      	mov	r6, r0
 80059ee:	b118      	cbz	r0, 80059f8 <_vfiprintf_r+0x18>
 80059f0:	6a03      	ldr	r3, [r0, #32]
 80059f2:	b90b      	cbnz	r3, 80059f8 <_vfiprintf_r+0x18>
 80059f4:	f7fe f894 	bl	8003b20 <__sinit>
 80059f8:	6e6b      	ldr	r3, [r5, #100]	@ 0x64
 80059fa:	07d9      	lsls	r1, r3, #31
 80059fc:	d405      	bmi.n	8005a0a <_vfiprintf_r+0x2a>
 80059fe:	89ab      	ldrh	r3, [r5, #12]
 8005a00:	059a      	lsls	r2, r3, #22
 8005a02:	d402      	bmi.n	8005a0a <_vfiprintf_r+0x2a>
 8005a04:	6da8      	ldr	r0, [r5, #88]	@ 0x58
 8005a06:	f7fe fa0c 	bl	8003e22 <__retarget_lock_acquire_recursive>
 8005a0a:	89ab      	ldrh	r3, [r5, #12]
 8005a0c:	071b      	lsls	r3, r3, #28
 8005a0e:	d501      	bpl.n	8005a14 <_vfiprintf_r+0x34>
 8005a10:	692b      	ldr	r3, [r5, #16]
 8005a12:	b99b      	cbnz	r3, 8005a3c <_vfiprintf_r+0x5c>
 8005a14:	4629      	mov	r1, r5
 8005a16:	4630      	mov	r0, r6
 8005a18:	f000 f938 	bl	8005c8c <__swsetup_r>
 8005a1c:	b170      	cbz	r0, 8005a3c <_vfiprintf_r+0x5c>
 8005a1e:	6e6b      	ldr	r3, [r5, #100]	@ 0x64
 8005a20:	07dc      	lsls	r4, r3, #31
 8005a22:	d504      	bpl.n	8005a2e <_vfiprintf_r+0x4e>
 8005a24:	f04f 30ff 	mov.w	r0, #4294967295
 8005a28:	b01d      	add	sp, #116	@ 0x74
 8005a2a:	e8bd 8ff0 	ldmia.w	sp!, {r4, r5, r6, r7, r8, r9, sl, fp, pc}
 8005a2e:	89ab      	ldrh	r3, [r5, #12]
 8005a30:	0598      	lsls	r0, r3, #22
 8005a32:	d4f7      	bmi.n	8005a24 <_vfiprintf_r+0x44>
 8005a34:	6da8      	ldr	r0, [r5, #88]	@ 0x58
 8005a36:	f7fe f9f5 	bl	8003e24 <__retarget_lock_release_recursive>
 8005a3a:	e7f3      	b.n	8005a24 <_vfiprintf_r+0x44>
 8005a3c:	2300      	movs	r3, #0
 8005a3e:	9309      	str	r3, [sp, #36]	@ 0x24
 8005a40:	2320      	movs	r3, #32
 8005a42:	f88d 3029 	strb.w	r3, [sp, #41]	@ 0x29
 8005a46:	f8cd 800c 	str.w	r8, [sp, #12]
 8005a4a:	2330      	movs	r3, #48	@ 0x30
 8005a4c:	f8df 81ac 	ldr.w	r8, [pc, #428]	@ 8005bfc <_vfiprintf_r+0x21c>
 8005a50:	f88d 302a 	strb.w	r3, [sp, #42]	@ 0x2a
 8005a54:	f04f 0901 	mov.w	r9, #1
 8005a58:	4623      	mov	r3, r4
 8005a5a:	469a      	mov	sl, r3
 8005a5c:	f813 2b01 	ldrb.w	r2, [r3], #1
 8005a60:	b10a      	cbz	r2, 8005a66 <_vfiprintf_r+0x86>
 8005a62:	2a25      	cmp	r2, #37	@ 0x25
 8005a64:	d1f9      	bne.n	8005a5a <_vfiprintf_r+0x7a>
 8005a66:	ebba 0b04 	subs.w	fp, sl, r4
 8005a6a:	d00b      	beq.n	8005a84 <_vfiprintf_r+0xa4>
 8005a6c:	465b      	mov	r3, fp
 8005a6e:	4622      	mov	r2, r4
 8005a70:	4629      	mov	r1, r5
 8005a72:	4630      	mov	r0, r6
 8005a74:	f7ff ffa2 	bl	80059bc <__sfputs_r>
 8005a78:	3001      	adds	r0, #1
 8005a7a:	f000 80a7 	beq.w	8005bcc <_vfiprintf_r+0x1ec>
 8005a7e:	9a09      	ldr	r2, [sp, #36]	@ 0x24
 8005a80:	445a      	add	r2, fp
 8005a82:	9209      	str	r2, [sp, #36]	@ 0x24
 8005a84:	f89a 3000 	ldrb.w	r3, [sl]
 8005a88:	2b00      	cmp	r3, #0
 8005a8a:	f000 809f 	beq.w	8005bcc <_vfiprintf_r+0x1ec>
 8005a8e:	2300      	movs	r3, #0
 8005a90:	f04f 32ff 	mov.w	r2, #4294967295
 8005a94:	e9cd 2305 	strd	r2, r3, [sp, #20]
 8005a98:	f10a 0a01 	add.w	sl, sl, #1
 8005a9c:	9304      	str	r3, [sp, #16]
 8005a9e:	9307      	str	r3, [sp, #28]
 8005aa0:	f88d 3053 	strb.w	r3, [sp, #83]	@ 0x53
 8005aa4:	931a      	str	r3, [sp, #104]	@ 0x68
 8005aa6:	4654      	mov	r4, sl
 8005aa8:	2205      	movs	r2, #5
 8005aaa:	f814 1b01 	ldrb.w	r1, [r4], #1
 8005aae:	4853      	ldr	r0, [pc, #332]	@ (8005bfc <_vfiprintf_r+0x21c>)
 8005ab0:	f7fa fbbe 	bl	8000230 <memchr>
 8005ab4:	9a04      	ldr	r2, [sp, #16]
 8005ab6:	b9d8      	cbnz	r0, 8005af0 <_vfiprintf_r+0x110>
 8005ab8:	06d1      	lsls	r1, r2, #27
 8005aba:	bf44      	itt	mi
 8005abc:	2320      	movmi	r3, #32
 8005abe:	f88d 3053 	strbmi.w	r3, [sp, #83]	@ 0x53
 8005ac2:	0713      	lsls	r3, r2, #28
 8005ac4:	bf44      	itt	mi
 8005ac6:	232b      	movmi	r3, #43	@ 0x2b
 8005ac8:	f88d 3053 	strbmi.w	r3, [sp, #83]	@ 0x53
 8005acc:	f89a 3000 	ldrb.w	r3, [sl]
 8005ad0:	2b2a      	cmp	r3, #42	@ 0x2a
 8005ad2:	d015      	beq.n	8005b00 <_vfiprintf_r+0x120>
 8005ad4:	9a07      	ldr	r2, [sp, #28]
 8005ad6:	4654      	mov	r4, sl
 8005ad8:	2000      	movs	r0, #0
 8005ada:	f04f 0c0a 	mov.w	ip, #10
 8005ade:	4621      	mov	r1, r4
 8005ae0:	f811 3b01 	ldrb.w	r3, [r1], #1
 8005ae4:	3b30      	subs	r3, #48	@ 0x30
 8005ae6:	2b09      	cmp	r3, #9
 8005ae8:	d94b      	bls.n	8005b82 <_vfiprintf_r+0x1a2>
 8005aea:	b1b0      	cbz	r0, 8005b1a <_vfiprintf_r+0x13a>
 8005aec:	9207      	str	r2, [sp, #28]
 8005aee:	e014      	b.n	8005b1a <_vfiprintf_r+0x13a>
 8005af0:	eba0 0308 	sub.w	r3, r0, r8
 8005af4:	fa09 f303 	lsl.w	r3, r9, r3
 8005af8:	4313      	orrs	r3, r2
 8005afa:	9304      	str	r3, [sp, #16]
 8005afc:	46a2      	mov	sl, r4
 8005afe:	e7d2      	b.n	8005aa6 <_vfiprintf_r+0xc6>
 8005b00:	9b03      	ldr	r3, [sp, #12]
 8005b02:	1d19      	adds	r1, r3, #4
 8005b04:	681b      	ldr	r3, [r3, #0]
 8005b06:	9103      	str	r1, [sp, #12]
 8005b08:	2b00      	cmp	r3, #0
 8005b0a:	bfbb      	ittet	lt
 8005b0c:	425b      	neglt	r3, r3
 8005b0e:	f042 0202 	orrlt.w	r2, r2, #2
 8005b12:	9307      	strge	r3, [sp, #28]
 8005b14:	9307      	strlt	r3, [sp, #28]
 8005b16:	bfb8      	it	lt
 8005b18:	9204      	strlt	r2, [sp, #16]
 8005b1a:	7823      	ldrb	r3, [r4, #0]
 8005b1c:	2b2e      	cmp	r3, #46	@ 0x2e
 8005b1e:	d10a      	bne.n	8005b36 <_vfiprintf_r+0x156>
 8005b20:	7863      	ldrb	r3, [r4, #1]
 8005b22:	2b2a      	cmp	r3, #42	@ 0x2a
 8005b24:	d132      	bne.n	8005b8c <_vfiprintf_r+0x1ac>
 8005b26:	9b03      	ldr	r3, [sp, #12]
 8005b28:	1d1a      	adds	r2, r3, #4
 8005b2a:	681b      	ldr	r3, [r3, #0]
 8005b2c:	9203      	str	r2, [sp, #12]
 8005b2e:	ea43 73e3 	orr.w	r3, r3, r3, asr #31
 8005b32:	3402      	adds	r4, #2
 8005b34:	9305      	str	r3, [sp, #20]
 8005b36:	f8df a0d4 	ldr.w	sl, [pc, #212]	@ 8005c0c <_vfiprintf_r+0x22c>
 8005b3a:	7821      	ldrb	r1, [r4, #0]
 8005b3c:	2203      	movs	r2, #3
 8005b3e:	4650      	mov	r0, sl
 8005b40:	f7fa fb76 	bl	8000230 <memchr>
 8005b44:	b138      	cbz	r0, 8005b56 <_vfiprintf_r+0x176>
 8005b46:	9b04      	ldr	r3, [sp, #16]
 8005b48:	eba0 000a 	sub.w	r0, r0, sl
 8005b4c:	2240      	movs	r2, #64	@ 0x40
 8005b4e:	4082      	lsls	r2, r0
 8005b50:	4313      	orrs	r3, r2
 8005b52:	3401      	adds	r4, #1
 8005b54:	9304      	str	r3, [sp, #16]
 8005b56:	f814 1b01 	ldrb.w	r1, [r4], #1
 8005b5a:	4829      	ldr	r0, [pc, #164]	@ (8005c00 <_vfiprintf_r+0x220>)
 8005b5c:	f88d 1028 	strb.w	r1, [sp, #40]	@ 0x28
 8005b60:	2206      	movs	r2, #6
 8005b62:	f7fa fb65 	bl	8000230 <memchr>
 8005b66:	2800      	cmp	r0, #0
 8005b68:	d03f      	beq.n	8005bea <_vfiprintf_r+0x20a>
 8005b6a:	4b26      	ldr	r3, [pc, #152]	@ (8005c04 <_vfiprintf_r+0x224>)
 8005b6c:	bb1b      	cbnz	r3, 8005bb6 <_vfiprintf_r+0x1d6>
 8005b6e:	9b03      	ldr	r3, [sp, #12]
 8005b70:	3307      	adds	r3, #7
 8005b72:	f023 0307 	bic.w	r3, r3, #7
 8005b76:	3308      	adds	r3, #8
 8005b78:	9303      	str	r3, [sp, #12]
 8005b7a:	9b09      	ldr	r3, [sp, #36]	@ 0x24
 8005b7c:	443b      	add	r3, r7
 8005b7e:	9309      	str	r3, [sp, #36]	@ 0x24
 8005b80:	e76a      	b.n	8005a58 <_vfiprintf_r+0x78>
 8005b82:	fb0c 3202 	mla	r2, ip, r2, r3
 8005b86:	460c      	mov	r4, r1
 8005b88:	2001      	movs	r0, #1
 8005b8a:	e7a8      	b.n	8005ade <_vfiprintf_r+0xfe>
 8005b8c:	2300      	movs	r3, #0
 8005b8e:	3401      	adds	r4, #1
 8005b90:	9305      	str	r3, [sp, #20]
 8005b92:	4619      	mov	r1, r3
 8005b94:	f04f 0c0a 	mov.w	ip, #10
 8005b98:	4620      	mov	r0, r4
 8005b9a:	f810 2b01 	ldrb.w	r2, [r0], #1
 8005b9e:	3a30      	subs	r2, #48	@ 0x30
 8005ba0:	2a09      	cmp	r2, #9
 8005ba2:	d903      	bls.n	8005bac <_vfiprintf_r+0x1cc>
 8005ba4:	2b00      	cmp	r3, #0
 8005ba6:	d0c6      	beq.n	8005b36 <_vfiprintf_r+0x156>
 8005ba8:	9105      	str	r1, [sp, #20]
 8005baa:	e7c4      	b.n	8005b36 <_vfiprintf_r+0x156>
 8005bac:	fb0c 2101 	mla	r1, ip, r1, r2
 8005bb0:	4604      	mov	r4, r0
 8005bb2:	2301      	movs	r3, #1
 8005bb4:	e7f0      	b.n	8005b98 <_vfiprintf_r+0x1b8>
 8005bb6:	ab03      	add	r3, sp, #12
 8005bb8:	9300      	str	r3, [sp, #0]
 8005bba:	462a      	mov	r2, r5
 8005bbc:	4b12      	ldr	r3, [pc, #72]	@ (8005c08 <_vfiprintf_r+0x228>)
 8005bbe:	a904      	add	r1, sp, #16
 8005bc0:	4630      	mov	r0, r6
 8005bc2:	f7fd fb69 	bl	8003298 <_printf_float>
 8005bc6:	4607      	mov	r7, r0
 8005bc8:	1c78      	adds	r0, r7, #1
 8005bca:	d1d6      	bne.n	8005b7a <_vfiprintf_r+0x19a>
 8005bcc:	6e6b      	ldr	r3, [r5, #100]	@ 0x64
 8005bce:	07d9      	lsls	r1, r3, #31
 8005bd0:	d405      	bmi.n	8005bde <_vfiprintf_r+0x1fe>
 8005bd2:	89ab      	ldrh	r3, [r5, #12]
 8005bd4:	059a      	lsls	r2, r3, #22
 8005bd6:	d402      	bmi.n	8005bde <_vfiprintf_r+0x1fe>
 8005bd8:	6da8      	ldr	r0, [r5, #88]	@ 0x58
 8005bda:	f7fe f923 	bl	8003e24 <__retarget_lock_release_recursive>
 8005bde:	89ab      	ldrh	r3, [r5, #12]
 8005be0:	065b      	lsls	r3, r3, #25
 8005be2:	f53f af1f 	bmi.w	8005a24 <_vfiprintf_r+0x44>
 8005be6:	9809      	ldr	r0, [sp, #36]	@ 0x24
 8005be8:	e71e      	b.n	8005a28 <_vfiprintf_r+0x48>
 8005bea:	ab03      	add	r3, sp, #12
 8005bec:	9300      	str	r3, [sp, #0]
 8005bee:	462a      	mov	r2, r5
 8005bf0:	4b05      	ldr	r3, [pc, #20]	@ (8005c08 <_vfiprintf_r+0x228>)
 8005bf2:	a904      	add	r1, sp, #16
 8005bf4:	4630      	mov	r0, r6
 8005bf6:	f7fd fde7 	bl	80037c8 <_printf_i>
 8005bfa:	e7e4      	b.n	8005bc6 <_vfiprintf_r+0x1e6>
 8005bfc:	08007238 	.word	0x08007238
 8005c00:	08007242 	.word	0x08007242
 8005c04:	08003299 	.word	0x08003299
 8005c08:	080059bd 	.word	0x080059bd
 8005c0c:	0800723e 	.word	0x0800723e

08005c10 <__swbuf_r>:
 8005c10:	b5f8      	push	{r3, r4, r5, r6, r7, lr}
 8005c12:	460e      	mov	r6, r1
 8005c14:	4614      	mov	r4, r2
 8005c16:	4605      	mov	r5, r0
 8005c18:	b118      	cbz	r0, 8005c22 <__swbuf_r+0x12>
 8005c1a:	6a03      	ldr	r3, [r0, #32]
 8005c1c:	b90b      	cbnz	r3, 8005c22 <__swbuf_r+0x12>
 8005c1e:	f7fd ff7f 	bl	8003b20 <__sinit>
 8005c22:	69a3      	ldr	r3, [r4, #24]
 8005c24:	60a3      	str	r3, [r4, #8]
 8005c26:	89a3      	ldrh	r3, [r4, #12]
 8005c28:	071a      	lsls	r2, r3, #28
 8005c2a:	d501      	bpl.n	8005c30 <__swbuf_r+0x20>
 8005c2c:	6923      	ldr	r3, [r4, #16]
 8005c2e:	b943      	cbnz	r3, 8005c42 <__swbuf_r+0x32>
 8005c30:	4621      	mov	r1, r4
 8005c32:	4628      	mov	r0, r5
 8005c34:	f000 f82a 	bl	8005c8c <__swsetup_r>
 8005c38:	b118      	cbz	r0, 8005c42 <__swbuf_r+0x32>
 8005c3a:	f04f 37ff 	mov.w	r7, #4294967295
 8005c3e:	4638      	mov	r0, r7
 8005c40:	bdf8      	pop	{r3, r4, r5, r6, r7, pc}
 8005c42:	6823      	ldr	r3, [r4, #0]
 8005c44:	6922      	ldr	r2, [r4, #16]
 8005c46:	1a98      	subs	r0, r3, r2
 8005c48:	6963      	ldr	r3, [r4, #20]
 8005c4a:	b2f6      	uxtb	r6, r6
 8005c4c:	4283      	cmp	r3, r0
 8005c4e:	4637      	mov	r7, r6
 8005c50:	dc05      	bgt.n	8005c5e <__swbuf_r+0x4e>
 8005c52:	4621      	mov	r1, r4
 8005c54:	4628      	mov	r0, r5
 8005c56:	f7ff fd99 	bl	800578c <_fflush_r>
 8005c5a:	2800      	cmp	r0, #0
 8005c5c:	d1ed      	bne.n	8005c3a <__swbuf_r+0x2a>
 8005c5e:	68a3      	ldr	r3, [r4, #8]
 8005c60:	3b01      	subs	r3, #1
 8005c62:	60a3      	str	r3, [r4, #8]
 8005c64:	6823      	ldr	r3, [r4, #0]
 8005c66:	1c5a      	adds	r2, r3, #1
 8005c68:	6022      	str	r2, [r4, #0]
 8005c6a:	701e      	strb	r6, [r3, #0]
 8005c6c:	6962      	ldr	r2, [r4, #20]
 8005c6e:	1c43      	adds	r3, r0, #1
 8005c70:	429a      	cmp	r2, r3
 8005c72:	d004      	beq.n	8005c7e <__swbuf_r+0x6e>
 8005c74:	89a3      	ldrh	r3, [r4, #12]
 8005c76:	07db      	lsls	r3, r3, #31
 8005c78:	d5e1      	bpl.n	8005c3e <__swbuf_r+0x2e>
 8005c7a:	2e0a      	cmp	r6, #10
 8005c7c:	d1df      	bne.n	8005c3e <__swbuf_r+0x2e>
 8005c7e:	4621      	mov	r1, r4
 8005c80:	4628      	mov	r0, r5
 8005c82:	f7ff fd83 	bl	800578c <_fflush_r>
 8005c86:	2800      	cmp	r0, #0
 8005c88:	d0d9      	beq.n	8005c3e <__swbuf_r+0x2e>
 8005c8a:	e7d6      	b.n	8005c3a <__swbuf_r+0x2a>

08005c8c <__swsetup_r>:
 8005c8c:	b538      	push	{r3, r4, r5, lr}
 8005c8e:	4b29      	ldr	r3, [pc, #164]	@ (8005d34 <__swsetup_r+0xa8>)
 8005c90:	4605      	mov	r5, r0
 8005c92:	6818      	ldr	r0, [r3, #0]
 8005c94:	460c      	mov	r4, r1
 8005c96:	b118      	cbz	r0, 8005ca0 <__swsetup_r+0x14>
 8005c98:	6a03      	ldr	r3, [r0, #32]
 8005c9a:	b90b      	cbnz	r3, 8005ca0 <__swsetup_r+0x14>
 8005c9c:	f7fd ff40 	bl	8003b20 <__sinit>
 8005ca0:	f9b4 300c 	ldrsh.w	r3, [r4, #12]
 8005ca4:	0719      	lsls	r1, r3, #28
 8005ca6:	d422      	bmi.n	8005cee <__swsetup_r+0x62>
 8005ca8:	06da      	lsls	r2, r3, #27
 8005caa:	d407      	bmi.n	8005cbc <__swsetup_r+0x30>
 8005cac:	2209      	movs	r2, #9
 8005cae:	602a      	str	r2, [r5, #0]
 8005cb0:	f043 0340 	orr.w	r3, r3, #64	@ 0x40
 8005cb4:	81a3      	strh	r3, [r4, #12]
 8005cb6:	f04f 30ff 	mov.w	r0, #4294967295
 8005cba:	e033      	b.n	8005d24 <__swsetup_r+0x98>
 8005cbc:	0758      	lsls	r0, r3, #29
 8005cbe:	d512      	bpl.n	8005ce6 <__swsetup_r+0x5a>
 8005cc0:	6b61      	ldr	r1, [r4, #52]	@ 0x34
 8005cc2:	b141      	cbz	r1, 8005cd6 <__swsetup_r+0x4a>
 8005cc4:	f104 0344 	add.w	r3, r4, #68	@ 0x44
 8005cc8:	4299      	cmp	r1, r3
 8005cca:	d002      	beq.n	8005cd2 <__swsetup_r+0x46>
 8005ccc:	4628      	mov	r0, r5
 8005cce:	f7fe feff 	bl	8004ad0 <_free_r>
 8005cd2:	2300      	movs	r3, #0
 8005cd4:	6363      	str	r3, [r4, #52]	@ 0x34
 8005cd6:	89a3      	ldrh	r3, [r4, #12]
 8005cd8:	f023 0324 	bic.w	r3, r3, #36	@ 0x24
 8005cdc:	81a3      	strh	r3, [r4, #12]
 8005cde:	2300      	movs	r3, #0
 8005ce0:	6063      	str	r3, [r4, #4]
 8005ce2:	6923      	ldr	r3, [r4, #16]
 8005ce4:	6023      	str	r3, [r4, #0]
 8005ce6:	89a3      	ldrh	r3, [r4, #12]
 8005ce8:	f043 0308 	orr.w	r3, r3, #8
 8005cec:	81a3      	strh	r3, [r4, #12]
 8005cee:	6923      	ldr	r3, [r4, #16]
 8005cf0:	b94b      	cbnz	r3, 8005d06 <__swsetup_r+0x7a>
 8005cf2:	89a3      	ldrh	r3, [r4, #12]
 8005cf4:	f403 7320 	and.w	r3, r3, #640	@ 0x280
 8005cf8:	f5b3 7f00 	cmp.w	r3, #512	@ 0x200
 8005cfc:	d003      	beq.n	8005d06 <__swsetup_r+0x7a>
 8005cfe:	4621      	mov	r1, r4
 8005d00:	4628      	mov	r0, r5
 8005d02:	f000 f883 	bl	8005e0c <__smakebuf_r>
 8005d06:	f9b4 300c 	ldrsh.w	r3, [r4, #12]
 8005d0a:	f013 0201 	ands.w	r2, r3, #1
 8005d0e:	d00a      	beq.n	8005d26 <__swsetup_r+0x9a>
 8005d10:	2200      	movs	r2, #0
 8005d12:	60a2      	str	r2, [r4, #8]
 8005d14:	6962      	ldr	r2, [r4, #20]
 8005d16:	4252      	negs	r2, r2
 8005d18:	61a2      	str	r2, [r4, #24]
 8005d1a:	6922      	ldr	r2, [r4, #16]
 8005d1c:	b942      	cbnz	r2, 8005d30 <__swsetup_r+0xa4>
 8005d1e:	f013 0080 	ands.w	r0, r3, #128	@ 0x80
 8005d22:	d1c5      	bne.n	8005cb0 <__swsetup_r+0x24>
 8005d24:	bd38      	pop	{r3, r4, r5, pc}
 8005d26:	0799      	lsls	r1, r3, #30
 8005d28:	bf58      	it	pl
 8005d2a:	6962      	ldrpl	r2, [r4, #20]
 8005d2c:	60a2      	str	r2, [r4, #8]
 8005d2e:	e7f4      	b.n	8005d1a <__swsetup_r+0x8e>
 8005d30:	2000      	movs	r0, #0
 8005d32:	e7f7      	b.n	8005d24 <__swsetup_r+0x98>
 8005d34:	20000040 	.word	0x20000040

08005d38 <_raise_r>:
 8005d38:	291f      	cmp	r1, #31
 8005d3a:	b538      	push	{r3, r4, r5, lr}
 8005d3c:	4605      	mov	r5, r0
 8005d3e:	460c      	mov	r4, r1
 8005d40:	d904      	bls.n	8005d4c <_raise_r+0x14>
 8005d42:	2316      	movs	r3, #22
 8005d44:	6003      	str	r3, [r0, #0]
 8005d46:	f04f 30ff 	mov.w	r0, #4294967295
 8005d4a:	bd38      	pop	{r3, r4, r5, pc}
 8005d4c:	6bc2      	ldr	r2, [r0, #60]	@ 0x3c
 8005d4e:	b112      	cbz	r2, 8005d56 <_raise_r+0x1e>
 8005d50:	f852 3021 	ldr.w	r3, [r2, r1, lsl #2]
 8005d54:	b94b      	cbnz	r3, 8005d6a <_raise_r+0x32>
 8005d56:	4628      	mov	r0, r5
 8005d58:	f000 f830 	bl	8005dbc <_getpid_r>
 8005d5c:	4622      	mov	r2, r4
 8005d5e:	4601      	mov	r1, r0
 8005d60:	4628      	mov	r0, r5
 8005d62:	e8bd 4038 	ldmia.w	sp!, {r3, r4, r5, lr}
 8005d66:	f000 b817 	b.w	8005d98 <_kill_r>
 8005d6a:	2b01      	cmp	r3, #1
 8005d6c:	d00a      	beq.n	8005d84 <_raise_r+0x4c>
 8005d6e:	1c59      	adds	r1, r3, #1
 8005d70:	d103      	bne.n	8005d7a <_raise_r+0x42>
 8005d72:	2316      	movs	r3, #22
 8005d74:	6003      	str	r3, [r0, #0]
 8005d76:	2001      	movs	r0, #1
 8005d78:	e7e7      	b.n	8005d4a <_raise_r+0x12>
 8005d7a:	2100      	movs	r1, #0
 8005d7c:	f842 1024 	str.w	r1, [r2, r4, lsl #2]
 8005d80:	4620      	mov	r0, r4
 8005d82:	4798      	blx	r3
 8005d84:	2000      	movs	r0, #0
 8005d86:	e7e0      	b.n	8005d4a <_raise_r+0x12>

08005d88 <raise>:
 8005d88:	4b02      	ldr	r3, [pc, #8]	@ (8005d94 <raise+0xc>)
 8005d8a:	4601      	mov	r1, r0
 8005d8c:	6818      	ldr	r0, [r3, #0]
 8005d8e:	f7ff bfd3 	b.w	8005d38 <_raise_r>
 8005d92:	bf00      	nop
 8005d94:	20000040 	.word	0x20000040

08005d98 <_kill_r>:
 8005d98:	b538      	push	{r3, r4, r5, lr}
 8005d9a:	4d07      	ldr	r5, [pc, #28]	@ (8005db8 <_kill_r+0x20>)
 8005d9c:	2300      	movs	r3, #0
 8005d9e:	4604      	mov	r4, r0
 8005da0:	4608      	mov	r0, r1
 8005da2:	4611      	mov	r1, r2
 8005da4:	602b      	str	r3, [r5, #0]
 8005da6:	f7fb fdf7 	bl	8001998 <_kill>
 8005daa:	1c43      	adds	r3, r0, #1
 8005dac:	d102      	bne.n	8005db4 <_kill_r+0x1c>
 8005dae:	682b      	ldr	r3, [r5, #0]
 8005db0:	b103      	cbz	r3, 8005db4 <_kill_r+0x1c>
 8005db2:	6023      	str	r3, [r4, #0]
 8005db4:	bd38      	pop	{r3, r4, r5, pc}
 8005db6:	bf00      	nop
 8005db8:	200006ec 	.word	0x200006ec

08005dbc <_getpid_r>:
 8005dbc:	f7fb bdea 	b.w	8001994 <_getpid>

08005dc0 <__swhatbuf_r>:
 8005dc0:	b570      	push	{r4, r5, r6, lr}
 8005dc2:	460c      	mov	r4, r1
 8005dc4:	f9b1 100e 	ldrsh.w	r1, [r1, #14]
 8005dc8:	2900      	cmp	r1, #0
 8005dca:	b096      	sub	sp, #88	@ 0x58
 8005dcc:	4615      	mov	r5, r2
 8005dce:	461e      	mov	r6, r3
 8005dd0:	da0d      	bge.n	8005dee <__swhatbuf_r+0x2e>
 8005dd2:	89a3      	ldrh	r3, [r4, #12]
 8005dd4:	f013 0f80 	tst.w	r3, #128	@ 0x80
 8005dd8:	f04f 0100 	mov.w	r1, #0
 8005ddc:	bf14      	ite	ne
 8005dde:	2340      	movne	r3, #64	@ 0x40
 8005de0:	f44f 6380 	moveq.w	r3, #1024	@ 0x400
 8005de4:	2000      	movs	r0, #0
 8005de6:	6031      	str	r1, [r6, #0]
 8005de8:	602b      	str	r3, [r5, #0]
 8005dea:	b016      	add	sp, #88	@ 0x58
 8005dec:	bd70      	pop	{r4, r5, r6, pc}
 8005dee:	466a      	mov	r2, sp
 8005df0:	f000 f848 	bl	8005e84 <_fstat_r>
 8005df4:	2800      	cmp	r0, #0
 8005df6:	dbec      	blt.n	8005dd2 <__swhatbuf_r+0x12>
 8005df8:	9901      	ldr	r1, [sp, #4]
 8005dfa:	f401 4170 	and.w	r1, r1, #61440	@ 0xf000
 8005dfe:	f5a1 5300 	sub.w	r3, r1, #8192	@ 0x2000
 8005e02:	4259      	negs	r1, r3
 8005e04:	4159      	adcs	r1, r3
 8005e06:	f44f 6380 	mov.w	r3, #1024	@ 0x400
 8005e0a:	e7eb      	b.n	8005de4 <__swhatbuf_r+0x24>

08005e0c <__smakebuf_r>:
 8005e0c:	898b      	ldrh	r3, [r1, #12]
 8005e0e:	b5f7      	push	{r0, r1, r2, r4, r5, r6, r7, lr}
 8005e10:	079d      	lsls	r5, r3, #30
 8005e12:	4606      	mov	r6, r0
 8005e14:	460c      	mov	r4, r1
 8005e16:	d507      	bpl.n	8005e28 <__smakebuf_r+0x1c>
 8005e18:	f104 0347 	add.w	r3, r4, #71	@ 0x47
 8005e1c:	6023      	str	r3, [r4, #0]
 8005e1e:	6123      	str	r3, [r4, #16]
 8005e20:	2301      	movs	r3, #1
 8005e22:	6163      	str	r3, [r4, #20]
 8005e24:	b003      	add	sp, #12
 8005e26:	bdf0      	pop	{r4, r5, r6, r7, pc}
 8005e28:	ab01      	add	r3, sp, #4
 8005e2a:	466a      	mov	r2, sp
 8005e2c:	f7ff ffc8 	bl	8005dc0 <__swhatbuf_r>
 8005e30:	9f00      	ldr	r7, [sp, #0]
 8005e32:	4605      	mov	r5, r0
 8005e34:	4639      	mov	r1, r7
 8005e36:	4630      	mov	r0, r6
 8005e38:	f7fe febe 	bl	8004bb8 <_malloc_r>
 8005e3c:	b948      	cbnz	r0, 8005e52 <__smakebuf_r+0x46>
 8005e3e:	f9b4 300c 	ldrsh.w	r3, [r4, #12]
 8005e42:	059a      	lsls	r2, r3, #22
 8005e44:	d4ee      	bmi.n	8005e24 <__smakebuf_r+0x18>
 8005e46:	f023 0303 	bic.w	r3, r3, #3
 8005e4a:	f043 0302 	orr.w	r3, r3, #2
 8005e4e:	81a3      	strh	r3, [r4, #12]
 8005e50:	e7e2      	b.n	8005e18 <__smakebuf_r+0xc>
 8005e52:	89a3      	ldrh	r3, [r4, #12]
 8005e54:	6020      	str	r0, [r4, #0]
 8005e56:	f043 0380 	orr.w	r3, r3, #128	@ 0x80
 8005e5a:	81a3      	strh	r3, [r4, #12]
 8005e5c:	9b01      	ldr	r3, [sp, #4]
 8005e5e:	e9c4 0704 	strd	r0, r7, [r4, #16]
 8005e62:	b15b      	cbz	r3, 8005e7c <__smakebuf_r+0x70>
 8005e64:	f9b4 100e 	ldrsh.w	r1, [r4, #14]
 8005e68:	4630      	mov	r0, r6
 8005e6a:	f000 f81d 	bl	8005ea8 <_isatty_r>
 8005e6e:	b128      	cbz	r0, 8005e7c <__smakebuf_r+0x70>
 8005e70:	89a3      	ldrh	r3, [r4, #12]
 8005e72:	f023 0303 	bic.w	r3, r3, #3
 8005e76:	f043 0301 	orr.w	r3, r3, #1
 8005e7a:	81a3      	strh	r3, [r4, #12]
 8005e7c:	89a3      	ldrh	r3, [r4, #12]
 8005e7e:	431d      	orrs	r5, r3
 8005e80:	81a5      	strh	r5, [r4, #12]
 8005e82:	e7cf      	b.n	8005e24 <__smakebuf_r+0x18>

08005e84 <_fstat_r>:
 8005e84:	b538      	push	{r3, r4, r5, lr}
 8005e86:	4d07      	ldr	r5, [pc, #28]	@ (8005ea4 <_fstat_r+0x20>)
 8005e88:	2300      	movs	r3, #0
 8005e8a:	4604      	mov	r4, r0
 8005e8c:	4608      	mov	r0, r1
 8005e8e:	4611      	mov	r1, r2
 8005e90:	602b      	str	r3, [r5, #0]
 8005e92:	f7fb fdae 	bl	80019f2 <_fstat>
 8005e96:	1c43      	adds	r3, r0, #1
 8005e98:	d102      	bne.n	8005ea0 <_fstat_r+0x1c>
 8005e9a:	682b      	ldr	r3, [r5, #0]
 8005e9c:	b103      	cbz	r3, 8005ea0 <_fstat_r+0x1c>
 8005e9e:	6023      	str	r3, [r4, #0]
 8005ea0:	bd38      	pop	{r3, r4, r5, pc}
 8005ea2:	bf00      	nop
 8005ea4:	200006ec 	.word	0x200006ec

08005ea8 <_isatty_r>:
 8005ea8:	b538      	push	{r3, r4, r5, lr}
 8005eaa:	4d06      	ldr	r5, [pc, #24]	@ (8005ec4 <_isatty_r+0x1c>)
 8005eac:	2300      	movs	r3, #0
 8005eae:	4604      	mov	r4, r0
 8005eb0:	4608      	mov	r0, r1
 8005eb2:	602b      	str	r3, [r5, #0]
 8005eb4:	f7fb fda2 	bl	80019fc <_isatty>
 8005eb8:	1c43      	adds	r3, r0, #1
 8005eba:	d102      	bne.n	8005ec2 <_isatty_r+0x1a>
 8005ebc:	682b      	ldr	r3, [r5, #0]
 8005ebe:	b103      	cbz	r3, 8005ec2 <_isatty_r+0x1a>
 8005ec0:	6023      	str	r3, [r4, #0]
 8005ec2:	bd38      	pop	{r3, r4, r5, pc}
 8005ec4:	200006ec 	.word	0x200006ec

08005ec8 <pow>:
 8005ec8:	b5f8      	push	{r3, r4, r5, r6, r7, lr}
 8005eca:	ed2d 8b02 	vpush	{d8}
 8005ece:	eeb0 8a40 	vmov.f32	s16, s0
 8005ed2:	eef0 8a60 	vmov.f32	s17, s1
 8005ed6:	ec55 4b11 	vmov	r4, r5, d1
 8005eda:	f000 f871 	bl	8005fc0 <__ieee754_pow>
 8005ede:	4622      	mov	r2, r4
 8005ee0:	462b      	mov	r3, r5
 8005ee2:	4620      	mov	r0, r4
 8005ee4:	4629      	mov	r1, r5
 8005ee6:	ec57 6b10 	vmov	r6, r7, d0
 8005eea:	f7fa fe4f 	bl	8000b8c <__aeabi_dcmpun>
 8005eee:	2800      	cmp	r0, #0
 8005ef0:	d13b      	bne.n	8005f6a <pow+0xa2>
 8005ef2:	ec51 0b18 	vmov	r0, r1, d8
 8005ef6:	2200      	movs	r2, #0
 8005ef8:	2300      	movs	r3, #0
 8005efa:	f7fa fe15 	bl	8000b28 <__aeabi_dcmpeq>
 8005efe:	b1b8      	cbz	r0, 8005f30 <pow+0x68>
 8005f00:	2200      	movs	r2, #0
 8005f02:	2300      	movs	r3, #0
 8005f04:	4620      	mov	r0, r4
 8005f06:	4629      	mov	r1, r5
 8005f08:	f7fa fe0e 	bl	8000b28 <__aeabi_dcmpeq>
 8005f0c:	2800      	cmp	r0, #0
 8005f0e:	d146      	bne.n	8005f9e <pow+0xd6>
 8005f10:	ec45 4b10 	vmov	d0, r4, r5
 8005f14:	f000 f848 	bl	8005fa8 <finite>
 8005f18:	b338      	cbz	r0, 8005f6a <pow+0xa2>
 8005f1a:	2200      	movs	r2, #0
 8005f1c:	2300      	movs	r3, #0
 8005f1e:	4620      	mov	r0, r4
 8005f20:	4629      	mov	r1, r5
 8005f22:	f7fa fe0b 	bl	8000b3c <__aeabi_dcmplt>
 8005f26:	b300      	cbz	r0, 8005f6a <pow+0xa2>
 8005f28:	f7fd ff50 	bl	8003dcc <__errno>
 8005f2c:	2322      	movs	r3, #34	@ 0x22
 8005f2e:	e01b      	b.n	8005f68 <pow+0xa0>
 8005f30:	ec47 6b10 	vmov	d0, r6, r7
 8005f34:	f000 f838 	bl	8005fa8 <finite>
 8005f38:	b9e0      	cbnz	r0, 8005f74 <pow+0xac>
 8005f3a:	eeb0 0a48 	vmov.f32	s0, s16
 8005f3e:	eef0 0a68 	vmov.f32	s1, s17
 8005f42:	f000 f831 	bl	8005fa8 <finite>
 8005f46:	b1a8      	cbz	r0, 8005f74 <pow+0xac>
 8005f48:	ec45 4b10 	vmov	d0, r4, r5
 8005f4c:	f000 f82c 	bl	8005fa8 <finite>
 8005f50:	b180      	cbz	r0, 8005f74 <pow+0xac>
 8005f52:	4632      	mov	r2, r6
 8005f54:	463b      	mov	r3, r7
 8005f56:	4630      	mov	r0, r6
 8005f58:	4639      	mov	r1, r7
 8005f5a:	f7fa fe17 	bl	8000b8c <__aeabi_dcmpun>
 8005f5e:	2800      	cmp	r0, #0
 8005f60:	d0e2      	beq.n	8005f28 <pow+0x60>
 8005f62:	f7fd ff33 	bl	8003dcc <__errno>
 8005f66:	2321      	movs	r3, #33	@ 0x21
 8005f68:	6003      	str	r3, [r0, #0]
 8005f6a:	ecbd 8b02 	vpop	{d8}
 8005f6e:	ec47 6b10 	vmov	d0, r6, r7
 8005f72:	bdf8      	pop	{r3, r4, r5, r6, r7, pc}
 8005f74:	2200      	movs	r2, #0
 8005f76:	2300      	movs	r3, #0
 8005f78:	4630      	mov	r0, r6
 8005f7a:	4639      	mov	r1, r7
 8005f7c:	f7fa fdd4 	bl	8000b28 <__aeabi_dcmpeq>
 8005f80:	2800      	cmp	r0, #0
 8005f82:	d0f2      	beq.n	8005f6a <pow+0xa2>
 8005f84:	eeb0 0a48 	vmov.f32	s0, s16
 8005f88:	eef0 0a68 	vmov.f32	s1, s17
 8005f8c:	f000 f80c 	bl	8005fa8 <finite>
 8005f90:	2800      	cmp	r0, #0
 8005f92:	d0ea      	beq.n	8005f6a <pow+0xa2>
 8005f94:	ec45 4b10 	vmov	d0, r4, r5
 8005f98:	f000 f806 	bl	8005fa8 <finite>
 8005f9c:	e7c3      	b.n	8005f26 <pow+0x5e>
 8005f9e:	4f01      	ldr	r7, [pc, #4]	@ (8005fa4 <pow+0xdc>)
 8005fa0:	2600      	movs	r6, #0
 8005fa2:	e7e2      	b.n	8005f6a <pow+0xa2>
 8005fa4:	3ff00000 	.word	0x3ff00000

08005fa8 <finite>:
 8005fa8:	b082      	sub	sp, #8
 8005faa:	ed8d 0b00 	vstr	d0, [sp]
 8005fae:	9801      	ldr	r0, [sp, #4]
 8005fb0:	f040 4000 	orr.w	r0, r0, #2147483648	@ 0x80000000
 8005fb4:	f500 1080 	add.w	r0, r0, #1048576	@ 0x100000
 8005fb8:	0fc0      	lsrs	r0, r0, #31
 8005fba:	b002      	add	sp, #8
 8005fbc:	4770      	bx	lr
	...

08005fc0 <__ieee754_pow>:
 8005fc0:	e92d 4ff0 	stmdb	sp!, {r4, r5, r6, r7, r8, r9, sl, fp, lr}
 8005fc4:	b091      	sub	sp, #68	@ 0x44
 8005fc6:	ed8d 1b00 	vstr	d1, [sp]
 8005fca:	e9dd 1900 	ldrd	r1, r9, [sp]
 8005fce:	f029 4a00 	bic.w	sl, r9, #2147483648	@ 0x80000000
 8005fd2:	ea5a 0001 	orrs.w	r0, sl, r1
 8005fd6:	ec57 6b10 	vmov	r6, r7, d0
 8005fda:	d113      	bne.n	8006004 <__ieee754_pow+0x44>
 8005fdc:	19b3      	adds	r3, r6, r6
 8005fde:	f487 2200 	eor.w	r2, r7, #524288	@ 0x80000
 8005fe2:	4152      	adcs	r2, r2
 8005fe4:	4298      	cmp	r0, r3
 8005fe6:	4b98      	ldr	r3, [pc, #608]	@ (8006248 <__ieee754_pow+0x288>)
 8005fe8:	4193      	sbcs	r3, r2
 8005fea:	f080 84ea 	bcs.w	80069c2 <__ieee754_pow+0xa02>
 8005fee:	e9dd 2300 	ldrd	r2, r3, [sp]
 8005ff2:	4630      	mov	r0, r6
 8005ff4:	4639      	mov	r1, r7
 8005ff6:	f7fa f979 	bl	80002ec <__adddf3>
 8005ffa:	ec41 0b10 	vmov	d0, r0, r1
 8005ffe:	b011      	add	sp, #68	@ 0x44
 8006000:	e8bd 8ff0 	ldmia.w	sp!, {r4, r5, r6, r7, r8, r9, sl, fp, pc}
 8006004:	4a91      	ldr	r2, [pc, #580]	@ (800624c <__ieee754_pow+0x28c>)
 8006006:	f027 4800 	bic.w	r8, r7, #2147483648	@ 0x80000000
 800600a:	4590      	cmp	r8, r2
 800600c:	463d      	mov	r5, r7
 800600e:	4633      	mov	r3, r6
 8006010:	d806      	bhi.n	8006020 <__ieee754_pow+0x60>
 8006012:	d101      	bne.n	8006018 <__ieee754_pow+0x58>
 8006014:	2e00      	cmp	r6, #0
 8006016:	d1ea      	bne.n	8005fee <__ieee754_pow+0x2e>
 8006018:	4592      	cmp	sl, r2
 800601a:	d801      	bhi.n	8006020 <__ieee754_pow+0x60>
 800601c:	d10e      	bne.n	800603c <__ieee754_pow+0x7c>
 800601e:	b169      	cbz	r1, 800603c <__ieee754_pow+0x7c>
 8006020:	f105 4540 	add.w	r5, r5, #3221225472	@ 0xc0000000
 8006024:	f505 1580 	add.w	r5, r5, #1048576	@ 0x100000
 8006028:	431d      	orrs	r5, r3
 800602a:	d1e0      	bne.n	8005fee <__ieee754_pow+0x2e>
 800602c:	e9dd 3200 	ldrd	r3, r2, [sp]
 8006030:	18db      	adds	r3, r3, r3
 8006032:	f482 2200 	eor.w	r2, r2, #524288	@ 0x80000
 8006036:	4152      	adcs	r2, r2
 8006038:	429d      	cmp	r5, r3
 800603a:	e7d4      	b.n	8005fe6 <__ieee754_pow+0x26>
 800603c:	2d00      	cmp	r5, #0
 800603e:	46c3      	mov	fp, r8
 8006040:	da3a      	bge.n	80060b8 <__ieee754_pow+0xf8>
 8006042:	4a83      	ldr	r2, [pc, #524]	@ (8006250 <__ieee754_pow+0x290>)
 8006044:	4592      	cmp	sl, r2
 8006046:	d84d      	bhi.n	80060e4 <__ieee754_pow+0x124>
 8006048:	f1a2 7254 	sub.w	r2, r2, #55574528	@ 0x3500000
 800604c:	4592      	cmp	sl, r2
 800604e:	f240 84c7 	bls.w	80069e0 <__ieee754_pow+0xa20>
 8006052:	ea4f 522a 	mov.w	r2, sl, asr #20
 8006056:	f2a2 32ff 	subw	r2, r2, #1023	@ 0x3ff
 800605a:	2a14      	cmp	r2, #20
 800605c:	dd0f      	ble.n	800607e <__ieee754_pow+0xbe>
 800605e:	f1c2 0234 	rsb	r2, r2, #52	@ 0x34
 8006062:	fa21 f402 	lsr.w	r4, r1, r2
 8006066:	fa04 f202 	lsl.w	r2, r4, r2
 800606a:	428a      	cmp	r2, r1
 800606c:	f040 84b8 	bne.w	80069e0 <__ieee754_pow+0xa20>
 8006070:	f004 0401 	and.w	r4, r4, #1
 8006074:	f1c4 0402 	rsb	r4, r4, #2
 8006078:	2900      	cmp	r1, #0
 800607a:	d158      	bne.n	800612e <__ieee754_pow+0x16e>
 800607c:	e00e      	b.n	800609c <__ieee754_pow+0xdc>
 800607e:	2900      	cmp	r1, #0
 8006080:	d154      	bne.n	800612c <__ieee754_pow+0x16c>
 8006082:	f1c2 0214 	rsb	r2, r2, #20
 8006086:	fa4a f402 	asr.w	r4, sl, r2
 800608a:	fa04 f202 	lsl.w	r2, r4, r2
 800608e:	4552      	cmp	r2, sl
 8006090:	f040 84a3 	bne.w	80069da <__ieee754_pow+0xa1a>
 8006094:	f004 0401 	and.w	r4, r4, #1
 8006098:	f1c4 0402 	rsb	r4, r4, #2
 800609c:	4a6d      	ldr	r2, [pc, #436]	@ (8006254 <__ieee754_pow+0x294>)
 800609e:	4592      	cmp	sl, r2
 80060a0:	d12e      	bne.n	8006100 <__ieee754_pow+0x140>
 80060a2:	f1b9 0f00 	cmp.w	r9, #0
 80060a6:	f280 8494 	bge.w	80069d2 <__ieee754_pow+0xa12>
 80060aa:	496a      	ldr	r1, [pc, #424]	@ (8006254 <__ieee754_pow+0x294>)
 80060ac:	4632      	mov	r2, r6
 80060ae:	463b      	mov	r3, r7
 80060b0:	2000      	movs	r0, #0
 80060b2:	f7fa fbfb 	bl	80008ac <__aeabi_ddiv>
 80060b6:	e7a0      	b.n	8005ffa <__ieee754_pow+0x3a>
 80060b8:	2400      	movs	r4, #0
 80060ba:	bbc1      	cbnz	r1, 800612e <__ieee754_pow+0x16e>
 80060bc:	4a63      	ldr	r2, [pc, #396]	@ (800624c <__ieee754_pow+0x28c>)
 80060be:	4592      	cmp	sl, r2
 80060c0:	d1ec      	bne.n	800609c <__ieee754_pow+0xdc>
 80060c2:	f108 4240 	add.w	r2, r8, #3221225472	@ 0xc0000000
 80060c6:	f502 1280 	add.w	r2, r2, #1048576	@ 0x100000
 80060ca:	431a      	orrs	r2, r3
 80060cc:	f000 8479 	beq.w	80069c2 <__ieee754_pow+0xa02>
 80060d0:	4b61      	ldr	r3, [pc, #388]	@ (8006258 <__ieee754_pow+0x298>)
 80060d2:	4598      	cmp	r8, r3
 80060d4:	d908      	bls.n	80060e8 <__ieee754_pow+0x128>
 80060d6:	f1b9 0f00 	cmp.w	r9, #0
 80060da:	f2c0 8476 	blt.w	80069ca <__ieee754_pow+0xa0a>
 80060de:	e9dd 0100 	ldrd	r0, r1, [sp]
 80060e2:	e78a      	b.n	8005ffa <__ieee754_pow+0x3a>
 80060e4:	2402      	movs	r4, #2
 80060e6:	e7e8      	b.n	80060ba <__ieee754_pow+0xfa>
 80060e8:	f1b9 0f00 	cmp.w	r9, #0
 80060ec:	f04f 0000 	mov.w	r0, #0
 80060f0:	f04f 0100 	mov.w	r1, #0
 80060f4:	da81      	bge.n	8005ffa <__ieee754_pow+0x3a>
 80060f6:	e9dd 0300 	ldrd	r0, r3, [sp]
 80060fa:	f103 4100 	add.w	r1, r3, #2147483648	@ 0x80000000
 80060fe:	e77c      	b.n	8005ffa <__ieee754_pow+0x3a>
 8006100:	f1b9 4f80 	cmp.w	r9, #1073741824	@ 0x40000000
 8006104:	d106      	bne.n	8006114 <__ieee754_pow+0x154>
 8006106:	4632      	mov	r2, r6
 8006108:	463b      	mov	r3, r7
 800610a:	4630      	mov	r0, r6
 800610c:	4639      	mov	r1, r7
 800610e:	f7fa faa3 	bl	8000658 <__aeabi_dmul>
 8006112:	e772      	b.n	8005ffa <__ieee754_pow+0x3a>
 8006114:	4a51      	ldr	r2, [pc, #324]	@ (800625c <__ieee754_pow+0x29c>)
 8006116:	4591      	cmp	r9, r2
 8006118:	d109      	bne.n	800612e <__ieee754_pow+0x16e>
 800611a:	2d00      	cmp	r5, #0
 800611c:	db07      	blt.n	800612e <__ieee754_pow+0x16e>
 800611e:	ec47 6b10 	vmov	d0, r6, r7
 8006122:	b011      	add	sp, #68	@ 0x44
 8006124:	e8bd 4ff0 	ldmia.w	sp!, {r4, r5, r6, r7, r8, r9, sl, fp, lr}
 8006128:	f000 bd52 	b.w	8006bd0 <__ieee754_sqrt>
 800612c:	2400      	movs	r4, #0
 800612e:	ec47 6b10 	vmov	d0, r6, r7
 8006132:	9302      	str	r3, [sp, #8]
 8006134:	f000 fc88 	bl	8006a48 <fabs>
 8006138:	9b02      	ldr	r3, [sp, #8]
 800613a:	ec51 0b10 	vmov	r0, r1, d0
 800613e:	bb53      	cbnz	r3, 8006196 <__ieee754_pow+0x1d6>
 8006140:	4b44      	ldr	r3, [pc, #272]	@ (8006254 <__ieee754_pow+0x294>)
 8006142:	f025 4240 	bic.w	r2, r5, #3221225472	@ 0xc0000000
 8006146:	429a      	cmp	r2, r3
 8006148:	d002      	beq.n	8006150 <__ieee754_pow+0x190>
 800614a:	f1b8 0f00 	cmp.w	r8, #0
 800614e:	d122      	bne.n	8006196 <__ieee754_pow+0x1d6>
 8006150:	f1b9 0f00 	cmp.w	r9, #0
 8006154:	da05      	bge.n	8006162 <__ieee754_pow+0x1a2>
 8006156:	4602      	mov	r2, r0
 8006158:	460b      	mov	r3, r1
 800615a:	2000      	movs	r0, #0
 800615c:	493d      	ldr	r1, [pc, #244]	@ (8006254 <__ieee754_pow+0x294>)
 800615e:	f7fa fba5 	bl	80008ac <__aeabi_ddiv>
 8006162:	2d00      	cmp	r5, #0
 8006164:	f6bf af49 	bge.w	8005ffa <__ieee754_pow+0x3a>
 8006168:	f108 4840 	add.w	r8, r8, #3221225472	@ 0xc0000000
 800616c:	f508 1880 	add.w	r8, r8, #1048576	@ 0x100000
 8006170:	ea58 0804 	orrs.w	r8, r8, r4
 8006174:	d108      	bne.n	8006188 <__ieee754_pow+0x1c8>
 8006176:	4602      	mov	r2, r0
 8006178:	460b      	mov	r3, r1
 800617a:	4610      	mov	r0, r2
 800617c:	4619      	mov	r1, r3
 800617e:	f7fa f8b3 	bl	80002e8 <__aeabi_dsub>
 8006182:	4602      	mov	r2, r0
 8006184:	460b      	mov	r3, r1
 8006186:	e794      	b.n	80060b2 <__ieee754_pow+0xf2>
 8006188:	2c01      	cmp	r4, #1
 800618a:	f47f af36 	bne.w	8005ffa <__ieee754_pow+0x3a>
 800618e:	f101 4300 	add.w	r3, r1, #2147483648	@ 0x80000000
 8006192:	4619      	mov	r1, r3
 8006194:	e731      	b.n	8005ffa <__ieee754_pow+0x3a>
 8006196:	0feb      	lsrs	r3, r5, #31
 8006198:	3b01      	subs	r3, #1
 800619a:	ea53 0204 	orrs.w	r2, r3, r4
 800619e:	d102      	bne.n	80061a6 <__ieee754_pow+0x1e6>
 80061a0:	4632      	mov	r2, r6
 80061a2:	463b      	mov	r3, r7
 80061a4:	e7e9      	b.n	800617a <__ieee754_pow+0x1ba>
 80061a6:	3c01      	subs	r4, #1
 80061a8:	431c      	orrs	r4, r3
 80061aa:	d016      	beq.n	80061da <__ieee754_pow+0x21a>
 80061ac:	ed9f 7b22 	vldr	d7, [pc, #136]	@ 8006238 <__ieee754_pow+0x278>
 80061b0:	f1ba 4f84 	cmp.w	sl, #1107296256	@ 0x42000000
 80061b4:	ed8d 7b02 	vstr	d7, [sp, #8]
 80061b8:	f240 8112 	bls.w	80063e0 <__ieee754_pow+0x420>
 80061bc:	4b28      	ldr	r3, [pc, #160]	@ (8006260 <__ieee754_pow+0x2a0>)
 80061be:	459a      	cmp	sl, r3
 80061c0:	4b25      	ldr	r3, [pc, #148]	@ (8006258 <__ieee754_pow+0x298>)
 80061c2:	d916      	bls.n	80061f2 <__ieee754_pow+0x232>
 80061c4:	4598      	cmp	r8, r3
 80061c6:	d80b      	bhi.n	80061e0 <__ieee754_pow+0x220>
 80061c8:	f1b9 0f00 	cmp.w	r9, #0
 80061cc:	da0b      	bge.n	80061e6 <__ieee754_pow+0x226>
 80061ce:	2000      	movs	r0, #0
 80061d0:	b011      	add	sp, #68	@ 0x44
 80061d2:	e8bd 4ff0 	ldmia.w	sp!, {r4, r5, r6, r7, r8, r9, sl, fp, lr}
 80061d6:	f000 bcf3 	b.w	8006bc0 <__math_oflow>
 80061da:	ed9f 7b19 	vldr	d7, [pc, #100]	@ 8006240 <__ieee754_pow+0x280>
 80061de:	e7e7      	b.n	80061b0 <__ieee754_pow+0x1f0>
 80061e0:	f1b9 0f00 	cmp.w	r9, #0
 80061e4:	dcf3      	bgt.n	80061ce <__ieee754_pow+0x20e>
 80061e6:	2000      	movs	r0, #0
 80061e8:	b011      	add	sp, #68	@ 0x44
 80061ea:	e8bd 4ff0 	ldmia.w	sp!, {r4, r5, r6, r7, r8, r9, sl, fp, lr}
 80061ee:	f000 bcdf 	b.w	8006bb0 <__math_uflow>
 80061f2:	4598      	cmp	r8, r3
 80061f4:	d20c      	bcs.n	8006210 <__ieee754_pow+0x250>
 80061f6:	e9dd 0102 	ldrd	r0, r1, [sp, #8]
 80061fa:	2200      	movs	r2, #0
 80061fc:	2300      	movs	r3, #0
 80061fe:	f7fa fc9d 	bl	8000b3c <__aeabi_dcmplt>
 8006202:	3800      	subs	r0, #0
 8006204:	bf18      	it	ne
 8006206:	2001      	movne	r0, #1
 8006208:	f1b9 0f00 	cmp.w	r9, #0
 800620c:	daec      	bge.n	80061e8 <__ieee754_pow+0x228>
 800620e:	e7df      	b.n	80061d0 <__ieee754_pow+0x210>
 8006210:	4b10      	ldr	r3, [pc, #64]	@ (8006254 <__ieee754_pow+0x294>)
 8006212:	4598      	cmp	r8, r3
 8006214:	f04f 0200 	mov.w	r2, #0
 8006218:	d924      	bls.n	8006264 <__ieee754_pow+0x2a4>
 800621a:	e9dd 0102 	ldrd	r0, r1, [sp, #8]
 800621e:	2300      	movs	r3, #0
 8006220:	f7fa fc8c 	bl	8000b3c <__aeabi_dcmplt>
 8006224:	3800      	subs	r0, #0
 8006226:	bf18      	it	ne
 8006228:	2001      	movne	r0, #1
 800622a:	f1b9 0f00 	cmp.w	r9, #0
 800622e:	dccf      	bgt.n	80061d0 <__ieee754_pow+0x210>
 8006230:	e7da      	b.n	80061e8 <__ieee754_pow+0x228>
 8006232:	bf00      	nop
 8006234:	f3af 8000 	nop.w
 8006238:	00000000 	.word	0x00000000
 800623c:	3ff00000 	.word	0x3ff00000
 8006240:	00000000 	.word	0x00000000
 8006244:	bff00000 	.word	0xbff00000
 8006248:	fff00000 	.word	0xfff00000
 800624c:	7ff00000 	.word	0x7ff00000
 8006250:	433fffff 	.word	0x433fffff
 8006254:	3ff00000 	.word	0x3ff00000
 8006258:	3fefffff 	.word	0x3fefffff
 800625c:	3fe00000 	.word	0x3fe00000
 8006260:	43f00000 	.word	0x43f00000
 8006264:	4b5a      	ldr	r3, [pc, #360]	@ (80063d0 <__ieee754_pow+0x410>)
 8006266:	f7fa f83f 	bl	80002e8 <__aeabi_dsub>
 800626a:	a351      	add	r3, pc, #324	@ (adr r3, 80063b0 <__ieee754_pow+0x3f0>)
 800626c:	e9d3 2300 	ldrd	r2, r3, [r3]
 8006270:	4604      	mov	r4, r0
 8006272:	460d      	mov	r5, r1
 8006274:	f7fa f9f0 	bl	8000658 <__aeabi_dmul>
 8006278:	a34f      	add	r3, pc, #316	@ (adr r3, 80063b8 <__ieee754_pow+0x3f8>)
 800627a:	e9d3 2300 	ldrd	r2, r3, [r3]
 800627e:	4606      	mov	r6, r0
 8006280:	460f      	mov	r7, r1
 8006282:	4620      	mov	r0, r4
 8006284:	4629      	mov	r1, r5
 8006286:	f7fa f9e7 	bl	8000658 <__aeabi_dmul>
 800628a:	4b52      	ldr	r3, [pc, #328]	@ (80063d4 <__ieee754_pow+0x414>)
 800628c:	4682      	mov	sl, r0
 800628e:	468b      	mov	fp, r1
 8006290:	2200      	movs	r2, #0
 8006292:	4620      	mov	r0, r4
 8006294:	4629      	mov	r1, r5
 8006296:	f7fa f9df 	bl	8000658 <__aeabi_dmul>
 800629a:	4602      	mov	r2, r0
 800629c:	460b      	mov	r3, r1
 800629e:	a148      	add	r1, pc, #288	@ (adr r1, 80063c0 <__ieee754_pow+0x400>)
 80062a0:	e9d1 0100 	ldrd	r0, r1, [r1]
 80062a4:	f7fa f820 	bl	80002e8 <__aeabi_dsub>
 80062a8:	4622      	mov	r2, r4
 80062aa:	462b      	mov	r3, r5
 80062ac:	f7fa f9d4 	bl	8000658 <__aeabi_dmul>
 80062b0:	4602      	mov	r2, r0
 80062b2:	460b      	mov	r3, r1
 80062b4:	2000      	movs	r0, #0
 80062b6:	4948      	ldr	r1, [pc, #288]	@ (80063d8 <__ieee754_pow+0x418>)
 80062b8:	f7fa f816 	bl	80002e8 <__aeabi_dsub>
 80062bc:	4622      	mov	r2, r4
 80062be:	4680      	mov	r8, r0
 80062c0:	4689      	mov	r9, r1
 80062c2:	462b      	mov	r3, r5
 80062c4:	4620      	mov	r0, r4
 80062c6:	4629      	mov	r1, r5
 80062c8:	f7fa f9c6 	bl	8000658 <__aeabi_dmul>
 80062cc:	4602      	mov	r2, r0
 80062ce:	460b      	mov	r3, r1
 80062d0:	4640      	mov	r0, r8
 80062d2:	4649      	mov	r1, r9
 80062d4:	f7fa f9c0 	bl	8000658 <__aeabi_dmul>
 80062d8:	a33b      	add	r3, pc, #236	@ (adr r3, 80063c8 <__ieee754_pow+0x408>)
 80062da:	e9d3 2300 	ldrd	r2, r3, [r3]
 80062de:	f7fa f9bb 	bl	8000658 <__aeabi_dmul>
 80062e2:	4602      	mov	r2, r0
 80062e4:	460b      	mov	r3, r1
 80062e6:	4650      	mov	r0, sl
 80062e8:	4659      	mov	r1, fp
 80062ea:	f7f9 fffd 	bl	80002e8 <__aeabi_dsub>
 80062ee:	4602      	mov	r2, r0
 80062f0:	460b      	mov	r3, r1
 80062f2:	4680      	mov	r8, r0
 80062f4:	4689      	mov	r9, r1
 80062f6:	4630      	mov	r0, r6
 80062f8:	4639      	mov	r1, r7
 80062fa:	f7f9 fff7 	bl	80002ec <__adddf3>
 80062fe:	2400      	movs	r4, #0
 8006300:	4632      	mov	r2, r6
 8006302:	463b      	mov	r3, r7
 8006304:	4620      	mov	r0, r4
 8006306:	460d      	mov	r5, r1
 8006308:	f7f9 ffee 	bl	80002e8 <__aeabi_dsub>
 800630c:	4602      	mov	r2, r0
 800630e:	460b      	mov	r3, r1
 8006310:	4640      	mov	r0, r8
 8006312:	4649      	mov	r1, r9
 8006314:	f7f9 ffe8 	bl	80002e8 <__aeabi_dsub>
 8006318:	e9dd 2300 	ldrd	r2, r3, [sp]
 800631c:	e9cd 2304 	strd	r2, r3, [sp, #16]
 8006320:	2300      	movs	r3, #0
 8006322:	9304      	str	r3, [sp, #16]
 8006324:	e9dd ab04 	ldrd	sl, fp, [sp, #16]
 8006328:	4606      	mov	r6, r0
 800632a:	460f      	mov	r7, r1
 800632c:	4652      	mov	r2, sl
 800632e:	465b      	mov	r3, fp
 8006330:	e9dd 0100 	ldrd	r0, r1, [sp]
 8006334:	f7f9 ffd8 	bl	80002e8 <__aeabi_dsub>
 8006338:	4622      	mov	r2, r4
 800633a:	462b      	mov	r3, r5
 800633c:	f7fa f98c 	bl	8000658 <__aeabi_dmul>
 8006340:	e9dd 2300 	ldrd	r2, r3, [sp]
 8006344:	4680      	mov	r8, r0
 8006346:	4689      	mov	r9, r1
 8006348:	4630      	mov	r0, r6
 800634a:	4639      	mov	r1, r7
 800634c:	f7fa f984 	bl	8000658 <__aeabi_dmul>
 8006350:	4602      	mov	r2, r0
 8006352:	460b      	mov	r3, r1
 8006354:	4640      	mov	r0, r8
 8006356:	4649      	mov	r1, r9
 8006358:	f7f9 ffc8 	bl	80002ec <__adddf3>
 800635c:	4652      	mov	r2, sl
 800635e:	465b      	mov	r3, fp
 8006360:	4606      	mov	r6, r0
 8006362:	460f      	mov	r7, r1
 8006364:	4620      	mov	r0, r4
 8006366:	4629      	mov	r1, r5
 8006368:	f7fa f976 	bl	8000658 <__aeabi_dmul>
 800636c:	460b      	mov	r3, r1
 800636e:	4602      	mov	r2, r0
 8006370:	4680      	mov	r8, r0
 8006372:	4689      	mov	r9, r1
 8006374:	4630      	mov	r0, r6
 8006376:	4639      	mov	r1, r7
 8006378:	f7f9 ffb8 	bl	80002ec <__adddf3>
 800637c:	4b17      	ldr	r3, [pc, #92]	@ (80063dc <__ieee754_pow+0x41c>)
 800637e:	4299      	cmp	r1, r3
 8006380:	4604      	mov	r4, r0
 8006382:	460d      	mov	r5, r1
 8006384:	468a      	mov	sl, r1
 8006386:	468b      	mov	fp, r1
 8006388:	f340 82ef 	ble.w	800696a <__ieee754_pow+0x9aa>
 800638c:	f101 433f 	add.w	r3, r1, #3204448256	@ 0xbf000000
 8006390:	f503 03e0 	add.w	r3, r3, #7340032	@ 0x700000
 8006394:	4303      	orrs	r3, r0
 8006396:	f000 81e8 	beq.w	800676a <__ieee754_pow+0x7aa>
 800639a:	e9dd 0102 	ldrd	r0, r1, [sp, #8]
 800639e:	2200      	movs	r2, #0
 80063a0:	2300      	movs	r3, #0
 80063a2:	f7fa fbcb 	bl	8000b3c <__aeabi_dcmplt>
 80063a6:	3800      	subs	r0, #0
 80063a8:	bf18      	it	ne
 80063aa:	2001      	movne	r0, #1
 80063ac:	e710      	b.n	80061d0 <__ieee754_pow+0x210>
 80063ae:	bf00      	nop
 80063b0:	60000000 	.word	0x60000000
 80063b4:	3ff71547 	.word	0x3ff71547
 80063b8:	f85ddf44 	.word	0xf85ddf44
 80063bc:	3e54ae0b 	.word	0x3e54ae0b
 80063c0:	55555555 	.word	0x55555555
 80063c4:	3fd55555 	.word	0x3fd55555
 80063c8:	652b82fe 	.word	0x652b82fe
 80063cc:	3ff71547 	.word	0x3ff71547
 80063d0:	3ff00000 	.word	0x3ff00000
 80063d4:	3fd00000 	.word	0x3fd00000
 80063d8:	3fe00000 	.word	0x3fe00000
 80063dc:	408fffff 	.word	0x408fffff
 80063e0:	4bd5      	ldr	r3, [pc, #852]	@ (8006738 <__ieee754_pow+0x778>)
 80063e2:	402b      	ands	r3, r5
 80063e4:	2200      	movs	r2, #0
 80063e6:	b92b      	cbnz	r3, 80063f4 <__ieee754_pow+0x434>
 80063e8:	4bd4      	ldr	r3, [pc, #848]	@ (800673c <__ieee754_pow+0x77c>)
 80063ea:	f7fa f935 	bl	8000658 <__aeabi_dmul>
 80063ee:	f06f 0234 	mvn.w	r2, #52	@ 0x34
 80063f2:	468b      	mov	fp, r1
 80063f4:	ea4f 532b 	mov.w	r3, fp, asr #20
 80063f8:	f2a3 33ff 	subw	r3, r3, #1023	@ 0x3ff
 80063fc:	4413      	add	r3, r2
 80063fe:	930a      	str	r3, [sp, #40]	@ 0x28
 8006400:	4bcf      	ldr	r3, [pc, #828]	@ (8006740 <__ieee754_pow+0x780>)
 8006402:	f3cb 0b13 	ubfx	fp, fp, #0, #20
 8006406:	f04b 557f 	orr.w	r5, fp, #1069547520	@ 0x3fc00000
 800640a:	459b      	cmp	fp, r3
 800640c:	f445 1540 	orr.w	r5, r5, #3145728	@ 0x300000
 8006410:	dd08      	ble.n	8006424 <__ieee754_pow+0x464>
 8006412:	4bcc      	ldr	r3, [pc, #816]	@ (8006744 <__ieee754_pow+0x784>)
 8006414:	459b      	cmp	fp, r3
 8006416:	f340 81a5 	ble.w	8006764 <__ieee754_pow+0x7a4>
 800641a:	9b0a      	ldr	r3, [sp, #40]	@ 0x28
 800641c:	3301      	adds	r3, #1
 800641e:	930a      	str	r3, [sp, #40]	@ 0x28
 8006420:	f5a5 1580 	sub.w	r5, r5, #1048576	@ 0x100000
 8006424:	f04f 0a00 	mov.w	sl, #0
 8006428:	ea4f 03ca 	mov.w	r3, sl, lsl #3
 800642c:	930b      	str	r3, [sp, #44]	@ 0x2c
 800642e:	4bc6      	ldr	r3, [pc, #792]	@ (8006748 <__ieee754_pow+0x788>)
 8006430:	eb03 03ca 	add.w	r3, r3, sl, lsl #3
 8006434:	ed93 7b00 	vldr	d7, [r3]
 8006438:	4629      	mov	r1, r5
 800643a:	ec53 2b17 	vmov	r2, r3, d7
 800643e:	ed8d 7b06 	vstr	d7, [sp, #24]
 8006442:	e9cd 0108 	strd	r0, r1, [sp, #32]
 8006446:	f7f9 ff4f 	bl	80002e8 <__aeabi_dsub>
 800644a:	e9dd 2308 	ldrd	r2, r3, [sp, #32]
 800644e:	4606      	mov	r6, r0
 8006450:	460f      	mov	r7, r1
 8006452:	e9dd 0106 	ldrd	r0, r1, [sp, #24]
 8006456:	f7f9 ff49 	bl	80002ec <__adddf3>
 800645a:	4602      	mov	r2, r0
 800645c:	460b      	mov	r3, r1
 800645e:	2000      	movs	r0, #0
 8006460:	49ba      	ldr	r1, [pc, #744]	@ (800674c <__ieee754_pow+0x78c>)
 8006462:	f7fa fa23 	bl	80008ac <__aeabi_ddiv>
 8006466:	e9cd 010c 	strd	r0, r1, [sp, #48]	@ 0x30
 800646a:	4602      	mov	r2, r0
 800646c:	460b      	mov	r3, r1
 800646e:	4630      	mov	r0, r6
 8006470:	4639      	mov	r1, r7
 8006472:	f7fa f8f1 	bl	8000658 <__aeabi_dmul>
 8006476:	e9cd 0104 	strd	r0, r1, [sp, #16]
 800647a:	e9dd bc04 	ldrd	fp, ip, [sp, #16]
 800647e:	106d      	asrs	r5, r5, #1
 8006480:	f045 5500 	orr.w	r5, r5, #536870912	@ 0x20000000
 8006484:	f04f 0b00 	mov.w	fp, #0
 8006488:	f505 2500 	add.w	r5, r5, #524288	@ 0x80000
 800648c:	4661      	mov	r1, ip
 800648e:	2200      	movs	r2, #0
 8006490:	eb05 438a 	add.w	r3, r5, sl, lsl #18
 8006494:	4658      	mov	r0, fp
 8006496:	46e1      	mov	r9, ip
 8006498:	e9cd bc0e 	strd	fp, ip, [sp, #56]	@ 0x38
 800649c:	4614      	mov	r4, r2
 800649e:	461d      	mov	r5, r3
 80064a0:	f7fa f8da 	bl	8000658 <__aeabi_dmul>
 80064a4:	4602      	mov	r2, r0
 80064a6:	460b      	mov	r3, r1
 80064a8:	4630      	mov	r0, r6
 80064aa:	4639      	mov	r1, r7
 80064ac:	f7f9 ff1c 	bl	80002e8 <__aeabi_dsub>
 80064b0:	e9dd 2306 	ldrd	r2, r3, [sp, #24]
 80064b4:	4606      	mov	r6, r0
 80064b6:	460f      	mov	r7, r1
 80064b8:	4620      	mov	r0, r4
 80064ba:	4629      	mov	r1, r5
 80064bc:	f7f9 ff14 	bl	80002e8 <__aeabi_dsub>
 80064c0:	4602      	mov	r2, r0
 80064c2:	460b      	mov	r3, r1
 80064c4:	e9dd 0108 	ldrd	r0, r1, [sp, #32]
 80064c8:	f7f9 ff0e 	bl	80002e8 <__aeabi_dsub>
 80064cc:	465a      	mov	r2, fp
 80064ce:	464b      	mov	r3, r9
 80064d0:	f7fa f8c2 	bl	8000658 <__aeabi_dmul>
 80064d4:	4602      	mov	r2, r0
 80064d6:	460b      	mov	r3, r1
 80064d8:	4630      	mov	r0, r6
 80064da:	4639      	mov	r1, r7
 80064dc:	f7f9 ff04 	bl	80002e8 <__aeabi_dsub>
 80064e0:	e9dd 230c 	ldrd	r2, r3, [sp, #48]	@ 0x30
 80064e4:	f7fa f8b8 	bl	8000658 <__aeabi_dmul>
 80064e8:	e9dd 2304 	ldrd	r2, r3, [sp, #16]
 80064ec:	e9cd 0106 	strd	r0, r1, [sp, #24]
 80064f0:	4610      	mov	r0, r2
 80064f2:	4619      	mov	r1, r3
 80064f4:	f7fa f8b0 	bl	8000658 <__aeabi_dmul>
 80064f8:	a37d      	add	r3, pc, #500	@ (adr r3, 80066f0 <__ieee754_pow+0x730>)
 80064fa:	e9d3 2300 	ldrd	r2, r3, [r3]
 80064fe:	4604      	mov	r4, r0
 8006500:	460d      	mov	r5, r1
 8006502:	f7fa f8a9 	bl	8000658 <__aeabi_dmul>
 8006506:	a37c      	add	r3, pc, #496	@ (adr r3, 80066f8 <__ieee754_pow+0x738>)
 8006508:	e9d3 2300 	ldrd	r2, r3, [r3]
 800650c:	f7f9 feee 	bl	80002ec <__adddf3>
 8006510:	4622      	mov	r2, r4
 8006512:	462b      	mov	r3, r5
 8006514:	f7fa f8a0 	bl	8000658 <__aeabi_dmul>
 8006518:	a379      	add	r3, pc, #484	@ (adr r3, 8006700 <__ieee754_pow+0x740>)
 800651a:	e9d3 2300 	ldrd	r2, r3, [r3]
 800651e:	f7f9 fee5 	bl	80002ec <__adddf3>
 8006522:	4622      	mov	r2, r4
 8006524:	462b      	mov	r3, r5
 8006526:	f7fa f897 	bl	8000658 <__aeabi_dmul>
 800652a:	a377      	add	r3, pc, #476	@ (adr r3, 8006708 <__ieee754_pow+0x748>)
 800652c:	e9d3 2300 	ldrd	r2, r3, [r3]
 8006530:	f7f9 fedc 	bl	80002ec <__adddf3>
 8006534:	4622      	mov	r2, r4
 8006536:	462b      	mov	r3, r5
 8006538:	f7fa f88e 	bl	8000658 <__aeabi_dmul>
 800653c:	a374      	add	r3, pc, #464	@ (adr r3, 8006710 <__ieee754_pow+0x750>)
 800653e:	e9d3 2300 	ldrd	r2, r3, [r3]
 8006542:	f7f9 fed3 	bl	80002ec <__adddf3>
 8006546:	4622      	mov	r2, r4
 8006548:	462b      	mov	r3, r5
 800654a:	f7fa f885 	bl	8000658 <__aeabi_dmul>
 800654e:	a372      	add	r3, pc, #456	@ (adr r3, 8006718 <__ieee754_pow+0x758>)
 8006550:	e9d3 2300 	ldrd	r2, r3, [r3]
 8006554:	f7f9 feca 	bl	80002ec <__adddf3>
 8006558:	4622      	mov	r2, r4
 800655a:	4606      	mov	r6, r0
 800655c:	460f      	mov	r7, r1
 800655e:	462b      	mov	r3, r5
 8006560:	4620      	mov	r0, r4
 8006562:	4629      	mov	r1, r5
 8006564:	f7fa f878 	bl	8000658 <__aeabi_dmul>
 8006568:	4602      	mov	r2, r0
 800656a:	460b      	mov	r3, r1
 800656c:	4630      	mov	r0, r6
 800656e:	4639      	mov	r1, r7
 8006570:	f7fa f872 	bl	8000658 <__aeabi_dmul>
 8006574:	465a      	mov	r2, fp
 8006576:	4604      	mov	r4, r0
 8006578:	460d      	mov	r5, r1
 800657a:	464b      	mov	r3, r9
 800657c:	e9dd 0104 	ldrd	r0, r1, [sp, #16]
 8006580:	f7f9 feb4 	bl	80002ec <__adddf3>
 8006584:	e9dd 2306 	ldrd	r2, r3, [sp, #24]
 8006588:	f7fa f866 	bl	8000658 <__aeabi_dmul>
 800658c:	4622      	mov	r2, r4
 800658e:	462b      	mov	r3, r5
 8006590:	f7f9 feac 	bl	80002ec <__adddf3>
 8006594:	465a      	mov	r2, fp
 8006596:	e9cd 0108 	strd	r0, r1, [sp, #32]
 800659a:	464b      	mov	r3, r9
 800659c:	4658      	mov	r0, fp
 800659e:	4649      	mov	r1, r9
 80065a0:	f7fa f85a 	bl	8000658 <__aeabi_dmul>
 80065a4:	4b6a      	ldr	r3, [pc, #424]	@ (8006750 <__ieee754_pow+0x790>)
 80065a6:	2200      	movs	r2, #0
 80065a8:	4606      	mov	r6, r0
 80065aa:	460f      	mov	r7, r1
 80065ac:	f7f9 fe9e 	bl	80002ec <__adddf3>
 80065b0:	e9dd 2308 	ldrd	r2, r3, [sp, #32]
 80065b4:	f7f9 fe9a 	bl	80002ec <__adddf3>
 80065b8:	46d8      	mov	r8, fp
 80065ba:	e9dd bc0e 	ldrd	fp, ip, [sp, #56]	@ 0x38
 80065be:	460d      	mov	r5, r1
 80065c0:	465a      	mov	r2, fp
 80065c2:	460b      	mov	r3, r1
 80065c4:	4640      	mov	r0, r8
 80065c6:	4649      	mov	r1, r9
 80065c8:	e9cd bc0c 	strd	fp, ip, [sp, #48]	@ 0x30
 80065cc:	f7fa f844 	bl	8000658 <__aeabi_dmul>
 80065d0:	465c      	mov	r4, fp
 80065d2:	4680      	mov	r8, r0
 80065d4:	4689      	mov	r9, r1
 80065d6:	4b5e      	ldr	r3, [pc, #376]	@ (8006750 <__ieee754_pow+0x790>)
 80065d8:	2200      	movs	r2, #0
 80065da:	4620      	mov	r0, r4
 80065dc:	4629      	mov	r1, r5
 80065de:	f7f9 fe83 	bl	80002e8 <__aeabi_dsub>
 80065e2:	4632      	mov	r2, r6
 80065e4:	463b      	mov	r3, r7
 80065e6:	f7f9 fe7f 	bl	80002e8 <__aeabi_dsub>
 80065ea:	4602      	mov	r2, r0
 80065ec:	460b      	mov	r3, r1
 80065ee:	e9dd 0108 	ldrd	r0, r1, [sp, #32]
 80065f2:	f7f9 fe79 	bl	80002e8 <__aeabi_dsub>
 80065f6:	e9dd 2304 	ldrd	r2, r3, [sp, #16]
 80065fa:	f7fa f82d 	bl	8000658 <__aeabi_dmul>
 80065fe:	4622      	mov	r2, r4
 8006600:	4606      	mov	r6, r0
 8006602:	460f      	mov	r7, r1
 8006604:	462b      	mov	r3, r5
 8006606:	e9dd 0106 	ldrd	r0, r1, [sp, #24]
 800660a:	f7fa f825 	bl	8000658 <__aeabi_dmul>
 800660e:	4602      	mov	r2, r0
 8006610:	460b      	mov	r3, r1
 8006612:	4630      	mov	r0, r6
 8006614:	4639      	mov	r1, r7
 8006616:	f7f9 fe69 	bl	80002ec <__adddf3>
 800661a:	4606      	mov	r6, r0
 800661c:	460f      	mov	r7, r1
 800661e:	4602      	mov	r2, r0
 8006620:	460b      	mov	r3, r1
 8006622:	4640      	mov	r0, r8
 8006624:	4649      	mov	r1, r9
 8006626:	f7f9 fe61 	bl	80002ec <__adddf3>
 800662a:	e9dd bc0c 	ldrd	fp, ip, [sp, #48]	@ 0x30
 800662e:	a33c      	add	r3, pc, #240	@ (adr r3, 8006720 <__ieee754_pow+0x760>)
 8006630:	e9d3 2300 	ldrd	r2, r3, [r3]
 8006634:	4658      	mov	r0, fp
 8006636:	e9cd bc08 	strd	fp, ip, [sp, #32]
 800663a:	460d      	mov	r5, r1
 800663c:	f7fa f80c 	bl	8000658 <__aeabi_dmul>
 8006640:	465c      	mov	r4, fp
 8006642:	e9cd 0104 	strd	r0, r1, [sp, #16]
 8006646:	4642      	mov	r2, r8
 8006648:	464b      	mov	r3, r9
 800664a:	4620      	mov	r0, r4
 800664c:	4629      	mov	r1, r5
 800664e:	f7f9 fe4b 	bl	80002e8 <__aeabi_dsub>
 8006652:	4602      	mov	r2, r0
 8006654:	460b      	mov	r3, r1
 8006656:	4630      	mov	r0, r6
 8006658:	4639      	mov	r1, r7
 800665a:	f7f9 fe45 	bl	80002e8 <__aeabi_dsub>
 800665e:	a332      	add	r3, pc, #200	@ (adr r3, 8006728 <__ieee754_pow+0x768>)
 8006660:	e9d3 2300 	ldrd	r2, r3, [r3]
 8006664:	f7f9 fff8 	bl	8000658 <__aeabi_dmul>
 8006668:	a331      	add	r3, pc, #196	@ (adr r3, 8006730 <__ieee754_pow+0x770>)
 800666a:	e9d3 2300 	ldrd	r2, r3, [r3]
 800666e:	4606      	mov	r6, r0
 8006670:	460f      	mov	r7, r1
 8006672:	4620      	mov	r0, r4
 8006674:	4629      	mov	r1, r5
 8006676:	f7f9 ffef 	bl	8000658 <__aeabi_dmul>
 800667a:	4602      	mov	r2, r0
 800667c:	460b      	mov	r3, r1
 800667e:	4630      	mov	r0, r6
 8006680:	4639      	mov	r1, r7
 8006682:	f7f9 fe33 	bl	80002ec <__adddf3>
 8006686:	9a0b      	ldr	r2, [sp, #44]	@ 0x2c
 8006688:	4b32      	ldr	r3, [pc, #200]	@ (8006754 <__ieee754_pow+0x794>)
 800668a:	4413      	add	r3, r2
 800668c:	e9d3 2300 	ldrd	r2, r3, [r3]
 8006690:	f7f9 fe2c 	bl	80002ec <__adddf3>
 8006694:	e9cd 0106 	strd	r0, r1, [sp, #24]
 8006698:	980a      	ldr	r0, [sp, #40]	@ 0x28
 800669a:	f7f9 ff73 	bl	8000584 <__aeabi_i2d>
 800669e:	9a0b      	ldr	r2, [sp, #44]	@ 0x2c
 80066a0:	4b2d      	ldr	r3, [pc, #180]	@ (8006758 <__ieee754_pow+0x798>)
 80066a2:	4413      	add	r3, r2
 80066a4:	e9d3 8900 	ldrd	r8, r9, [r3]
 80066a8:	4606      	mov	r6, r0
 80066aa:	e9dd 2306 	ldrd	r2, r3, [sp, #24]
 80066ae:	460f      	mov	r7, r1
 80066b0:	e9dd 0104 	ldrd	r0, r1, [sp, #16]
 80066b4:	f7f9 fe1a 	bl	80002ec <__adddf3>
 80066b8:	4642      	mov	r2, r8
 80066ba:	464b      	mov	r3, r9
 80066bc:	f7f9 fe16 	bl	80002ec <__adddf3>
 80066c0:	4632      	mov	r2, r6
 80066c2:	463b      	mov	r3, r7
 80066c4:	f7f9 fe12 	bl	80002ec <__adddf3>
 80066c8:	e9dd bc08 	ldrd	fp, ip, [sp, #32]
 80066cc:	4632      	mov	r2, r6
 80066ce:	463b      	mov	r3, r7
 80066d0:	4658      	mov	r0, fp
 80066d2:	460d      	mov	r5, r1
 80066d4:	f7f9 fe08 	bl	80002e8 <__aeabi_dsub>
 80066d8:	4642      	mov	r2, r8
 80066da:	464b      	mov	r3, r9
 80066dc:	f7f9 fe04 	bl	80002e8 <__aeabi_dsub>
 80066e0:	e9dd 2304 	ldrd	r2, r3, [sp, #16]
 80066e4:	f7f9 fe00 	bl	80002e8 <__aeabi_dsub>
 80066e8:	465c      	mov	r4, fp
 80066ea:	4602      	mov	r2, r0
 80066ec:	e036      	b.n	800675c <__ieee754_pow+0x79c>
 80066ee:	bf00      	nop
 80066f0:	4a454eef 	.word	0x4a454eef
 80066f4:	3fca7e28 	.word	0x3fca7e28
 80066f8:	93c9db65 	.word	0x93c9db65
 80066fc:	3fcd864a 	.word	0x3fcd864a
 8006700:	a91d4101 	.word	0xa91d4101
 8006704:	3fd17460 	.word	0x3fd17460
 8006708:	518f264d 	.word	0x518f264d
 800670c:	3fd55555 	.word	0x3fd55555
 8006710:	db6fabff 	.word	0xdb6fabff
 8006714:	3fdb6db6 	.word	0x3fdb6db6
 8006718:	33333303 	.word	0x33333303
 800671c:	3fe33333 	.word	0x3fe33333
 8006720:	e0000000 	.word	0xe0000000
 8006724:	3feec709 	.word	0x3feec709
 8006728:	dc3a03fd 	.word	0xdc3a03fd
 800672c:	3feec709 	.word	0x3feec709
 8006730:	145b01f5 	.word	0x145b01f5
 8006734:	be3e2fe0 	.word	0xbe3e2fe0
 8006738:	7ff00000 	.word	0x7ff00000
 800673c:	43400000 	.word	0x43400000
 8006740:	0003988e 	.word	0x0003988e
 8006744:	000bb679 	.word	0x000bb679
 8006748:	080072b0 	.word	0x080072b0
 800674c:	3ff00000 	.word	0x3ff00000
 8006750:	40080000 	.word	0x40080000
 8006754:	08007290 	.word	0x08007290
 8006758:	080072a0 	.word	0x080072a0
 800675c:	460b      	mov	r3, r1
 800675e:	e9dd 0106 	ldrd	r0, r1, [sp, #24]
 8006762:	e5d7      	b.n	8006314 <__ieee754_pow+0x354>
 8006764:	f04f 0a01 	mov.w	sl, #1
 8006768:	e65e      	b.n	8006428 <__ieee754_pow+0x468>
 800676a:	a3b4      	add	r3, pc, #720	@ (adr r3, 8006a3c <__ieee754_pow+0xa7c>)
 800676c:	e9d3 2300 	ldrd	r2, r3, [r3]
 8006770:	4630      	mov	r0, r6
 8006772:	4639      	mov	r1, r7
 8006774:	f7f9 fdba 	bl	80002ec <__adddf3>
 8006778:	4642      	mov	r2, r8
 800677a:	e9cd 0100 	strd	r0, r1, [sp]
 800677e:	464b      	mov	r3, r9
 8006780:	4620      	mov	r0, r4
 8006782:	4629      	mov	r1, r5
 8006784:	f7f9 fdb0 	bl	80002e8 <__aeabi_dsub>
 8006788:	4602      	mov	r2, r0
 800678a:	460b      	mov	r3, r1
 800678c:	e9dd 0100 	ldrd	r0, r1, [sp]
 8006790:	f7fa f9f2 	bl	8000b78 <__aeabi_dcmpgt>
 8006794:	2800      	cmp	r0, #0
 8006796:	f47f ae00 	bne.w	800639a <__ieee754_pow+0x3da>
 800679a:	ea4f 5a2a 	mov.w	sl, sl, asr #20
 800679e:	f44f 1380 	mov.w	r3, #1048576	@ 0x100000
 80067a2:	f2aa 3afe 	subw	sl, sl, #1022	@ 0x3fe
 80067a6:	fa43 fa0a 	asr.w	sl, r3, sl
 80067aa:	44da      	add	sl, fp
 80067ac:	f3ca 510a 	ubfx	r1, sl, #20, #11
 80067b0:	489d      	ldr	r0, [pc, #628]	@ (8006a28 <__ieee754_pow+0xa68>)
 80067b2:	f2a1 31ff 	subw	r1, r1, #1023	@ 0x3ff
 80067b6:	4108      	asrs	r0, r1
 80067b8:	ea00 030a 	and.w	r3, r0, sl
 80067bc:	f3ca 0a13 	ubfx	sl, sl, #0, #20
 80067c0:	f1c1 0114 	rsb	r1, r1, #20
 80067c4:	f44a 1a80 	orr.w	sl, sl, #1048576	@ 0x100000
 80067c8:	fa4a fa01 	asr.w	sl, sl, r1
 80067cc:	f1bb 0f00 	cmp.w	fp, #0
 80067d0:	4640      	mov	r0, r8
 80067d2:	4649      	mov	r1, r9
 80067d4:	f04f 0200 	mov.w	r2, #0
 80067d8:	bfb8      	it	lt
 80067da:	f1ca 0a00 	rsblt	sl, sl, #0
 80067de:	f7f9 fd83 	bl	80002e8 <__aeabi_dsub>
 80067e2:	4680      	mov	r8, r0
 80067e4:	4689      	mov	r9, r1
 80067e6:	4632      	mov	r2, r6
 80067e8:	463b      	mov	r3, r7
 80067ea:	4640      	mov	r0, r8
 80067ec:	4649      	mov	r1, r9
 80067ee:	f7f9 fd7d 	bl	80002ec <__adddf3>
 80067f2:	2400      	movs	r4, #0
 80067f4:	a37c      	add	r3, pc, #496	@ (adr r3, 80069e8 <__ieee754_pow+0xa28>)
 80067f6:	e9d3 2300 	ldrd	r2, r3, [r3]
 80067fa:	4620      	mov	r0, r4
 80067fc:	460d      	mov	r5, r1
 80067fe:	f7f9 ff2b 	bl	8000658 <__aeabi_dmul>
 8006802:	4642      	mov	r2, r8
 8006804:	e9cd 0100 	strd	r0, r1, [sp]
 8006808:	464b      	mov	r3, r9
 800680a:	4620      	mov	r0, r4
 800680c:	4629      	mov	r1, r5
 800680e:	f7f9 fd6b 	bl	80002e8 <__aeabi_dsub>
 8006812:	4602      	mov	r2, r0
 8006814:	460b      	mov	r3, r1
 8006816:	4630      	mov	r0, r6
 8006818:	4639      	mov	r1, r7
 800681a:	f7f9 fd65 	bl	80002e8 <__aeabi_dsub>
 800681e:	a374      	add	r3, pc, #464	@ (adr r3, 80069f0 <__ieee754_pow+0xa30>)
 8006820:	e9d3 2300 	ldrd	r2, r3, [r3]
 8006824:	f7f9 ff18 	bl	8000658 <__aeabi_dmul>
 8006828:	a373      	add	r3, pc, #460	@ (adr r3, 80069f8 <__ieee754_pow+0xa38>)
 800682a:	e9d3 2300 	ldrd	r2, r3, [r3]
 800682e:	4680      	mov	r8, r0
 8006830:	4689      	mov	r9, r1
 8006832:	4620      	mov	r0, r4
 8006834:	4629      	mov	r1, r5
 8006836:	f7f9 ff0f 	bl	8000658 <__aeabi_dmul>
 800683a:	4602      	mov	r2, r0
 800683c:	460b      	mov	r3, r1
 800683e:	4640      	mov	r0, r8
 8006840:	4649      	mov	r1, r9
 8006842:	f7f9 fd53 	bl	80002ec <__adddf3>
 8006846:	4604      	mov	r4, r0
 8006848:	460d      	mov	r5, r1
 800684a:	4602      	mov	r2, r0
 800684c:	460b      	mov	r3, r1
 800684e:	e9dd 0100 	ldrd	r0, r1, [sp]
 8006852:	f7f9 fd4b 	bl	80002ec <__adddf3>
 8006856:	e9dd 2300 	ldrd	r2, r3, [sp]
 800685a:	4680      	mov	r8, r0
 800685c:	4689      	mov	r9, r1
 800685e:	f7f9 fd43 	bl	80002e8 <__aeabi_dsub>
 8006862:	4602      	mov	r2, r0
 8006864:	460b      	mov	r3, r1
 8006866:	4620      	mov	r0, r4
 8006868:	4629      	mov	r1, r5
 800686a:	f7f9 fd3d 	bl	80002e8 <__aeabi_dsub>
 800686e:	4642      	mov	r2, r8
 8006870:	4606      	mov	r6, r0
 8006872:	460f      	mov	r7, r1
 8006874:	464b      	mov	r3, r9
 8006876:	4640      	mov	r0, r8
 8006878:	4649      	mov	r1, r9
 800687a:	f7f9 feed 	bl	8000658 <__aeabi_dmul>
 800687e:	a360      	add	r3, pc, #384	@ (adr r3, 8006a00 <__ieee754_pow+0xa40>)
 8006880:	e9d3 2300 	ldrd	r2, r3, [r3]
 8006884:	4604      	mov	r4, r0
 8006886:	460d      	mov	r5, r1
 8006888:	f7f9 fee6 	bl	8000658 <__aeabi_dmul>
 800688c:	a35e      	add	r3, pc, #376	@ (adr r3, 8006a08 <__ieee754_pow+0xa48>)
 800688e:	e9d3 2300 	ldrd	r2, r3, [r3]
 8006892:	f7f9 fd29 	bl	80002e8 <__aeabi_dsub>
 8006896:	4622      	mov	r2, r4
 8006898:	462b      	mov	r3, r5
 800689a:	f7f9 fedd 	bl	8000658 <__aeabi_dmul>
 800689e:	a35c      	add	r3, pc, #368	@ (adr r3, 8006a10 <__ieee754_pow+0xa50>)
 80068a0:	e9d3 2300 	ldrd	r2, r3, [r3]
 80068a4:	f7f9 fd22 	bl	80002ec <__adddf3>
 80068a8:	4622      	mov	r2, r4
 80068aa:	462b      	mov	r3, r5
 80068ac:	f7f9 fed4 	bl	8000658 <__aeabi_dmul>
 80068b0:	a359      	add	r3, pc, #356	@ (adr r3, 8006a18 <__ieee754_pow+0xa58>)
 80068b2:	e9d3 2300 	ldrd	r2, r3, [r3]
 80068b6:	f7f9 fd17 	bl	80002e8 <__aeabi_dsub>
 80068ba:	4622      	mov	r2, r4
 80068bc:	462b      	mov	r3, r5
 80068be:	f7f9 fecb 	bl	8000658 <__aeabi_dmul>
 80068c2:	a357      	add	r3, pc, #348	@ (adr r3, 8006a20 <__ieee754_pow+0xa60>)
 80068c4:	e9d3 2300 	ldrd	r2, r3, [r3]
 80068c8:	f7f9 fd10 	bl	80002ec <__adddf3>
 80068cc:	4622      	mov	r2, r4
 80068ce:	462b      	mov	r3, r5
 80068d0:	f7f9 fec2 	bl	8000658 <__aeabi_dmul>
 80068d4:	4602      	mov	r2, r0
 80068d6:	460b      	mov	r3, r1
 80068d8:	4640      	mov	r0, r8
 80068da:	4649      	mov	r1, r9
 80068dc:	f7f9 fd04 	bl	80002e8 <__aeabi_dsub>
 80068e0:	4604      	mov	r4, r0
 80068e2:	460d      	mov	r5, r1
 80068e4:	4602      	mov	r2, r0
 80068e6:	460b      	mov	r3, r1
 80068e8:	4640      	mov	r0, r8
 80068ea:	4649      	mov	r1, r9
 80068ec:	f7f9 feb4 	bl	8000658 <__aeabi_dmul>
 80068f0:	2200      	movs	r2, #0
 80068f2:	e9cd 0100 	strd	r0, r1, [sp]
 80068f6:	f04f 4380 	mov.w	r3, #1073741824	@ 0x40000000
 80068fa:	4620      	mov	r0, r4
 80068fc:	4629      	mov	r1, r5
 80068fe:	f7f9 fcf3 	bl	80002e8 <__aeabi_dsub>
 8006902:	4602      	mov	r2, r0
 8006904:	460b      	mov	r3, r1
 8006906:	e9dd 0100 	ldrd	r0, r1, [sp]
 800690a:	f7f9 ffcf 	bl	80008ac <__aeabi_ddiv>
 800690e:	4632      	mov	r2, r6
 8006910:	4604      	mov	r4, r0
 8006912:	460d      	mov	r5, r1
 8006914:	463b      	mov	r3, r7
 8006916:	4640      	mov	r0, r8
 8006918:	4649      	mov	r1, r9
 800691a:	f7f9 fe9d 	bl	8000658 <__aeabi_dmul>
 800691e:	4632      	mov	r2, r6
 8006920:	463b      	mov	r3, r7
 8006922:	f7f9 fce3 	bl	80002ec <__adddf3>
 8006926:	4602      	mov	r2, r0
 8006928:	460b      	mov	r3, r1
 800692a:	4620      	mov	r0, r4
 800692c:	4629      	mov	r1, r5
 800692e:	f7f9 fcdb 	bl	80002e8 <__aeabi_dsub>
 8006932:	4642      	mov	r2, r8
 8006934:	464b      	mov	r3, r9
 8006936:	f7f9 fcd7 	bl	80002e8 <__aeabi_dsub>
 800693a:	460b      	mov	r3, r1
 800693c:	4602      	mov	r2, r0
 800693e:	493b      	ldr	r1, [pc, #236]	@ (8006a2c <__ieee754_pow+0xa6c>)
 8006940:	2000      	movs	r0, #0
 8006942:	f7f9 fcd1 	bl	80002e8 <__aeabi_dsub>
 8006946:	ec41 0b10 	vmov	d0, r0, r1
 800694a:	ee10 3a90 	vmov	r3, s1
 800694e:	eb03 530a 	add.w	r3, r3, sl, lsl #20
 8006952:	f5b3 1f80 	cmp.w	r3, #1048576	@ 0x100000
 8006956:	da30      	bge.n	80069ba <__ieee754_pow+0x9fa>
 8006958:	4650      	mov	r0, sl
 800695a:	f000 f87d 	bl	8006a58 <scalbn>
 800695e:	ec51 0b10 	vmov	r0, r1, d0
 8006962:	e9dd 2302 	ldrd	r2, r3, [sp, #8]
 8006966:	f7ff bbd2 	b.w	800610e <__ieee754_pow+0x14e>
 800696a:	4c31      	ldr	r4, [pc, #196]	@ (8006a30 <__ieee754_pow+0xa70>)
 800696c:	f021 4300 	bic.w	r3, r1, #2147483648	@ 0x80000000
 8006970:	42a3      	cmp	r3, r4
 8006972:	d91a      	bls.n	80069aa <__ieee754_pow+0x9ea>
 8006974:	4b2f      	ldr	r3, [pc, #188]	@ (8006a34 <__ieee754_pow+0xa74>)
 8006976:	440b      	add	r3, r1
 8006978:	4303      	orrs	r3, r0
 800697a:	d009      	beq.n	8006990 <__ieee754_pow+0x9d0>
 800697c:	e9dd 0102 	ldrd	r0, r1, [sp, #8]
 8006980:	2200      	movs	r2, #0
 8006982:	2300      	movs	r3, #0
 8006984:	f7fa f8da 	bl	8000b3c <__aeabi_dcmplt>
 8006988:	3800      	subs	r0, #0
 800698a:	bf18      	it	ne
 800698c:	2001      	movne	r0, #1
 800698e:	e42b      	b.n	80061e8 <__ieee754_pow+0x228>
 8006990:	4642      	mov	r2, r8
 8006992:	464b      	mov	r3, r9
 8006994:	f7f9 fca8 	bl	80002e8 <__aeabi_dsub>
 8006998:	4632      	mov	r2, r6
 800699a:	463b      	mov	r3, r7
 800699c:	f7fa f8e2 	bl	8000b64 <__aeabi_dcmpge>
 80069a0:	2800      	cmp	r0, #0
 80069a2:	d1eb      	bne.n	800697c <__ieee754_pow+0x9bc>
 80069a4:	f8df a09c 	ldr.w	sl, [pc, #156]	@ 8006a44 <__ieee754_pow+0xa84>
 80069a8:	e6f7      	b.n	800679a <__ieee754_pow+0x7da>
 80069aa:	469a      	mov	sl, r3
 80069ac:	4b22      	ldr	r3, [pc, #136]	@ (8006a38 <__ieee754_pow+0xa78>)
 80069ae:	459a      	cmp	sl, r3
 80069b0:	f63f aef3 	bhi.w	800679a <__ieee754_pow+0x7da>
 80069b4:	f8dd a010 	ldr.w	sl, [sp, #16]
 80069b8:	e715      	b.n	80067e6 <__ieee754_pow+0x826>
 80069ba:	ec51 0b10 	vmov	r0, r1, d0
 80069be:	4619      	mov	r1, r3
 80069c0:	e7cf      	b.n	8006962 <__ieee754_pow+0x9a2>
 80069c2:	491a      	ldr	r1, [pc, #104]	@ (8006a2c <__ieee754_pow+0xa6c>)
 80069c4:	2000      	movs	r0, #0
 80069c6:	f7ff bb18 	b.w	8005ffa <__ieee754_pow+0x3a>
 80069ca:	2000      	movs	r0, #0
 80069cc:	2100      	movs	r1, #0
 80069ce:	f7ff bb14 	b.w	8005ffa <__ieee754_pow+0x3a>
 80069d2:	4630      	mov	r0, r6
 80069d4:	4639      	mov	r1, r7
 80069d6:	f7ff bb10 	b.w	8005ffa <__ieee754_pow+0x3a>
 80069da:	460c      	mov	r4, r1
 80069dc:	f7ff bb5e 	b.w	800609c <__ieee754_pow+0xdc>
 80069e0:	2400      	movs	r4, #0
 80069e2:	f7ff bb49 	b.w	8006078 <__ieee754_pow+0xb8>
 80069e6:	bf00      	nop
 80069e8:	00000000 	.word	0x00000000
 80069ec:	3fe62e43 	.word	0x3fe62e43
 80069f0:	fefa39ef 	.word	0xfefa39ef
 80069f4:	3fe62e42 	.word	0x3fe62e42
 80069f8:	0ca86c39 	.word	0x0ca86c39
 80069fc:	be205c61 	.word	0xbe205c61
 8006a00:	72bea4d0 	.word	0x72bea4d0
 8006a04:	3e663769 	.word	0x3e663769
 8006a08:	c5d26bf1 	.word	0xc5d26bf1
 8006a0c:	3ebbbd41 	.word	0x3ebbbd41
 8006a10:	af25de2c 	.word	0xaf25de2c
 8006a14:	3f11566a 	.word	0x3f11566a
 8006a18:	16bebd93 	.word	0x16bebd93
 8006a1c:	3f66c16c 	.word	0x3f66c16c
 8006a20:	5555553e 	.word	0x5555553e
 8006a24:	3fc55555 	.word	0x3fc55555
 8006a28:	fff00000 	.word	0xfff00000
 8006a2c:	3ff00000 	.word	0x3ff00000
 8006a30:	4090cbff 	.word	0x4090cbff
 8006a34:	3f6f3400 	.word	0x3f6f3400
 8006a38:	3fe00000 	.word	0x3fe00000
 8006a3c:	652b82fe 	.word	0x652b82fe
 8006a40:	3c971547 	.word	0x3c971547
 8006a44:	4090cc00 	.word	0x4090cc00

08006a48 <fabs>:
 8006a48:	ec51 0b10 	vmov	r0, r1, d0
 8006a4c:	4602      	mov	r2, r0
 8006a4e:	f021 4300 	bic.w	r3, r1, #2147483648	@ 0x80000000
 8006a52:	ec43 2b10 	vmov	d0, r2, r3
 8006a56:	4770      	bx	lr

08006a58 <scalbn>:
 8006a58:	b570      	push	{r4, r5, r6, lr}
 8006a5a:	ec55 4b10 	vmov	r4, r5, d0
 8006a5e:	f3c5 510a 	ubfx	r1, r5, #20, #11
 8006a62:	4606      	mov	r6, r0
 8006a64:	462b      	mov	r3, r5
 8006a66:	b991      	cbnz	r1, 8006a8e <scalbn+0x36>
 8006a68:	f025 4300 	bic.w	r3, r5, #2147483648	@ 0x80000000
 8006a6c:	4323      	orrs	r3, r4
 8006a6e:	d03d      	beq.n	8006aec <scalbn+0x94>
 8006a70:	4b35      	ldr	r3, [pc, #212]	@ (8006b48 <scalbn+0xf0>)
 8006a72:	4620      	mov	r0, r4
 8006a74:	4629      	mov	r1, r5
 8006a76:	2200      	movs	r2, #0
 8006a78:	f7f9 fdee 	bl	8000658 <__aeabi_dmul>
 8006a7c:	4b33      	ldr	r3, [pc, #204]	@ (8006b4c <scalbn+0xf4>)
 8006a7e:	429e      	cmp	r6, r3
 8006a80:	4604      	mov	r4, r0
 8006a82:	460d      	mov	r5, r1
 8006a84:	da0f      	bge.n	8006aa6 <scalbn+0x4e>
 8006a86:	a328      	add	r3, pc, #160	@ (adr r3, 8006b28 <scalbn+0xd0>)
 8006a88:	e9d3 2300 	ldrd	r2, r3, [r3]
 8006a8c:	e01e      	b.n	8006acc <scalbn+0x74>
 8006a8e:	f240 72ff 	movw	r2, #2047	@ 0x7ff
 8006a92:	4291      	cmp	r1, r2
 8006a94:	d10b      	bne.n	8006aae <scalbn+0x56>
 8006a96:	4622      	mov	r2, r4
 8006a98:	4620      	mov	r0, r4
 8006a9a:	4629      	mov	r1, r5
 8006a9c:	f7f9 fc26 	bl	80002ec <__adddf3>
 8006aa0:	4604      	mov	r4, r0
 8006aa2:	460d      	mov	r5, r1
 8006aa4:	e022      	b.n	8006aec <scalbn+0x94>
 8006aa6:	460b      	mov	r3, r1
 8006aa8:	f3c1 510a 	ubfx	r1, r1, #20, #11
 8006aac:	3936      	subs	r1, #54	@ 0x36
 8006aae:	f24c 3250 	movw	r2, #50000	@ 0xc350
 8006ab2:	4296      	cmp	r6, r2
 8006ab4:	dd0d      	ble.n	8006ad2 <scalbn+0x7a>
 8006ab6:	2d00      	cmp	r5, #0
 8006ab8:	a11d      	add	r1, pc, #116	@ (adr r1, 8006b30 <scalbn+0xd8>)
 8006aba:	e9d1 0100 	ldrd	r0, r1, [r1]
 8006abe:	da02      	bge.n	8006ac6 <scalbn+0x6e>
 8006ac0:	a11d      	add	r1, pc, #116	@ (adr r1, 8006b38 <scalbn+0xe0>)
 8006ac2:	e9d1 0100 	ldrd	r0, r1, [r1]
 8006ac6:	a31a      	add	r3, pc, #104	@ (adr r3, 8006b30 <scalbn+0xd8>)
 8006ac8:	e9d3 2300 	ldrd	r2, r3, [r3]
 8006acc:	f7f9 fdc4 	bl	8000658 <__aeabi_dmul>
 8006ad0:	e7e6      	b.n	8006aa0 <scalbn+0x48>
 8006ad2:	1872      	adds	r2, r6, r1
 8006ad4:	f240 71fe 	movw	r1, #2046	@ 0x7fe
 8006ad8:	428a      	cmp	r2, r1
 8006ada:	dcec      	bgt.n	8006ab6 <scalbn+0x5e>
 8006adc:	2a00      	cmp	r2, #0
 8006ade:	dd08      	ble.n	8006af2 <scalbn+0x9a>
 8006ae0:	f023 43ff 	bic.w	r3, r3, #2139095040	@ 0x7f800000
 8006ae4:	f423 03e0 	bic.w	r3, r3, #7340032	@ 0x700000
 8006ae8:	ea43 5502 	orr.w	r5, r3, r2, lsl #20
 8006aec:	ec45 4b10 	vmov	d0, r4, r5
 8006af0:	bd70      	pop	{r4, r5, r6, pc}
 8006af2:	f112 0f35 	cmn.w	r2, #53	@ 0x35
 8006af6:	da08      	bge.n	8006b0a <scalbn+0xb2>
 8006af8:	2d00      	cmp	r5, #0
 8006afa:	a10b      	add	r1, pc, #44	@ (adr r1, 8006b28 <scalbn+0xd0>)
 8006afc:	e9d1 0100 	ldrd	r0, r1, [r1]
 8006b00:	dac1      	bge.n	8006a86 <scalbn+0x2e>
 8006b02:	a10f      	add	r1, pc, #60	@ (adr r1, 8006b40 <scalbn+0xe8>)
 8006b04:	e9d1 0100 	ldrd	r0, r1, [r1]
 8006b08:	e7bd      	b.n	8006a86 <scalbn+0x2e>
 8006b0a:	f023 43ff 	bic.w	r3, r3, #2139095040	@ 0x7f800000
 8006b0e:	3236      	adds	r2, #54	@ 0x36
 8006b10:	f423 03e0 	bic.w	r3, r3, #7340032	@ 0x700000
 8006b14:	ea43 5502 	orr.w	r5, r3, r2, lsl #20
 8006b18:	4620      	mov	r0, r4
 8006b1a:	4b0d      	ldr	r3, [pc, #52]	@ (8006b50 <scalbn+0xf8>)
 8006b1c:	4629      	mov	r1, r5
 8006b1e:	2200      	movs	r2, #0
 8006b20:	e7d4      	b.n	8006acc <scalbn+0x74>
 8006b22:	bf00      	nop
 8006b24:	f3af 8000 	nop.w
 8006b28:	c2f8f359 	.word	0xc2f8f359
 8006b2c:	01a56e1f 	.word	0x01a56e1f
 8006b30:	8800759c 	.word	0x8800759c
 8006b34:	7e37e43c 	.word	0x7e37e43c
 8006b38:	8800759c 	.word	0x8800759c
 8006b3c:	fe37e43c 	.word	0xfe37e43c
 8006b40:	c2f8f359 	.word	0xc2f8f359
 8006b44:	81a56e1f 	.word	0x81a56e1f
 8006b48:	43500000 	.word	0x43500000
 8006b4c:	ffff3cb0 	.word	0xffff3cb0
 8006b50:	3c900000 	.word	0x3c900000

08006b54 <with_errno>:
 8006b54:	b510      	push	{r4, lr}
 8006b56:	ed2d 8b02 	vpush	{d8}
 8006b5a:	eeb0 8a40 	vmov.f32	s16, s0
 8006b5e:	eef0 8a60 	vmov.f32	s17, s1
 8006b62:	4604      	mov	r4, r0
 8006b64:	f7fd f932 	bl	8003dcc <__errno>
 8006b68:	eeb0 0a48 	vmov.f32	s0, s16
 8006b6c:	eef0 0a68 	vmov.f32	s1, s17
 8006b70:	ecbd 8b02 	vpop	{d8}
 8006b74:	6004      	str	r4, [r0, #0]
 8006b76:	bd10      	pop	{r4, pc}

08006b78 <xflow>:
 8006b78:	4603      	mov	r3, r0
 8006b7a:	b507      	push	{r0, r1, r2, lr}
 8006b7c:	ec51 0b10 	vmov	r0, r1, d0
 8006b80:	b183      	cbz	r3, 8006ba4 <xflow+0x2c>
 8006b82:	4602      	mov	r2, r0
 8006b84:	f101 4300 	add.w	r3, r1, #2147483648	@ 0x80000000
 8006b88:	e9cd 2300 	strd	r2, r3, [sp]
 8006b8c:	e9dd 2300 	ldrd	r2, r3, [sp]
 8006b90:	f7f9 fd62 	bl	8000658 <__aeabi_dmul>
 8006b94:	ec41 0b10 	vmov	d0, r0, r1
 8006b98:	2022      	movs	r0, #34	@ 0x22
 8006b9a:	b003      	add	sp, #12
 8006b9c:	f85d eb04 	ldr.w	lr, [sp], #4
 8006ba0:	f7ff bfd8 	b.w	8006b54 <with_errno>
 8006ba4:	4602      	mov	r2, r0
 8006ba6:	460b      	mov	r3, r1
 8006ba8:	e7ee      	b.n	8006b88 <xflow+0x10>
 8006baa:	0000      	movs	r0, r0
 8006bac:	0000      	movs	r0, r0
	...

08006bb0 <__math_uflow>:
 8006bb0:	ed9f 0b01 	vldr	d0, [pc, #4]	@ 8006bb8 <__math_uflow+0x8>
 8006bb4:	f7ff bfe0 	b.w	8006b78 <xflow>
 8006bb8:	00000000 	.word	0x00000000
 8006bbc:	10000000 	.word	0x10000000

08006bc0 <__math_oflow>:
 8006bc0:	ed9f 0b01 	vldr	d0, [pc, #4]	@ 8006bc8 <__math_oflow+0x8>
 8006bc4:	f7ff bfd8 	b.w	8006b78 <xflow>
 8006bc8:	00000000 	.word	0x00000000
 8006bcc:	70000000 	.word	0x70000000

08006bd0 <__ieee754_sqrt>:
 8006bd0:	e92d 4ff8 	stmdb	sp!, {r3, r4, r5, r6, r7, r8, r9, sl, fp, lr}
 8006bd4:	4a68      	ldr	r2, [pc, #416]	@ (8006d78 <__ieee754_sqrt+0x1a8>)
 8006bd6:	ec55 4b10 	vmov	r4, r5, d0
 8006bda:	43aa      	bics	r2, r5
 8006bdc:	462b      	mov	r3, r5
 8006bde:	4621      	mov	r1, r4
 8006be0:	d110      	bne.n	8006c04 <__ieee754_sqrt+0x34>
 8006be2:	4622      	mov	r2, r4
 8006be4:	4620      	mov	r0, r4
 8006be6:	4629      	mov	r1, r5
 8006be8:	f7f9 fd36 	bl	8000658 <__aeabi_dmul>
 8006bec:	4602      	mov	r2, r0
 8006bee:	460b      	mov	r3, r1
 8006bf0:	4620      	mov	r0, r4
 8006bf2:	4629      	mov	r1, r5
 8006bf4:	f7f9 fb7a 	bl	80002ec <__adddf3>
 8006bf8:	4604      	mov	r4, r0
 8006bfa:	460d      	mov	r5, r1
 8006bfc:	ec45 4b10 	vmov	d0, r4, r5
 8006c00:	e8bd 8ff8 	ldmia.w	sp!, {r3, r4, r5, r6, r7, r8, r9, sl, fp, pc}
 8006c04:	2d00      	cmp	r5, #0
 8006c06:	dc0e      	bgt.n	8006c26 <__ieee754_sqrt+0x56>
 8006c08:	f025 4200 	bic.w	r2, r5, #2147483648	@ 0x80000000
 8006c0c:	4322      	orrs	r2, r4
 8006c0e:	d0f5      	beq.n	8006bfc <__ieee754_sqrt+0x2c>
 8006c10:	b19d      	cbz	r5, 8006c3a <__ieee754_sqrt+0x6a>
 8006c12:	4622      	mov	r2, r4
 8006c14:	4620      	mov	r0, r4
 8006c16:	4629      	mov	r1, r5
 8006c18:	f7f9 fb66 	bl	80002e8 <__aeabi_dsub>
 8006c1c:	4602      	mov	r2, r0
 8006c1e:	460b      	mov	r3, r1
 8006c20:	f7f9 fe44 	bl	80008ac <__aeabi_ddiv>
 8006c24:	e7e8      	b.n	8006bf8 <__ieee754_sqrt+0x28>
 8006c26:	152a      	asrs	r2, r5, #20
 8006c28:	d115      	bne.n	8006c56 <__ieee754_sqrt+0x86>
 8006c2a:	2000      	movs	r0, #0
 8006c2c:	e009      	b.n	8006c42 <__ieee754_sqrt+0x72>
 8006c2e:	0acb      	lsrs	r3, r1, #11
 8006c30:	3a15      	subs	r2, #21
 8006c32:	0549      	lsls	r1, r1, #21
 8006c34:	2b00      	cmp	r3, #0
 8006c36:	d0fa      	beq.n	8006c2e <__ieee754_sqrt+0x5e>
 8006c38:	e7f7      	b.n	8006c2a <__ieee754_sqrt+0x5a>
 8006c3a:	462a      	mov	r2, r5
 8006c3c:	e7fa      	b.n	8006c34 <__ieee754_sqrt+0x64>
 8006c3e:	005b      	lsls	r3, r3, #1
 8006c40:	3001      	adds	r0, #1
 8006c42:	02dc      	lsls	r4, r3, #11
 8006c44:	d5fb      	bpl.n	8006c3e <__ieee754_sqrt+0x6e>
 8006c46:	1e44      	subs	r4, r0, #1
 8006c48:	1b12      	subs	r2, r2, r4
 8006c4a:	f1c0 0420 	rsb	r4, r0, #32
 8006c4e:	fa21 f404 	lsr.w	r4, r1, r4
 8006c52:	4323      	orrs	r3, r4
 8006c54:	4081      	lsls	r1, r0
 8006c56:	f3c3 0313 	ubfx	r3, r3, #0, #20
 8006c5a:	f2a2 35ff 	subw	r5, r2, #1023	@ 0x3ff
 8006c5e:	f443 1380 	orr.w	r3, r3, #1048576	@ 0x100000
 8006c62:	07d2      	lsls	r2, r2, #31
 8006c64:	bf5c      	itt	pl
 8006c66:	005b      	lslpl	r3, r3, #1
 8006c68:	eb03 73d1 	addpl.w	r3, r3, r1, lsr #31
 8006c6c:	ea4f 0343 	mov.w	r3, r3, lsl #1
 8006c70:	bf58      	it	pl
 8006c72:	0049      	lslpl	r1, r1, #1
 8006c74:	2600      	movs	r6, #0
 8006c76:	eb03 73d1 	add.w	r3, r3, r1, lsr #31
 8006c7a:	106d      	asrs	r5, r5, #1
 8006c7c:	0049      	lsls	r1, r1, #1
 8006c7e:	2016      	movs	r0, #22
 8006c80:	4632      	mov	r2, r6
 8006c82:	f44f 1400 	mov.w	r4, #2097152	@ 0x200000
 8006c86:	1917      	adds	r7, r2, r4
 8006c88:	429f      	cmp	r7, r3
 8006c8a:	bfde      	ittt	le
 8006c8c:	193a      	addle	r2, r7, r4
 8006c8e:	1bdb      	suble	r3, r3, r7
 8006c90:	1936      	addle	r6, r6, r4
 8006c92:	0fcf      	lsrs	r7, r1, #31
 8006c94:	3801      	subs	r0, #1
 8006c96:	eb07 0343 	add.w	r3, r7, r3, lsl #1
 8006c9a:	ea4f 0141 	mov.w	r1, r1, lsl #1
 8006c9e:	ea4f 0454 	mov.w	r4, r4, lsr #1
 8006ca2:	d1f0      	bne.n	8006c86 <__ieee754_sqrt+0xb6>
 8006ca4:	4604      	mov	r4, r0
 8006ca6:	2720      	movs	r7, #32
 8006ca8:	f04f 4c00 	mov.w	ip, #2147483648	@ 0x80000000
 8006cac:	429a      	cmp	r2, r3
 8006cae:	eb00 0e0c 	add.w	lr, r0, ip
 8006cb2:	db02      	blt.n	8006cba <__ieee754_sqrt+0xea>
 8006cb4:	d113      	bne.n	8006cde <__ieee754_sqrt+0x10e>
 8006cb6:	458e      	cmp	lr, r1
 8006cb8:	d811      	bhi.n	8006cde <__ieee754_sqrt+0x10e>
 8006cba:	f1be 0f00 	cmp.w	lr, #0
 8006cbe:	eb0e 000c 	add.w	r0, lr, ip
 8006cc2:	da42      	bge.n	8006d4a <__ieee754_sqrt+0x17a>
 8006cc4:	2800      	cmp	r0, #0
 8006cc6:	db40      	blt.n	8006d4a <__ieee754_sqrt+0x17a>
 8006cc8:	f102 0801 	add.w	r8, r2, #1
 8006ccc:	1a9b      	subs	r3, r3, r2
 8006cce:	458e      	cmp	lr, r1
 8006cd0:	bf88      	it	hi
 8006cd2:	f103 33ff 	addhi.w	r3, r3, #4294967295
 8006cd6:	eba1 010e 	sub.w	r1, r1, lr
 8006cda:	4464      	add	r4, ip
 8006cdc:	4642      	mov	r2, r8
 8006cde:	ea4f 7ed1 	mov.w	lr, r1, lsr #31
 8006ce2:	3f01      	subs	r7, #1
 8006ce4:	eb0e 0343 	add.w	r3, lr, r3, lsl #1
 8006ce8:	ea4f 0141 	mov.w	r1, r1, lsl #1
 8006cec:	ea4f 0c5c 	mov.w	ip, ip, lsr #1
 8006cf0:	d1dc      	bne.n	8006cac <__ieee754_sqrt+0xdc>
 8006cf2:	4319      	orrs	r1, r3
 8006cf4:	d01b      	beq.n	8006d2e <__ieee754_sqrt+0x15e>
 8006cf6:	f8df a084 	ldr.w	sl, [pc, #132]	@ 8006d7c <__ieee754_sqrt+0x1ac>
 8006cfa:	f8df b084 	ldr.w	fp, [pc, #132]	@ 8006d80 <__ieee754_sqrt+0x1b0>
 8006cfe:	e9da 0100 	ldrd	r0, r1, [sl]
 8006d02:	e9db 2300 	ldrd	r2, r3, [fp]
 8006d06:	f7f9 faef 	bl	80002e8 <__aeabi_dsub>
 8006d0a:	e9da 8900 	ldrd	r8, r9, [sl]
 8006d0e:	4602      	mov	r2, r0
 8006d10:	460b      	mov	r3, r1
 8006d12:	4640      	mov	r0, r8
 8006d14:	4649      	mov	r1, r9
 8006d16:	f7f9 ff1b 	bl	8000b50 <__aeabi_dcmple>
 8006d1a:	b140      	cbz	r0, 8006d2e <__ieee754_sqrt+0x15e>
 8006d1c:	f1b4 3fff 	cmp.w	r4, #4294967295
 8006d20:	e9da 0100 	ldrd	r0, r1, [sl]
 8006d24:	e9db 2300 	ldrd	r2, r3, [fp]
 8006d28:	d111      	bne.n	8006d4e <__ieee754_sqrt+0x17e>
 8006d2a:	3601      	adds	r6, #1
 8006d2c:	463c      	mov	r4, r7
 8006d2e:	1072      	asrs	r2, r6, #1
 8006d30:	0863      	lsrs	r3, r4, #1
 8006d32:	07f1      	lsls	r1, r6, #31
 8006d34:	f102 527f 	add.w	r2, r2, #1069547520	@ 0x3fc00000
 8006d38:	f502 1200 	add.w	r2, r2, #2097152	@ 0x200000
 8006d3c:	bf48      	it	mi
 8006d3e:	f043 4300 	orrmi.w	r3, r3, #2147483648	@ 0x80000000
 8006d42:	eb02 5105 	add.w	r1, r2, r5, lsl #20
 8006d46:	4618      	mov	r0, r3
 8006d48:	e756      	b.n	8006bf8 <__ieee754_sqrt+0x28>
 8006d4a:	4690      	mov	r8, r2
 8006d4c:	e7be      	b.n	8006ccc <__ieee754_sqrt+0xfc>
 8006d4e:	f7f9 facd 	bl	80002ec <__adddf3>
 8006d52:	e9da 8900 	ldrd	r8, r9, [sl]
 8006d56:	4602      	mov	r2, r0
 8006d58:	460b      	mov	r3, r1
 8006d5a:	4640      	mov	r0, r8
 8006d5c:	4649      	mov	r1, r9
 8006d5e:	f7f9 feed 	bl	8000b3c <__aeabi_dcmplt>
 8006d62:	b120      	cbz	r0, 8006d6e <__ieee754_sqrt+0x19e>
 8006d64:	1ca0      	adds	r0, r4, #2
 8006d66:	bf08      	it	eq
 8006d68:	3601      	addeq	r6, #1
 8006d6a:	3402      	adds	r4, #2
 8006d6c:	e7df      	b.n	8006d2e <__ieee754_sqrt+0x15e>
 8006d6e:	1c63      	adds	r3, r4, #1
 8006d70:	f023 0401 	bic.w	r4, r3, #1
 8006d74:	e7db      	b.n	8006d2e <__ieee754_sqrt+0x15e>
 8006d76:	bf00      	nop
 8006d78:	7ff00000 	.word	0x7ff00000
 8006d7c:	20000208 	.word	0x20000208
 8006d80:	20000200 	.word	0x20000200

08006d84 <_init>:
 8006d84:	b5f8      	push	{r3, r4, r5, r6, r7, lr}
 8006d86:	bf00      	nop
 8006d88:	bcf8      	pop	{r3, r4, r5, r6, r7}
 8006d8a:	bc08      	pop	{r3}
 8006d8c:	469e      	mov	lr, r3
 8006d8e:	4770      	bx	lr

08006d90 <_fini>:
 8006d90:	b5f8      	push	{r3, r4, r5, r6, r7, lr}
 8006d92:	bf00      	nop
 8006d94:	bcf8      	pop	{r3, r4, r5, r6, r7}
 8006d96:	bc08      	pop	{r3}
 8006d98:	469e      	mov	lr, r3
 8006d9a:	4770      	bx	lr
